ARM GAS  C:\Users\EI\AppData\Local\Temp\cc6xPaa5.s 			page 1


   1              		.cpu cortex-m4
   2              		.eabi_attribute 27, 1
   3              		.eabi_attribute 28, 1
   4              		.eabi_attribute 20, 1
   5              		.eabi_attribute 21, 1
   6              		.eabi_attribute 23, 3
   7              		.eabi_attribute 24, 1
   8              		.eabi_attribute 25, 1
   9              		.eabi_attribute 26, 1
  10              		.eabi_attribute 30, 6
  11              		.eabi_attribute 34, 1
  12              		.eabi_attribute 18, 4
  13              		.file	"queue.c"
  14              		.text
  15              	.Ltext0:
  16              		.cfi_sections	.debug_frame
  17              		.global	xQueueRegistry
  18              		.section	.bss.xQueueRegistry,"aw",%nobits
  19              		.align	2
  22              	xQueueRegistry:
  23 0000 00000000 		.space	64
  23      00000000 
  23      00000000 
  23      00000000 
  23      00000000 
  24              		.section	.text.xQueueGenericReset,"ax",%progbits
  25              		.align	1
  26              		.global	xQueueGenericReset
  27              		.arch armv7e-m
  28              		.syntax unified
  29              		.thumb
  30              		.thumb_func
  31              		.fpu fpv4-sp-d16
  33              	xQueueGenericReset:
  34              	.LFB4:
  35              		.file 1 "Middlewares/Third_Party/FreeRTOS/Source/queue.c"
   1:Middlewares/Third_Party/FreeRTOS/Source/queue.c **** /*
   2:Middlewares/Third_Party/FreeRTOS/Source/queue.c ****  * FreeRTOS Kernel V10.3.1
   3:Middlewares/Third_Party/FreeRTOS/Source/queue.c ****  * Copyright (C) 2020 Amazon.com, Inc. or its affiliates.  All Rights Reserved.
   4:Middlewares/Third_Party/FreeRTOS/Source/queue.c ****  *
   5:Middlewares/Third_Party/FreeRTOS/Source/queue.c ****  * Permission is hereby granted, free of charge, to any person obtaining a copy of
   6:Middlewares/Third_Party/FreeRTOS/Source/queue.c ****  * this software and associated documentation files (the "Software"), to deal in
   7:Middlewares/Third_Party/FreeRTOS/Source/queue.c ****  * the Software without restriction, including without limitation the rights to
   8:Middlewares/Third_Party/FreeRTOS/Source/queue.c ****  * use, copy, modify, merge, publish, distribute, sublicense, and/or sell copies of
   9:Middlewares/Third_Party/FreeRTOS/Source/queue.c ****  * the Software, and to permit persons to whom the Software is furnished to do so,
  10:Middlewares/Third_Party/FreeRTOS/Source/queue.c ****  * subject to the following conditions:
  11:Middlewares/Third_Party/FreeRTOS/Source/queue.c ****  *
  12:Middlewares/Third_Party/FreeRTOS/Source/queue.c ****  * The above copyright notice and this permission notice shall be included in all
  13:Middlewares/Third_Party/FreeRTOS/Source/queue.c ****  * copies or substantial portions of the Software.
  14:Middlewares/Third_Party/FreeRTOS/Source/queue.c ****  *
  15:Middlewares/Third_Party/FreeRTOS/Source/queue.c ****  * THE SOFTWARE IS PROVIDED "AS IS", WITHOUT WARRANTY OF ANY KIND, EXPRESS OR
  16:Middlewares/Third_Party/FreeRTOS/Source/queue.c ****  * IMPLIED, INCLUDING BUT NOT LIMITED TO THE WARRANTIES OF MERCHANTABILITY, FITNESS
  17:Middlewares/Third_Party/FreeRTOS/Source/queue.c ****  * FOR A PARTICULAR PURPOSE AND NONINFRINGEMENT. IN NO EVENT SHALL THE AUTHORS OR
  18:Middlewares/Third_Party/FreeRTOS/Source/queue.c ****  * COPYRIGHT HOLDERS BE LIABLE FOR ANY CLAIM, DAMAGES OR OTHER LIABILITY, WHETHER
  19:Middlewares/Third_Party/FreeRTOS/Source/queue.c ****  * IN AN ACTION OF CONTRACT, TORT OR OTHERWISE, ARISING FROM, OUT OF OR IN
  20:Middlewares/Third_Party/FreeRTOS/Source/queue.c ****  * CONNECTION WITH THE SOFTWARE OR THE USE OR OTHER DEALINGS IN THE SOFTWARE.
  21:Middlewares/Third_Party/FreeRTOS/Source/queue.c ****  *
ARM GAS  C:\Users\EI\AppData\Local\Temp\cc6xPaa5.s 			page 2


  22:Middlewares/Third_Party/FreeRTOS/Source/queue.c ****  * http://www.FreeRTOS.org
  23:Middlewares/Third_Party/FreeRTOS/Source/queue.c ****  * http://aws.amazon.com/freertos
  24:Middlewares/Third_Party/FreeRTOS/Source/queue.c ****  *
  25:Middlewares/Third_Party/FreeRTOS/Source/queue.c ****  * 1 tab == 4 spaces!
  26:Middlewares/Third_Party/FreeRTOS/Source/queue.c ****  */
  27:Middlewares/Third_Party/FreeRTOS/Source/queue.c **** 
  28:Middlewares/Third_Party/FreeRTOS/Source/queue.c **** #include <stdlib.h>
  29:Middlewares/Third_Party/FreeRTOS/Source/queue.c **** #include <string.h>
  30:Middlewares/Third_Party/FreeRTOS/Source/queue.c **** 
  31:Middlewares/Third_Party/FreeRTOS/Source/queue.c **** /* Defining MPU_WRAPPERS_INCLUDED_FROM_API_FILE prevents task.h from redefining
  32:Middlewares/Third_Party/FreeRTOS/Source/queue.c **** all the API functions to use the MPU wrappers.  That should only be done when
  33:Middlewares/Third_Party/FreeRTOS/Source/queue.c **** task.h is included from an application file. */
  34:Middlewares/Third_Party/FreeRTOS/Source/queue.c **** #define MPU_WRAPPERS_INCLUDED_FROM_API_FILE
  35:Middlewares/Third_Party/FreeRTOS/Source/queue.c **** 
  36:Middlewares/Third_Party/FreeRTOS/Source/queue.c **** #include "FreeRTOS.h"
  37:Middlewares/Third_Party/FreeRTOS/Source/queue.c **** #include "task.h"
  38:Middlewares/Third_Party/FreeRTOS/Source/queue.c **** #include "queue.h"
  39:Middlewares/Third_Party/FreeRTOS/Source/queue.c **** 
  40:Middlewares/Third_Party/FreeRTOS/Source/queue.c **** #if ( configUSE_CO_ROUTINES == 1 )
  41:Middlewares/Third_Party/FreeRTOS/Source/queue.c **** 	#include "croutine.h"
  42:Middlewares/Third_Party/FreeRTOS/Source/queue.c **** #endif
  43:Middlewares/Third_Party/FreeRTOS/Source/queue.c **** 
  44:Middlewares/Third_Party/FreeRTOS/Source/queue.c **** /* Lint e9021, e961 and e750 are suppressed as a MISRA exception justified
  45:Middlewares/Third_Party/FreeRTOS/Source/queue.c **** because the MPU ports require MPU_WRAPPERS_INCLUDED_FROM_API_FILE to be defined
  46:Middlewares/Third_Party/FreeRTOS/Source/queue.c **** for the header files above, but not in this file, in order to generate the
  47:Middlewares/Third_Party/FreeRTOS/Source/queue.c **** correct privileged Vs unprivileged linkage and placement. */
  48:Middlewares/Third_Party/FreeRTOS/Source/queue.c **** #undef MPU_WRAPPERS_INCLUDED_FROM_API_FILE /*lint !e961 !e750 !e9021. */
  49:Middlewares/Third_Party/FreeRTOS/Source/queue.c **** 
  50:Middlewares/Third_Party/FreeRTOS/Source/queue.c **** 
  51:Middlewares/Third_Party/FreeRTOS/Source/queue.c **** /* Constants used with the cRxLock and cTxLock structure members. */
  52:Middlewares/Third_Party/FreeRTOS/Source/queue.c **** #define queueUNLOCKED					( ( int8_t ) -1 )
  53:Middlewares/Third_Party/FreeRTOS/Source/queue.c **** #define queueLOCKED_UNMODIFIED			( ( int8_t ) 0 )
  54:Middlewares/Third_Party/FreeRTOS/Source/queue.c **** 
  55:Middlewares/Third_Party/FreeRTOS/Source/queue.c **** /* When the Queue_t structure is used to represent a base queue its pcHead and
  56:Middlewares/Third_Party/FreeRTOS/Source/queue.c **** pcTail members are used as pointers into the queue storage area.  When the
  57:Middlewares/Third_Party/FreeRTOS/Source/queue.c **** Queue_t structure is used to represent a mutex pcHead and pcTail pointers are
  58:Middlewares/Third_Party/FreeRTOS/Source/queue.c **** not necessary, and the pcHead pointer is set to NULL to indicate that the
  59:Middlewares/Third_Party/FreeRTOS/Source/queue.c **** structure instead holds a pointer to the mutex holder (if any).  Map alternative
  60:Middlewares/Third_Party/FreeRTOS/Source/queue.c **** names to the pcHead and structure member to ensure the readability of the code
  61:Middlewares/Third_Party/FreeRTOS/Source/queue.c **** is maintained.  The QueuePointers_t and SemaphoreData_t types are used to form
  62:Middlewares/Third_Party/FreeRTOS/Source/queue.c **** a union as their usage is mutually exclusive dependent on what the queue is
  63:Middlewares/Third_Party/FreeRTOS/Source/queue.c **** being used for. */
  64:Middlewares/Third_Party/FreeRTOS/Source/queue.c **** #define uxQueueType						pcHead
  65:Middlewares/Third_Party/FreeRTOS/Source/queue.c **** #define queueQUEUE_IS_MUTEX				NULL
  66:Middlewares/Third_Party/FreeRTOS/Source/queue.c **** 
  67:Middlewares/Third_Party/FreeRTOS/Source/queue.c **** typedef struct QueuePointers
  68:Middlewares/Third_Party/FreeRTOS/Source/queue.c **** {
  69:Middlewares/Third_Party/FreeRTOS/Source/queue.c **** 	int8_t *pcTail;					/*< Points to the byte at the end of the queue storage area.  Once more byte i
  70:Middlewares/Third_Party/FreeRTOS/Source/queue.c **** 	int8_t *pcReadFrom;				/*< Points to the last place that a queued item was read from when the stru
  71:Middlewares/Third_Party/FreeRTOS/Source/queue.c **** } QueuePointers_t;
  72:Middlewares/Third_Party/FreeRTOS/Source/queue.c **** 
  73:Middlewares/Third_Party/FreeRTOS/Source/queue.c **** typedef struct SemaphoreData
  74:Middlewares/Third_Party/FreeRTOS/Source/queue.c **** {
  75:Middlewares/Third_Party/FreeRTOS/Source/queue.c **** 	TaskHandle_t xMutexHolder;		 /*< The handle of the task that holds the mutex. */
  76:Middlewares/Third_Party/FreeRTOS/Source/queue.c **** 	UBaseType_t uxRecursiveCallCount;/*< Maintains a count of the number of times a recursive mutex ha
  77:Middlewares/Third_Party/FreeRTOS/Source/queue.c **** } SemaphoreData_t;
  78:Middlewares/Third_Party/FreeRTOS/Source/queue.c **** 
ARM GAS  C:\Users\EI\AppData\Local\Temp\cc6xPaa5.s 			page 3


  79:Middlewares/Third_Party/FreeRTOS/Source/queue.c **** /* Semaphores do not actually store or copy data, so have an item size of
  80:Middlewares/Third_Party/FreeRTOS/Source/queue.c **** zero. */
  81:Middlewares/Third_Party/FreeRTOS/Source/queue.c **** #define queueSEMAPHORE_QUEUE_ITEM_LENGTH ( ( UBaseType_t ) 0 )
  82:Middlewares/Third_Party/FreeRTOS/Source/queue.c **** #define queueMUTEX_GIVE_BLOCK_TIME		 ( ( TickType_t ) 0U )
  83:Middlewares/Third_Party/FreeRTOS/Source/queue.c **** 
  84:Middlewares/Third_Party/FreeRTOS/Source/queue.c **** #if( configUSE_PREEMPTION == 0 )
  85:Middlewares/Third_Party/FreeRTOS/Source/queue.c **** 	/* If the cooperative scheduler is being used then a yield should not be
  86:Middlewares/Third_Party/FreeRTOS/Source/queue.c **** 	performed just because a higher priority task has been woken. */
  87:Middlewares/Third_Party/FreeRTOS/Source/queue.c **** 	#define queueYIELD_IF_USING_PREEMPTION()
  88:Middlewares/Third_Party/FreeRTOS/Source/queue.c **** #else
  89:Middlewares/Third_Party/FreeRTOS/Source/queue.c **** 	#define queueYIELD_IF_USING_PREEMPTION() portYIELD_WITHIN_API()
  90:Middlewares/Third_Party/FreeRTOS/Source/queue.c **** #endif
  91:Middlewares/Third_Party/FreeRTOS/Source/queue.c **** 
  92:Middlewares/Third_Party/FreeRTOS/Source/queue.c **** /*
  93:Middlewares/Third_Party/FreeRTOS/Source/queue.c ****  * Definition of the queue used by the scheduler.
  94:Middlewares/Third_Party/FreeRTOS/Source/queue.c ****  * Items are queued by copy, not reference.  See the following link for the
  95:Middlewares/Third_Party/FreeRTOS/Source/queue.c ****  * rationale: https://www.freertos.org/Embedded-RTOS-Queues.html
  96:Middlewares/Third_Party/FreeRTOS/Source/queue.c ****  */
  97:Middlewares/Third_Party/FreeRTOS/Source/queue.c **** typedef struct QueueDefinition 		/* The old naming convention is used to prevent breaking kernel aw
  98:Middlewares/Third_Party/FreeRTOS/Source/queue.c **** {
  99:Middlewares/Third_Party/FreeRTOS/Source/queue.c **** 	int8_t *pcHead;					/*< Points to the beginning of the queue storage area. */
 100:Middlewares/Third_Party/FreeRTOS/Source/queue.c **** 	int8_t *pcWriteTo;				/*< Points to the free next place in the storage area. */
 101:Middlewares/Third_Party/FreeRTOS/Source/queue.c **** 
 102:Middlewares/Third_Party/FreeRTOS/Source/queue.c **** 	union
 103:Middlewares/Third_Party/FreeRTOS/Source/queue.c **** 	{
 104:Middlewares/Third_Party/FreeRTOS/Source/queue.c **** 		QueuePointers_t xQueue;		/*< Data required exclusively when this structure is used as a queue. */
 105:Middlewares/Third_Party/FreeRTOS/Source/queue.c **** 		SemaphoreData_t xSemaphore; /*< Data required exclusively when this structure is used as a semaph
 106:Middlewares/Third_Party/FreeRTOS/Source/queue.c **** 	} u;
 107:Middlewares/Third_Party/FreeRTOS/Source/queue.c **** 
 108:Middlewares/Third_Party/FreeRTOS/Source/queue.c **** 	List_t xTasksWaitingToSend;		/*< List of tasks that are blocked waiting to post onto this queue.  
 109:Middlewares/Third_Party/FreeRTOS/Source/queue.c **** 	List_t xTasksWaitingToReceive;	/*< List of tasks that are blocked waiting to read from this queue.
 110:Middlewares/Third_Party/FreeRTOS/Source/queue.c **** 
 111:Middlewares/Third_Party/FreeRTOS/Source/queue.c **** 	volatile UBaseType_t uxMessagesWaiting;/*< The number of items currently in the queue. */
 112:Middlewares/Third_Party/FreeRTOS/Source/queue.c **** 	UBaseType_t uxLength;			/*< The length of the queue defined as the number of items it will hold, n
 113:Middlewares/Third_Party/FreeRTOS/Source/queue.c **** 	UBaseType_t uxItemSize;			/*< The size of each items that the queue will hold. */
 114:Middlewares/Third_Party/FreeRTOS/Source/queue.c **** 
 115:Middlewares/Third_Party/FreeRTOS/Source/queue.c **** 	volatile int8_t cRxLock;		/*< Stores the number of items received from the queue (removed from the
 116:Middlewares/Third_Party/FreeRTOS/Source/queue.c **** 	volatile int8_t cTxLock;		/*< Stores the number of items transmitted to the queue (added to the qu
 117:Middlewares/Third_Party/FreeRTOS/Source/queue.c **** 
 118:Middlewares/Third_Party/FreeRTOS/Source/queue.c **** 	#if( ( configSUPPORT_STATIC_ALLOCATION == 1 ) && ( configSUPPORT_DYNAMIC_ALLOCATION == 1 ) )
 119:Middlewares/Third_Party/FreeRTOS/Source/queue.c **** 		uint8_t ucStaticallyAllocated;	/*< Set to pdTRUE if the memory used by the queue was statically a
 120:Middlewares/Third_Party/FreeRTOS/Source/queue.c **** 	#endif
 121:Middlewares/Third_Party/FreeRTOS/Source/queue.c **** 
 122:Middlewares/Third_Party/FreeRTOS/Source/queue.c **** 	#if ( configUSE_QUEUE_SETS == 1 )
 123:Middlewares/Third_Party/FreeRTOS/Source/queue.c **** 		struct QueueDefinition *pxQueueSetContainer;
 124:Middlewares/Third_Party/FreeRTOS/Source/queue.c **** 	#endif
 125:Middlewares/Third_Party/FreeRTOS/Source/queue.c **** 
 126:Middlewares/Third_Party/FreeRTOS/Source/queue.c **** 	#if ( configUSE_TRACE_FACILITY == 1 )
 127:Middlewares/Third_Party/FreeRTOS/Source/queue.c **** 		UBaseType_t uxQueueNumber;
 128:Middlewares/Third_Party/FreeRTOS/Source/queue.c **** 		uint8_t ucQueueType;
 129:Middlewares/Third_Party/FreeRTOS/Source/queue.c **** 	#endif
 130:Middlewares/Third_Party/FreeRTOS/Source/queue.c **** 
 131:Middlewares/Third_Party/FreeRTOS/Source/queue.c **** } xQUEUE;
 132:Middlewares/Third_Party/FreeRTOS/Source/queue.c **** 
 133:Middlewares/Third_Party/FreeRTOS/Source/queue.c **** /* The old xQUEUE name is maintained above then typedefed to the new Queue_t
 134:Middlewares/Third_Party/FreeRTOS/Source/queue.c **** name below to enable the use of older kernel aware debuggers. */
 135:Middlewares/Third_Party/FreeRTOS/Source/queue.c **** typedef xQUEUE Queue_t;
ARM GAS  C:\Users\EI\AppData\Local\Temp\cc6xPaa5.s 			page 4


 136:Middlewares/Third_Party/FreeRTOS/Source/queue.c **** 
 137:Middlewares/Third_Party/FreeRTOS/Source/queue.c **** /*-----------------------------------------------------------*/
 138:Middlewares/Third_Party/FreeRTOS/Source/queue.c **** 
 139:Middlewares/Third_Party/FreeRTOS/Source/queue.c **** /*
 140:Middlewares/Third_Party/FreeRTOS/Source/queue.c ****  * The queue registry is just a means for kernel aware debuggers to locate
 141:Middlewares/Third_Party/FreeRTOS/Source/queue.c ****  * queue structures.  It has no other purpose so is an optional component.
 142:Middlewares/Third_Party/FreeRTOS/Source/queue.c ****  */
 143:Middlewares/Third_Party/FreeRTOS/Source/queue.c **** #if ( configQUEUE_REGISTRY_SIZE > 0 )
 144:Middlewares/Third_Party/FreeRTOS/Source/queue.c **** 
 145:Middlewares/Third_Party/FreeRTOS/Source/queue.c **** 	/* The type stored within the queue registry array.  This allows a name
 146:Middlewares/Third_Party/FreeRTOS/Source/queue.c **** 	to be assigned to each queue making kernel aware debugging a little
 147:Middlewares/Third_Party/FreeRTOS/Source/queue.c **** 	more user friendly. */
 148:Middlewares/Third_Party/FreeRTOS/Source/queue.c **** 	typedef struct QUEUE_REGISTRY_ITEM
 149:Middlewares/Third_Party/FreeRTOS/Source/queue.c **** 	{
 150:Middlewares/Third_Party/FreeRTOS/Source/queue.c **** 		const char *pcQueueName; /*lint !e971 Unqualified char types are allowed for strings and single c
 151:Middlewares/Third_Party/FreeRTOS/Source/queue.c **** 		QueueHandle_t xHandle;
 152:Middlewares/Third_Party/FreeRTOS/Source/queue.c **** 	} xQueueRegistryItem;
 153:Middlewares/Third_Party/FreeRTOS/Source/queue.c **** 
 154:Middlewares/Third_Party/FreeRTOS/Source/queue.c **** 	/* The old xQueueRegistryItem name is maintained above then typedefed to the
 155:Middlewares/Third_Party/FreeRTOS/Source/queue.c **** 	new xQueueRegistryItem name below to enable the use of older kernel aware
 156:Middlewares/Third_Party/FreeRTOS/Source/queue.c **** 	debuggers. */
 157:Middlewares/Third_Party/FreeRTOS/Source/queue.c **** 	typedef xQueueRegistryItem QueueRegistryItem_t;
 158:Middlewares/Third_Party/FreeRTOS/Source/queue.c **** 
 159:Middlewares/Third_Party/FreeRTOS/Source/queue.c **** 	/* The queue registry is simply an array of QueueRegistryItem_t structures.
 160:Middlewares/Third_Party/FreeRTOS/Source/queue.c **** 	The pcQueueName member of a structure being NULL is indicative of the
 161:Middlewares/Third_Party/FreeRTOS/Source/queue.c **** 	array position being vacant. */
 162:Middlewares/Third_Party/FreeRTOS/Source/queue.c **** 	PRIVILEGED_DATA QueueRegistryItem_t xQueueRegistry[ configQUEUE_REGISTRY_SIZE ];
 163:Middlewares/Third_Party/FreeRTOS/Source/queue.c **** 
 164:Middlewares/Third_Party/FreeRTOS/Source/queue.c **** #endif /* configQUEUE_REGISTRY_SIZE */
 165:Middlewares/Third_Party/FreeRTOS/Source/queue.c **** 
 166:Middlewares/Third_Party/FreeRTOS/Source/queue.c **** /*
 167:Middlewares/Third_Party/FreeRTOS/Source/queue.c ****  * Unlocks a queue locked by a call to prvLockQueue.  Locking a queue does not
 168:Middlewares/Third_Party/FreeRTOS/Source/queue.c ****  * prevent an ISR from adding or removing items to the queue, but does prevent
 169:Middlewares/Third_Party/FreeRTOS/Source/queue.c ****  * an ISR from removing tasks from the queue event lists.  If an ISR finds a
 170:Middlewares/Third_Party/FreeRTOS/Source/queue.c ****  * queue is locked it will instead increment the appropriate queue lock count
 171:Middlewares/Third_Party/FreeRTOS/Source/queue.c ****  * to indicate that a task may require unblocking.  When the queue in unlocked
 172:Middlewares/Third_Party/FreeRTOS/Source/queue.c ****  * these lock counts are inspected, and the appropriate action taken.
 173:Middlewares/Third_Party/FreeRTOS/Source/queue.c ****  */
 174:Middlewares/Third_Party/FreeRTOS/Source/queue.c **** static void prvUnlockQueue( Queue_t * const pxQueue ) PRIVILEGED_FUNCTION;
 175:Middlewares/Third_Party/FreeRTOS/Source/queue.c **** 
 176:Middlewares/Third_Party/FreeRTOS/Source/queue.c **** /*
 177:Middlewares/Third_Party/FreeRTOS/Source/queue.c ****  * Uses a critical section to determine if there is any data in a queue.
 178:Middlewares/Third_Party/FreeRTOS/Source/queue.c ****  *
 179:Middlewares/Third_Party/FreeRTOS/Source/queue.c ****  * @return pdTRUE if the queue contains no items, otherwise pdFALSE.
 180:Middlewares/Third_Party/FreeRTOS/Source/queue.c ****  */
 181:Middlewares/Third_Party/FreeRTOS/Source/queue.c **** static BaseType_t prvIsQueueEmpty( const Queue_t *pxQueue ) PRIVILEGED_FUNCTION;
 182:Middlewares/Third_Party/FreeRTOS/Source/queue.c **** 
 183:Middlewares/Third_Party/FreeRTOS/Source/queue.c **** /*
 184:Middlewares/Third_Party/FreeRTOS/Source/queue.c ****  * Uses a critical section to determine if there is any space in a queue.
 185:Middlewares/Third_Party/FreeRTOS/Source/queue.c ****  *
 186:Middlewares/Third_Party/FreeRTOS/Source/queue.c ****  * @return pdTRUE if there is no space, otherwise pdFALSE;
 187:Middlewares/Third_Party/FreeRTOS/Source/queue.c ****  */
 188:Middlewares/Third_Party/FreeRTOS/Source/queue.c **** static BaseType_t prvIsQueueFull( const Queue_t *pxQueue ) PRIVILEGED_FUNCTION;
 189:Middlewares/Third_Party/FreeRTOS/Source/queue.c **** 
 190:Middlewares/Third_Party/FreeRTOS/Source/queue.c **** /*
 191:Middlewares/Third_Party/FreeRTOS/Source/queue.c ****  * Copies an item into the queue, either at the front of the queue or the
 192:Middlewares/Third_Party/FreeRTOS/Source/queue.c ****  * back of the queue.
ARM GAS  C:\Users\EI\AppData\Local\Temp\cc6xPaa5.s 			page 5


 193:Middlewares/Third_Party/FreeRTOS/Source/queue.c ****  */
 194:Middlewares/Third_Party/FreeRTOS/Source/queue.c **** static BaseType_t prvCopyDataToQueue( Queue_t * const pxQueue, const void *pvItemToQueue, const Bas
 195:Middlewares/Third_Party/FreeRTOS/Source/queue.c **** 
 196:Middlewares/Third_Party/FreeRTOS/Source/queue.c **** /*
 197:Middlewares/Third_Party/FreeRTOS/Source/queue.c ****  * Copies an item out of a queue.
 198:Middlewares/Third_Party/FreeRTOS/Source/queue.c ****  */
 199:Middlewares/Third_Party/FreeRTOS/Source/queue.c **** static void prvCopyDataFromQueue( Queue_t * const pxQueue, void * const pvBuffer ) PRIVILEGED_FUNCT
 200:Middlewares/Third_Party/FreeRTOS/Source/queue.c **** 
 201:Middlewares/Third_Party/FreeRTOS/Source/queue.c **** #if ( configUSE_QUEUE_SETS == 1 )
 202:Middlewares/Third_Party/FreeRTOS/Source/queue.c **** 	/*
 203:Middlewares/Third_Party/FreeRTOS/Source/queue.c **** 	 * Checks to see if a queue is a member of a queue set, and if so, notifies
 204:Middlewares/Third_Party/FreeRTOS/Source/queue.c **** 	 * the queue set that the queue contains data.
 205:Middlewares/Third_Party/FreeRTOS/Source/queue.c **** 	 */
 206:Middlewares/Third_Party/FreeRTOS/Source/queue.c **** 	static BaseType_t prvNotifyQueueSetContainer( const Queue_t * const pxQueue ) PRIVILEGED_FUNCTION;
 207:Middlewares/Third_Party/FreeRTOS/Source/queue.c **** #endif
 208:Middlewares/Third_Party/FreeRTOS/Source/queue.c **** 
 209:Middlewares/Third_Party/FreeRTOS/Source/queue.c **** /*
 210:Middlewares/Third_Party/FreeRTOS/Source/queue.c ****  * Called after a Queue_t structure has been allocated either statically or
 211:Middlewares/Third_Party/FreeRTOS/Source/queue.c ****  * dynamically to fill in the structure's members.
 212:Middlewares/Third_Party/FreeRTOS/Source/queue.c ****  */
 213:Middlewares/Third_Party/FreeRTOS/Source/queue.c **** static void prvInitialiseNewQueue( const UBaseType_t uxQueueLength, const UBaseType_t uxItemSize, u
 214:Middlewares/Third_Party/FreeRTOS/Source/queue.c **** 
 215:Middlewares/Third_Party/FreeRTOS/Source/queue.c **** /*
 216:Middlewares/Third_Party/FreeRTOS/Source/queue.c ****  * Mutexes are a special type of queue.  When a mutex is created, first the
 217:Middlewares/Third_Party/FreeRTOS/Source/queue.c ****  * queue is created, then prvInitialiseMutex() is called to configure the queue
 218:Middlewares/Third_Party/FreeRTOS/Source/queue.c ****  * as a mutex.
 219:Middlewares/Third_Party/FreeRTOS/Source/queue.c ****  */
 220:Middlewares/Third_Party/FreeRTOS/Source/queue.c **** #if( configUSE_MUTEXES == 1 )
 221:Middlewares/Third_Party/FreeRTOS/Source/queue.c **** 	static void prvInitialiseMutex( Queue_t *pxNewQueue ) PRIVILEGED_FUNCTION;
 222:Middlewares/Third_Party/FreeRTOS/Source/queue.c **** #endif
 223:Middlewares/Third_Party/FreeRTOS/Source/queue.c **** 
 224:Middlewares/Third_Party/FreeRTOS/Source/queue.c **** #if( configUSE_MUTEXES == 1 )
 225:Middlewares/Third_Party/FreeRTOS/Source/queue.c **** 	/*
 226:Middlewares/Third_Party/FreeRTOS/Source/queue.c **** 	 * If a task waiting for a mutex causes the mutex holder to inherit a
 227:Middlewares/Third_Party/FreeRTOS/Source/queue.c **** 	 * priority, but the waiting task times out, then the holder should
 228:Middlewares/Third_Party/FreeRTOS/Source/queue.c **** 	 * disinherit the priority - but only down to the highest priority of any
 229:Middlewares/Third_Party/FreeRTOS/Source/queue.c **** 	 * other tasks that are waiting for the same mutex.  This function returns
 230:Middlewares/Third_Party/FreeRTOS/Source/queue.c **** 	 * that priority.
 231:Middlewares/Third_Party/FreeRTOS/Source/queue.c **** 	 */
 232:Middlewares/Third_Party/FreeRTOS/Source/queue.c **** 	static UBaseType_t prvGetDisinheritPriorityAfterTimeout( const Queue_t * const pxQueue ) PRIVILEGE
 233:Middlewares/Third_Party/FreeRTOS/Source/queue.c **** #endif
 234:Middlewares/Third_Party/FreeRTOS/Source/queue.c **** /*-----------------------------------------------------------*/
 235:Middlewares/Third_Party/FreeRTOS/Source/queue.c **** 
 236:Middlewares/Third_Party/FreeRTOS/Source/queue.c **** /*
 237:Middlewares/Third_Party/FreeRTOS/Source/queue.c ****  * Macro to mark a queue as locked.  Locking a queue prevents an ISR from
 238:Middlewares/Third_Party/FreeRTOS/Source/queue.c ****  * accessing the queue event lists.
 239:Middlewares/Third_Party/FreeRTOS/Source/queue.c ****  */
 240:Middlewares/Third_Party/FreeRTOS/Source/queue.c **** #define prvLockQueue( pxQueue )								\
 241:Middlewares/Third_Party/FreeRTOS/Source/queue.c **** 	taskENTER_CRITICAL();									\
 242:Middlewares/Third_Party/FreeRTOS/Source/queue.c **** 	{														\
 243:Middlewares/Third_Party/FreeRTOS/Source/queue.c **** 		if( ( pxQueue )->cRxLock == queueUNLOCKED )			\
 244:Middlewares/Third_Party/FreeRTOS/Source/queue.c **** 		{													\
 245:Middlewares/Third_Party/FreeRTOS/Source/queue.c **** 			( pxQueue )->cRxLock = queueLOCKED_UNMODIFIED;	\
 246:Middlewares/Third_Party/FreeRTOS/Source/queue.c **** 		}													\
 247:Middlewares/Third_Party/FreeRTOS/Source/queue.c **** 		if( ( pxQueue )->cTxLock == queueUNLOCKED )			\
 248:Middlewares/Third_Party/FreeRTOS/Source/queue.c **** 		{													\
 249:Middlewares/Third_Party/FreeRTOS/Source/queue.c **** 			( pxQueue )->cTxLock = queueLOCKED_UNMODIFIED;	\
ARM GAS  C:\Users\EI\AppData\Local\Temp\cc6xPaa5.s 			page 6


 250:Middlewares/Third_Party/FreeRTOS/Source/queue.c **** 		}													\
 251:Middlewares/Third_Party/FreeRTOS/Source/queue.c **** 	}														\
 252:Middlewares/Third_Party/FreeRTOS/Source/queue.c **** 	taskEXIT_CRITICAL()
 253:Middlewares/Third_Party/FreeRTOS/Source/queue.c **** /*-----------------------------------------------------------*/
 254:Middlewares/Third_Party/FreeRTOS/Source/queue.c **** 
 255:Middlewares/Third_Party/FreeRTOS/Source/queue.c **** BaseType_t xQueueGenericReset( QueueHandle_t xQueue, BaseType_t xNewQueue )
 256:Middlewares/Third_Party/FreeRTOS/Source/queue.c **** {
  36              		.loc 1 256 1
  37              		.cfi_startproc
  38              		@ args = 0, pretend = 0, frame = 16
  39              		@ frame_needed = 1, uses_anonymous_args = 0
  40 0000 80B5     		push	{r7, lr}
  41              	.LCFI0:
  42              		.cfi_def_cfa_offset 8
  43              		.cfi_offset 7, -8
  44              		.cfi_offset 14, -4
  45 0002 84B0     		sub	sp, sp, #16
  46              	.LCFI1:
  47              		.cfi_def_cfa_offset 24
  48 0004 00AF     		add	r7, sp, #0
  49              	.LCFI2:
  50              		.cfi_def_cfa_register 7
  51 0006 7860     		str	r0, [r7, #4]
  52 0008 3960     		str	r1, [r7]
 257:Middlewares/Third_Party/FreeRTOS/Source/queue.c **** Queue_t * const pxQueue = xQueue;
  53              		.loc 1 257 17
  54 000a 7B68     		ldr	r3, [r7, #4]
  55 000c FB60     		str	r3, [r7, #12]
 258:Middlewares/Third_Party/FreeRTOS/Source/queue.c **** 
 259:Middlewares/Third_Party/FreeRTOS/Source/queue.c **** 	configASSERT( pxQueue );
  56              		.loc 1 259 2
  57 000e FB68     		ldr	r3, [r7, #12]
  58 0010 002B     		cmp	r3, #0
  59 0012 0AD1     		bne	.L2
  60              	.LBB118:
  61              	.LBB119:
  62              		.file 2 "Middlewares/Third_Party/FreeRTOS/Source/portable/GCC/ARM_CM4F/portmacro.h"
   1:Middlewares/Third_Party/FreeRTOS/Source/portable/GCC/ARM_CM4F/portmacro.h **** /*
   2:Middlewares/Third_Party/FreeRTOS/Source/portable/GCC/ARM_CM4F/portmacro.h ****  * FreeRTOS Kernel V10.3.1
   3:Middlewares/Third_Party/FreeRTOS/Source/portable/GCC/ARM_CM4F/portmacro.h ****  * Copyright (C) 2020 Amazon.com, Inc. or its affiliates.  All Rights Reserved.
   4:Middlewares/Third_Party/FreeRTOS/Source/portable/GCC/ARM_CM4F/portmacro.h ****  *
   5:Middlewares/Third_Party/FreeRTOS/Source/portable/GCC/ARM_CM4F/portmacro.h ****  * Permission is hereby granted, free of charge, to any person obtaining a copy of
   6:Middlewares/Third_Party/FreeRTOS/Source/portable/GCC/ARM_CM4F/portmacro.h ****  * this software and associated documentation files (the "Software"), to deal in
   7:Middlewares/Third_Party/FreeRTOS/Source/portable/GCC/ARM_CM4F/portmacro.h ****  * the Software without restriction, including without limitation the rights to
   8:Middlewares/Third_Party/FreeRTOS/Source/portable/GCC/ARM_CM4F/portmacro.h ****  * use, copy, modify, merge, publish, distribute, sublicense, and/or sell copies of
   9:Middlewares/Third_Party/FreeRTOS/Source/portable/GCC/ARM_CM4F/portmacro.h ****  * the Software, and to permit persons to whom the Software is furnished to do so,
  10:Middlewares/Third_Party/FreeRTOS/Source/portable/GCC/ARM_CM4F/portmacro.h ****  * subject to the following conditions:
  11:Middlewares/Third_Party/FreeRTOS/Source/portable/GCC/ARM_CM4F/portmacro.h ****  *
  12:Middlewares/Third_Party/FreeRTOS/Source/portable/GCC/ARM_CM4F/portmacro.h ****  * The above copyright notice and this permission notice shall be included in all
  13:Middlewares/Third_Party/FreeRTOS/Source/portable/GCC/ARM_CM4F/portmacro.h ****  * copies or substantial portions of the Software.
  14:Middlewares/Third_Party/FreeRTOS/Source/portable/GCC/ARM_CM4F/portmacro.h ****  *
  15:Middlewares/Third_Party/FreeRTOS/Source/portable/GCC/ARM_CM4F/portmacro.h ****  * THE SOFTWARE IS PROVIDED "AS IS", WITHOUT WARRANTY OF ANY KIND, EXPRESS OR
  16:Middlewares/Third_Party/FreeRTOS/Source/portable/GCC/ARM_CM4F/portmacro.h ****  * IMPLIED, INCLUDING BUT NOT LIMITED TO THE WARRANTIES OF MERCHANTABILITY, FITNESS
  17:Middlewares/Third_Party/FreeRTOS/Source/portable/GCC/ARM_CM4F/portmacro.h ****  * FOR A PARTICULAR PURPOSE AND NONINFRINGEMENT. IN NO EVENT SHALL THE AUTHORS OR
  18:Middlewares/Third_Party/FreeRTOS/Source/portable/GCC/ARM_CM4F/portmacro.h ****  * COPYRIGHT HOLDERS BE LIABLE FOR ANY CLAIM, DAMAGES OR OTHER LIABILITY, WHETHER
  19:Middlewares/Third_Party/FreeRTOS/Source/portable/GCC/ARM_CM4F/portmacro.h ****  * IN AN ACTION OF CONTRACT, TORT OR OTHERWISE, ARISING FROM, OUT OF OR IN
  20:Middlewares/Third_Party/FreeRTOS/Source/portable/GCC/ARM_CM4F/portmacro.h ****  * CONNECTION WITH THE SOFTWARE OR THE USE OR OTHER DEALINGS IN THE SOFTWARE.
ARM GAS  C:\Users\EI\AppData\Local\Temp\cc6xPaa5.s 			page 7


  21:Middlewares/Third_Party/FreeRTOS/Source/portable/GCC/ARM_CM4F/portmacro.h ****  *
  22:Middlewares/Third_Party/FreeRTOS/Source/portable/GCC/ARM_CM4F/portmacro.h ****  * http://www.FreeRTOS.org
  23:Middlewares/Third_Party/FreeRTOS/Source/portable/GCC/ARM_CM4F/portmacro.h ****  * http://aws.amazon.com/freertos
  24:Middlewares/Third_Party/FreeRTOS/Source/portable/GCC/ARM_CM4F/portmacro.h ****  *
  25:Middlewares/Third_Party/FreeRTOS/Source/portable/GCC/ARM_CM4F/portmacro.h ****  * 1 tab == 4 spaces!
  26:Middlewares/Third_Party/FreeRTOS/Source/portable/GCC/ARM_CM4F/portmacro.h ****  */
  27:Middlewares/Third_Party/FreeRTOS/Source/portable/GCC/ARM_CM4F/portmacro.h **** 
  28:Middlewares/Third_Party/FreeRTOS/Source/portable/GCC/ARM_CM4F/portmacro.h **** 
  29:Middlewares/Third_Party/FreeRTOS/Source/portable/GCC/ARM_CM4F/portmacro.h **** #ifndef PORTMACRO_H
  30:Middlewares/Third_Party/FreeRTOS/Source/portable/GCC/ARM_CM4F/portmacro.h **** #define PORTMACRO_H
  31:Middlewares/Third_Party/FreeRTOS/Source/portable/GCC/ARM_CM4F/portmacro.h **** 
  32:Middlewares/Third_Party/FreeRTOS/Source/portable/GCC/ARM_CM4F/portmacro.h **** #ifdef __cplusplus
  33:Middlewares/Third_Party/FreeRTOS/Source/portable/GCC/ARM_CM4F/portmacro.h **** extern "C" {
  34:Middlewares/Third_Party/FreeRTOS/Source/portable/GCC/ARM_CM4F/portmacro.h **** #endif
  35:Middlewares/Third_Party/FreeRTOS/Source/portable/GCC/ARM_CM4F/portmacro.h **** 
  36:Middlewares/Third_Party/FreeRTOS/Source/portable/GCC/ARM_CM4F/portmacro.h **** /*-----------------------------------------------------------
  37:Middlewares/Third_Party/FreeRTOS/Source/portable/GCC/ARM_CM4F/portmacro.h ****  * Port specific definitions.
  38:Middlewares/Third_Party/FreeRTOS/Source/portable/GCC/ARM_CM4F/portmacro.h ****  *
  39:Middlewares/Third_Party/FreeRTOS/Source/portable/GCC/ARM_CM4F/portmacro.h ****  * The settings in this file configure FreeRTOS correctly for the
  40:Middlewares/Third_Party/FreeRTOS/Source/portable/GCC/ARM_CM4F/portmacro.h ****  * given hardware and compiler.
  41:Middlewares/Third_Party/FreeRTOS/Source/portable/GCC/ARM_CM4F/portmacro.h ****  *
  42:Middlewares/Third_Party/FreeRTOS/Source/portable/GCC/ARM_CM4F/portmacro.h ****  * These settings should not be altered.
  43:Middlewares/Third_Party/FreeRTOS/Source/portable/GCC/ARM_CM4F/portmacro.h ****  *-----------------------------------------------------------
  44:Middlewares/Third_Party/FreeRTOS/Source/portable/GCC/ARM_CM4F/portmacro.h ****  */
  45:Middlewares/Third_Party/FreeRTOS/Source/portable/GCC/ARM_CM4F/portmacro.h **** 
  46:Middlewares/Third_Party/FreeRTOS/Source/portable/GCC/ARM_CM4F/portmacro.h **** /* Type definitions. */
  47:Middlewares/Third_Party/FreeRTOS/Source/portable/GCC/ARM_CM4F/portmacro.h **** #define portCHAR		char
  48:Middlewares/Third_Party/FreeRTOS/Source/portable/GCC/ARM_CM4F/portmacro.h **** #define portFLOAT		float
  49:Middlewares/Third_Party/FreeRTOS/Source/portable/GCC/ARM_CM4F/portmacro.h **** #define portDOUBLE		double
  50:Middlewares/Third_Party/FreeRTOS/Source/portable/GCC/ARM_CM4F/portmacro.h **** #define portLONG		long
  51:Middlewares/Third_Party/FreeRTOS/Source/portable/GCC/ARM_CM4F/portmacro.h **** #define portSHORT		short
  52:Middlewares/Third_Party/FreeRTOS/Source/portable/GCC/ARM_CM4F/portmacro.h **** #define portSTACK_TYPE	uint32_t
  53:Middlewares/Third_Party/FreeRTOS/Source/portable/GCC/ARM_CM4F/portmacro.h **** #define portBASE_TYPE	long
  54:Middlewares/Third_Party/FreeRTOS/Source/portable/GCC/ARM_CM4F/portmacro.h **** 
  55:Middlewares/Third_Party/FreeRTOS/Source/portable/GCC/ARM_CM4F/portmacro.h **** typedef portSTACK_TYPE StackType_t;
  56:Middlewares/Third_Party/FreeRTOS/Source/portable/GCC/ARM_CM4F/portmacro.h **** typedef long BaseType_t;
  57:Middlewares/Third_Party/FreeRTOS/Source/portable/GCC/ARM_CM4F/portmacro.h **** typedef unsigned long UBaseType_t;
  58:Middlewares/Third_Party/FreeRTOS/Source/portable/GCC/ARM_CM4F/portmacro.h **** 
  59:Middlewares/Third_Party/FreeRTOS/Source/portable/GCC/ARM_CM4F/portmacro.h **** #if( configUSE_16_BIT_TICKS == 1 )
  60:Middlewares/Third_Party/FreeRTOS/Source/portable/GCC/ARM_CM4F/portmacro.h **** 	typedef uint16_t TickType_t;
  61:Middlewares/Third_Party/FreeRTOS/Source/portable/GCC/ARM_CM4F/portmacro.h **** 	#define portMAX_DELAY ( TickType_t ) 0xffff
  62:Middlewares/Third_Party/FreeRTOS/Source/portable/GCC/ARM_CM4F/portmacro.h **** #else
  63:Middlewares/Third_Party/FreeRTOS/Source/portable/GCC/ARM_CM4F/portmacro.h **** 	typedef uint32_t TickType_t;
  64:Middlewares/Third_Party/FreeRTOS/Source/portable/GCC/ARM_CM4F/portmacro.h **** 	#define portMAX_DELAY ( TickType_t ) 0xffffffffUL
  65:Middlewares/Third_Party/FreeRTOS/Source/portable/GCC/ARM_CM4F/portmacro.h **** 
  66:Middlewares/Third_Party/FreeRTOS/Source/portable/GCC/ARM_CM4F/portmacro.h **** 	/* 32-bit tick type on a 32-bit architecture, so reads of the tick count do
  67:Middlewares/Third_Party/FreeRTOS/Source/portable/GCC/ARM_CM4F/portmacro.h **** 	not need to be guarded with a critical section. */
  68:Middlewares/Third_Party/FreeRTOS/Source/portable/GCC/ARM_CM4F/portmacro.h **** 	#define portTICK_TYPE_IS_ATOMIC 1
  69:Middlewares/Third_Party/FreeRTOS/Source/portable/GCC/ARM_CM4F/portmacro.h **** #endif
  70:Middlewares/Third_Party/FreeRTOS/Source/portable/GCC/ARM_CM4F/portmacro.h **** /*-----------------------------------------------------------*/
  71:Middlewares/Third_Party/FreeRTOS/Source/portable/GCC/ARM_CM4F/portmacro.h **** 
  72:Middlewares/Third_Party/FreeRTOS/Source/portable/GCC/ARM_CM4F/portmacro.h **** /* Architecture specifics. */
  73:Middlewares/Third_Party/FreeRTOS/Source/portable/GCC/ARM_CM4F/portmacro.h **** #define portSTACK_GROWTH			( -1 )
  74:Middlewares/Third_Party/FreeRTOS/Source/portable/GCC/ARM_CM4F/portmacro.h **** #define portTICK_PERIOD_MS			( ( TickType_t ) 1000 / configTICK_RATE_HZ )
  75:Middlewares/Third_Party/FreeRTOS/Source/portable/GCC/ARM_CM4F/portmacro.h **** #define portBYTE_ALIGNMENT			8
  76:Middlewares/Third_Party/FreeRTOS/Source/portable/GCC/ARM_CM4F/portmacro.h **** /*-----------------------------------------------------------*/
  77:Middlewares/Third_Party/FreeRTOS/Source/portable/GCC/ARM_CM4F/portmacro.h **** 
ARM GAS  C:\Users\EI\AppData\Local\Temp\cc6xPaa5.s 			page 8


  78:Middlewares/Third_Party/FreeRTOS/Source/portable/GCC/ARM_CM4F/portmacro.h **** /* Scheduler utilities. */
  79:Middlewares/Third_Party/FreeRTOS/Source/portable/GCC/ARM_CM4F/portmacro.h **** #define portYIELD() 															\
  80:Middlewares/Third_Party/FreeRTOS/Source/portable/GCC/ARM_CM4F/portmacro.h **** {																				\
  81:Middlewares/Third_Party/FreeRTOS/Source/portable/GCC/ARM_CM4F/portmacro.h **** 	/* Set a PendSV to request a context switch. */								\
  82:Middlewares/Third_Party/FreeRTOS/Source/portable/GCC/ARM_CM4F/portmacro.h **** 	portNVIC_INT_CTRL_REG = portNVIC_PENDSVSET_BIT;								\
  83:Middlewares/Third_Party/FreeRTOS/Source/portable/GCC/ARM_CM4F/portmacro.h **** 																				\
  84:Middlewares/Third_Party/FreeRTOS/Source/portable/GCC/ARM_CM4F/portmacro.h **** 	/* Barriers are normally not required but do ensure the code is completely	\
  85:Middlewares/Third_Party/FreeRTOS/Source/portable/GCC/ARM_CM4F/portmacro.h **** 	within the specified behaviour for the architecture. */						\
  86:Middlewares/Third_Party/FreeRTOS/Source/portable/GCC/ARM_CM4F/portmacro.h **** 	__asm volatile( "dsb" ::: "memory" );										\
  87:Middlewares/Third_Party/FreeRTOS/Source/portable/GCC/ARM_CM4F/portmacro.h **** 	__asm volatile( "isb" );													\
  88:Middlewares/Third_Party/FreeRTOS/Source/portable/GCC/ARM_CM4F/portmacro.h **** }
  89:Middlewares/Third_Party/FreeRTOS/Source/portable/GCC/ARM_CM4F/portmacro.h **** 
  90:Middlewares/Third_Party/FreeRTOS/Source/portable/GCC/ARM_CM4F/portmacro.h **** #define portNVIC_INT_CTRL_REG		( * ( ( volatile uint32_t * ) 0xe000ed04 ) )
  91:Middlewares/Third_Party/FreeRTOS/Source/portable/GCC/ARM_CM4F/portmacro.h **** #define portNVIC_PENDSVSET_BIT		( 1UL << 28UL )
  92:Middlewares/Third_Party/FreeRTOS/Source/portable/GCC/ARM_CM4F/portmacro.h **** #define portEND_SWITCHING_ISR( xSwitchRequired ) if( xSwitchRequired != pdFALSE ) portYIELD()
  93:Middlewares/Third_Party/FreeRTOS/Source/portable/GCC/ARM_CM4F/portmacro.h **** #define portYIELD_FROM_ISR( x ) portEND_SWITCHING_ISR( x )
  94:Middlewares/Third_Party/FreeRTOS/Source/portable/GCC/ARM_CM4F/portmacro.h **** /*-----------------------------------------------------------*/
  95:Middlewares/Third_Party/FreeRTOS/Source/portable/GCC/ARM_CM4F/portmacro.h **** 
  96:Middlewares/Third_Party/FreeRTOS/Source/portable/GCC/ARM_CM4F/portmacro.h **** /* Critical section management. */
  97:Middlewares/Third_Party/FreeRTOS/Source/portable/GCC/ARM_CM4F/portmacro.h **** extern void vPortEnterCritical( void );
  98:Middlewares/Third_Party/FreeRTOS/Source/portable/GCC/ARM_CM4F/portmacro.h **** extern void vPortExitCritical( void );
  99:Middlewares/Third_Party/FreeRTOS/Source/portable/GCC/ARM_CM4F/portmacro.h **** #define portSET_INTERRUPT_MASK_FROM_ISR()		ulPortRaiseBASEPRI()
 100:Middlewares/Third_Party/FreeRTOS/Source/portable/GCC/ARM_CM4F/portmacro.h **** #define portCLEAR_INTERRUPT_MASK_FROM_ISR(x)	vPortSetBASEPRI(x)
 101:Middlewares/Third_Party/FreeRTOS/Source/portable/GCC/ARM_CM4F/portmacro.h **** #define portDISABLE_INTERRUPTS()				vPortRaiseBASEPRI()
 102:Middlewares/Third_Party/FreeRTOS/Source/portable/GCC/ARM_CM4F/portmacro.h **** #define portENABLE_INTERRUPTS()					vPortSetBASEPRI(0)
 103:Middlewares/Third_Party/FreeRTOS/Source/portable/GCC/ARM_CM4F/portmacro.h **** #define portENTER_CRITICAL()					vPortEnterCritical()
 104:Middlewares/Third_Party/FreeRTOS/Source/portable/GCC/ARM_CM4F/portmacro.h **** #define portEXIT_CRITICAL()						vPortExitCritical()
 105:Middlewares/Third_Party/FreeRTOS/Source/portable/GCC/ARM_CM4F/portmacro.h **** 
 106:Middlewares/Third_Party/FreeRTOS/Source/portable/GCC/ARM_CM4F/portmacro.h **** /*-----------------------------------------------------------*/
 107:Middlewares/Third_Party/FreeRTOS/Source/portable/GCC/ARM_CM4F/portmacro.h **** 
 108:Middlewares/Third_Party/FreeRTOS/Source/portable/GCC/ARM_CM4F/portmacro.h **** /* Task function macros as described on the FreeRTOS.org WEB site.  These are
 109:Middlewares/Third_Party/FreeRTOS/Source/portable/GCC/ARM_CM4F/portmacro.h **** not necessary for to use this port.  They are defined so the common demo files
 110:Middlewares/Third_Party/FreeRTOS/Source/portable/GCC/ARM_CM4F/portmacro.h **** (which build with all the ports) will build. */
 111:Middlewares/Third_Party/FreeRTOS/Source/portable/GCC/ARM_CM4F/portmacro.h **** #define portTASK_FUNCTION_PROTO( vFunction, pvParameters ) void vFunction( void *pvParameters )
 112:Middlewares/Third_Party/FreeRTOS/Source/portable/GCC/ARM_CM4F/portmacro.h **** #define portTASK_FUNCTION( vFunction, pvParameters ) void vFunction( void *pvParameters )
 113:Middlewares/Third_Party/FreeRTOS/Source/portable/GCC/ARM_CM4F/portmacro.h **** /*-----------------------------------------------------------*/
 114:Middlewares/Third_Party/FreeRTOS/Source/portable/GCC/ARM_CM4F/portmacro.h **** 
 115:Middlewares/Third_Party/FreeRTOS/Source/portable/GCC/ARM_CM4F/portmacro.h **** /* Tickless idle/low power functionality. */
 116:Middlewares/Third_Party/FreeRTOS/Source/portable/GCC/ARM_CM4F/portmacro.h **** #ifndef portSUPPRESS_TICKS_AND_SLEEP
 117:Middlewares/Third_Party/FreeRTOS/Source/portable/GCC/ARM_CM4F/portmacro.h **** 	extern void vPortSuppressTicksAndSleep( TickType_t xExpectedIdleTime );
 118:Middlewares/Third_Party/FreeRTOS/Source/portable/GCC/ARM_CM4F/portmacro.h **** 	#define portSUPPRESS_TICKS_AND_SLEEP( xExpectedIdleTime ) vPortSuppressTicksAndSleep( xExpectedIdl
 119:Middlewares/Third_Party/FreeRTOS/Source/portable/GCC/ARM_CM4F/portmacro.h **** #endif
 120:Middlewares/Third_Party/FreeRTOS/Source/portable/GCC/ARM_CM4F/portmacro.h **** /*-----------------------------------------------------------*/
 121:Middlewares/Third_Party/FreeRTOS/Source/portable/GCC/ARM_CM4F/portmacro.h **** 
 122:Middlewares/Third_Party/FreeRTOS/Source/portable/GCC/ARM_CM4F/portmacro.h **** /* Architecture specific optimisations. */
 123:Middlewares/Third_Party/FreeRTOS/Source/portable/GCC/ARM_CM4F/portmacro.h **** #ifndef configUSE_PORT_OPTIMISED_TASK_SELECTION
 124:Middlewares/Third_Party/FreeRTOS/Source/portable/GCC/ARM_CM4F/portmacro.h **** 	#define configUSE_PORT_OPTIMISED_TASK_SELECTION 1
 125:Middlewares/Third_Party/FreeRTOS/Source/portable/GCC/ARM_CM4F/portmacro.h **** #endif
 126:Middlewares/Third_Party/FreeRTOS/Source/portable/GCC/ARM_CM4F/portmacro.h **** 
 127:Middlewares/Third_Party/FreeRTOS/Source/portable/GCC/ARM_CM4F/portmacro.h **** #if configUSE_PORT_OPTIMISED_TASK_SELECTION == 1
 128:Middlewares/Third_Party/FreeRTOS/Source/portable/GCC/ARM_CM4F/portmacro.h **** 
 129:Middlewares/Third_Party/FreeRTOS/Source/portable/GCC/ARM_CM4F/portmacro.h **** 	/* Generic helper function. */
 130:Middlewares/Third_Party/FreeRTOS/Source/portable/GCC/ARM_CM4F/portmacro.h **** 	__attribute__( ( always_inline ) ) static inline uint8_t ucPortCountLeadingZeros( uint32_t ulBitma
 131:Middlewares/Third_Party/FreeRTOS/Source/portable/GCC/ARM_CM4F/portmacro.h **** 	{
 132:Middlewares/Third_Party/FreeRTOS/Source/portable/GCC/ARM_CM4F/portmacro.h **** 	uint8_t ucReturn;
 133:Middlewares/Third_Party/FreeRTOS/Source/portable/GCC/ARM_CM4F/portmacro.h **** 
 134:Middlewares/Third_Party/FreeRTOS/Source/portable/GCC/ARM_CM4F/portmacro.h **** 		__asm volatile ( "clz %0, %1" : "=r" ( ucReturn ) : "r" ( ulBitmap ) : "memory" );
ARM GAS  C:\Users\EI\AppData\Local\Temp\cc6xPaa5.s 			page 9


 135:Middlewares/Third_Party/FreeRTOS/Source/portable/GCC/ARM_CM4F/portmacro.h **** 		return ucReturn;
 136:Middlewares/Third_Party/FreeRTOS/Source/portable/GCC/ARM_CM4F/portmacro.h **** 	}
 137:Middlewares/Third_Party/FreeRTOS/Source/portable/GCC/ARM_CM4F/portmacro.h **** 
 138:Middlewares/Third_Party/FreeRTOS/Source/portable/GCC/ARM_CM4F/portmacro.h **** 	/* Check the configuration. */
 139:Middlewares/Third_Party/FreeRTOS/Source/portable/GCC/ARM_CM4F/portmacro.h **** 	#if( configMAX_PRIORITIES > 32 )
 140:Middlewares/Third_Party/FreeRTOS/Source/portable/GCC/ARM_CM4F/portmacro.h **** 		#error configUSE_PORT_OPTIMISED_TASK_SELECTION can only be set to 1 when configMAX_PRIORITIES is 
 141:Middlewares/Third_Party/FreeRTOS/Source/portable/GCC/ARM_CM4F/portmacro.h **** 	#endif
 142:Middlewares/Third_Party/FreeRTOS/Source/portable/GCC/ARM_CM4F/portmacro.h **** 
 143:Middlewares/Third_Party/FreeRTOS/Source/portable/GCC/ARM_CM4F/portmacro.h **** 	/* Store/clear the ready priorities in a bit map. */
 144:Middlewares/Third_Party/FreeRTOS/Source/portable/GCC/ARM_CM4F/portmacro.h **** 	#define portRECORD_READY_PRIORITY( uxPriority, uxReadyPriorities ) ( uxReadyPriorities ) |= ( 1UL 
 145:Middlewares/Third_Party/FreeRTOS/Source/portable/GCC/ARM_CM4F/portmacro.h **** 	#define portRESET_READY_PRIORITY( uxPriority, uxReadyPriorities ) ( uxReadyPriorities ) &= ~( 1UL 
 146:Middlewares/Third_Party/FreeRTOS/Source/portable/GCC/ARM_CM4F/portmacro.h **** 
 147:Middlewares/Third_Party/FreeRTOS/Source/portable/GCC/ARM_CM4F/portmacro.h **** 	/*-----------------------------------------------------------*/
 148:Middlewares/Third_Party/FreeRTOS/Source/portable/GCC/ARM_CM4F/portmacro.h **** 
 149:Middlewares/Third_Party/FreeRTOS/Source/portable/GCC/ARM_CM4F/portmacro.h **** 	#define portGET_HIGHEST_PRIORITY( uxTopPriority, uxReadyPriorities ) uxTopPriority = ( 31UL - ( ui
 150:Middlewares/Third_Party/FreeRTOS/Source/portable/GCC/ARM_CM4F/portmacro.h **** 
 151:Middlewares/Third_Party/FreeRTOS/Source/portable/GCC/ARM_CM4F/portmacro.h **** #endif /* configUSE_PORT_OPTIMISED_TASK_SELECTION */
 152:Middlewares/Third_Party/FreeRTOS/Source/portable/GCC/ARM_CM4F/portmacro.h **** 
 153:Middlewares/Third_Party/FreeRTOS/Source/portable/GCC/ARM_CM4F/portmacro.h **** /*-----------------------------------------------------------*/
 154:Middlewares/Third_Party/FreeRTOS/Source/portable/GCC/ARM_CM4F/portmacro.h **** 
 155:Middlewares/Third_Party/FreeRTOS/Source/portable/GCC/ARM_CM4F/portmacro.h **** #ifdef configASSERT
 156:Middlewares/Third_Party/FreeRTOS/Source/portable/GCC/ARM_CM4F/portmacro.h **** 	void vPortValidateInterruptPriority( void );
 157:Middlewares/Third_Party/FreeRTOS/Source/portable/GCC/ARM_CM4F/portmacro.h **** 	#define portASSERT_IF_INTERRUPT_PRIORITY_INVALID() 	vPortValidateInterruptPriority()
 158:Middlewares/Third_Party/FreeRTOS/Source/portable/GCC/ARM_CM4F/portmacro.h **** #endif
 159:Middlewares/Third_Party/FreeRTOS/Source/portable/GCC/ARM_CM4F/portmacro.h **** 
 160:Middlewares/Third_Party/FreeRTOS/Source/portable/GCC/ARM_CM4F/portmacro.h **** /* portNOP() is not required by this port. */
 161:Middlewares/Third_Party/FreeRTOS/Source/portable/GCC/ARM_CM4F/portmacro.h **** #define portNOP()
 162:Middlewares/Third_Party/FreeRTOS/Source/portable/GCC/ARM_CM4F/portmacro.h **** 
 163:Middlewares/Third_Party/FreeRTOS/Source/portable/GCC/ARM_CM4F/portmacro.h **** #define portINLINE	__inline
 164:Middlewares/Third_Party/FreeRTOS/Source/portable/GCC/ARM_CM4F/portmacro.h **** 
 165:Middlewares/Third_Party/FreeRTOS/Source/portable/GCC/ARM_CM4F/portmacro.h **** #ifndef portFORCE_INLINE
 166:Middlewares/Third_Party/FreeRTOS/Source/portable/GCC/ARM_CM4F/portmacro.h **** 	#define portFORCE_INLINE inline __attribute__(( always_inline))
 167:Middlewares/Third_Party/FreeRTOS/Source/portable/GCC/ARM_CM4F/portmacro.h **** #endif
 168:Middlewares/Third_Party/FreeRTOS/Source/portable/GCC/ARM_CM4F/portmacro.h **** 
 169:Middlewares/Third_Party/FreeRTOS/Source/portable/GCC/ARM_CM4F/portmacro.h **** portFORCE_INLINE static BaseType_t xPortIsInsideInterrupt( void )
 170:Middlewares/Third_Party/FreeRTOS/Source/portable/GCC/ARM_CM4F/portmacro.h **** {
 171:Middlewares/Third_Party/FreeRTOS/Source/portable/GCC/ARM_CM4F/portmacro.h **** uint32_t ulCurrentInterrupt;
 172:Middlewares/Third_Party/FreeRTOS/Source/portable/GCC/ARM_CM4F/portmacro.h **** BaseType_t xReturn;
 173:Middlewares/Third_Party/FreeRTOS/Source/portable/GCC/ARM_CM4F/portmacro.h **** 
 174:Middlewares/Third_Party/FreeRTOS/Source/portable/GCC/ARM_CM4F/portmacro.h **** 	/* Obtain the number of the currently executing interrupt. */
 175:Middlewares/Third_Party/FreeRTOS/Source/portable/GCC/ARM_CM4F/portmacro.h **** 	__asm volatile( "mrs %0, ipsr" : "=r"( ulCurrentInterrupt ) :: "memory" );
 176:Middlewares/Third_Party/FreeRTOS/Source/portable/GCC/ARM_CM4F/portmacro.h **** 
 177:Middlewares/Third_Party/FreeRTOS/Source/portable/GCC/ARM_CM4F/portmacro.h **** 	if( ulCurrentInterrupt == 0 )
 178:Middlewares/Third_Party/FreeRTOS/Source/portable/GCC/ARM_CM4F/portmacro.h **** 	{
 179:Middlewares/Third_Party/FreeRTOS/Source/portable/GCC/ARM_CM4F/portmacro.h **** 		xReturn = pdFALSE;
 180:Middlewares/Third_Party/FreeRTOS/Source/portable/GCC/ARM_CM4F/portmacro.h **** 	}
 181:Middlewares/Third_Party/FreeRTOS/Source/portable/GCC/ARM_CM4F/portmacro.h **** 	else
 182:Middlewares/Third_Party/FreeRTOS/Source/portable/GCC/ARM_CM4F/portmacro.h **** 	{
 183:Middlewares/Third_Party/FreeRTOS/Source/portable/GCC/ARM_CM4F/portmacro.h **** 		xReturn = pdTRUE;
 184:Middlewares/Third_Party/FreeRTOS/Source/portable/GCC/ARM_CM4F/portmacro.h **** 	}
 185:Middlewares/Third_Party/FreeRTOS/Source/portable/GCC/ARM_CM4F/portmacro.h **** 
 186:Middlewares/Third_Party/FreeRTOS/Source/portable/GCC/ARM_CM4F/portmacro.h **** 	return xReturn;
 187:Middlewares/Third_Party/FreeRTOS/Source/portable/GCC/ARM_CM4F/portmacro.h **** }
 188:Middlewares/Third_Party/FreeRTOS/Source/portable/GCC/ARM_CM4F/portmacro.h **** 
 189:Middlewares/Third_Party/FreeRTOS/Source/portable/GCC/ARM_CM4F/portmacro.h **** /*-----------------------------------------------------------*/
 190:Middlewares/Third_Party/FreeRTOS/Source/portable/GCC/ARM_CM4F/portmacro.h **** 
 191:Middlewares/Third_Party/FreeRTOS/Source/portable/GCC/ARM_CM4F/portmacro.h **** portFORCE_INLINE static void vPortRaiseBASEPRI( void )
ARM GAS  C:\Users\EI\AppData\Local\Temp\cc6xPaa5.s 			page 10


 192:Middlewares/Third_Party/FreeRTOS/Source/portable/GCC/ARM_CM4F/portmacro.h **** {
 193:Middlewares/Third_Party/FreeRTOS/Source/portable/GCC/ARM_CM4F/portmacro.h **** uint32_t ulNewBASEPRI;
 194:Middlewares/Third_Party/FreeRTOS/Source/portable/GCC/ARM_CM4F/portmacro.h **** 
 195:Middlewares/Third_Party/FreeRTOS/Source/portable/GCC/ARM_CM4F/portmacro.h **** 	__asm volatile
  63              		.loc 2 195 2
  64              		.syntax unified
  65              	@ 195 "Middlewares/Third_Party/FreeRTOS/Source/portable/GCC/ARM_CM4F/portmacro.h" 1
  66 0014 4FF05003 			mov r3, #80												
  67 0018 83F31188 		msr basepri, r3											
  68 001c BFF36F8F 		isb														
  69 0020 BFF34F8F 		dsb														
  70              	
  71              	@ 0 "" 2
  72              		.thumb
  73              		.syntax unified
  74 0024 BB60     		str	r3, [r7, #8]
 196:Middlewares/Third_Party/FreeRTOS/Source/portable/GCC/ARM_CM4F/portmacro.h **** 	(
 197:Middlewares/Third_Party/FreeRTOS/Source/portable/GCC/ARM_CM4F/portmacro.h **** 		"	mov %0, %1												\n"	\
 198:Middlewares/Third_Party/FreeRTOS/Source/portable/GCC/ARM_CM4F/portmacro.h **** 		"	msr basepri, %0											\n" \
 199:Middlewares/Third_Party/FreeRTOS/Source/portable/GCC/ARM_CM4F/portmacro.h **** 		"	isb														\n" \
 200:Middlewares/Third_Party/FreeRTOS/Source/portable/GCC/ARM_CM4F/portmacro.h **** 		"	dsb														\n" \
 201:Middlewares/Third_Party/FreeRTOS/Source/portable/GCC/ARM_CM4F/portmacro.h **** 		:"=r" (ulNewBASEPRI) : "i" ( configMAX_SYSCALL_INTERRUPT_PRIORITY ) : "memory"
 202:Middlewares/Third_Party/FreeRTOS/Source/portable/GCC/ARM_CM4F/portmacro.h **** 	);
 203:Middlewares/Third_Party/FreeRTOS/Source/portable/GCC/ARM_CM4F/portmacro.h **** }
  75              		.loc 2 203 1
  76 0026 00BF     		nop
  77              	.L3:
  78              	.LBE119:
  79              	.LBE118:
  80              		.loc 1 259 2 discriminator 1
  81 0028 FEE7     		b	.L3
  82              	.L2:
 260:Middlewares/Third_Party/FreeRTOS/Source/queue.c **** 
 261:Middlewares/Third_Party/FreeRTOS/Source/queue.c **** 	taskENTER_CRITICAL();
  83              		.loc 1 261 2
  84 002a FFF7FEFF 		bl	vPortEnterCritical
 262:Middlewares/Third_Party/FreeRTOS/Source/queue.c **** 	{
 263:Middlewares/Third_Party/FreeRTOS/Source/queue.c **** 		pxQueue->u.xQueue.pcTail = pxQueue->pcHead + ( pxQueue->uxLength * pxQueue->uxItemSize ); /*lint 
  85              		.loc 1 263 37
  86 002e FB68     		ldr	r3, [r7, #12]
  87 0030 1A68     		ldr	r2, [r3]
  88              		.loc 1 263 57
  89 0032 FB68     		ldr	r3, [r7, #12]
  90 0034 DB6B     		ldr	r3, [r3, #60]
  91              		.loc 1 263 77
  92 0036 F968     		ldr	r1, [r7, #12]
  93 0038 096C     		ldr	r1, [r1, #64]
  94              		.loc 1 263 68
  95 003a 01FB03F3 		mul	r3, r1, r3
  96              		.loc 1 263 46
  97 003e 1A44     		add	r2, r2, r3
  98              		.loc 1 263 28
  99 0040 FB68     		ldr	r3, [r7, #12]
 100 0042 9A60     		str	r2, [r3, #8]
 264:Middlewares/Third_Party/FreeRTOS/Source/queue.c **** 		pxQueue->uxMessagesWaiting = ( UBaseType_t ) 0U;
 101              		.loc 1 264 30
 102 0044 FB68     		ldr	r3, [r7, #12]
ARM GAS  C:\Users\EI\AppData\Local\Temp\cc6xPaa5.s 			page 11


 103 0046 0022     		movs	r2, #0
 104 0048 9A63     		str	r2, [r3, #56]
 265:Middlewares/Third_Party/FreeRTOS/Source/queue.c **** 		pxQueue->pcWriteTo = pxQueue->pcHead;
 105              		.loc 1 265 31
 106 004a FB68     		ldr	r3, [r7, #12]
 107 004c 1A68     		ldr	r2, [r3]
 108              		.loc 1 265 22
 109 004e FB68     		ldr	r3, [r7, #12]
 110 0050 5A60     		str	r2, [r3, #4]
 266:Middlewares/Third_Party/FreeRTOS/Source/queue.c **** 		pxQueue->u.xQueue.pcReadFrom = pxQueue->pcHead + ( ( pxQueue->uxLength - 1U ) * pxQueue->uxItemSi
 111              		.loc 1 266 41
 112 0052 FB68     		ldr	r3, [r7, #12]
 113 0054 1A68     		ldr	r2, [r3]
 114              		.loc 1 266 63
 115 0056 FB68     		ldr	r3, [r7, #12]
 116 0058 DB6B     		ldr	r3, [r3, #60]
 117              		.loc 1 266 74
 118 005a 013B     		subs	r3, r3, #1
 119              		.loc 1 266 90
 120 005c F968     		ldr	r1, [r7, #12]
 121 005e 096C     		ldr	r1, [r1, #64]
 122              		.loc 1 266 81
 123 0060 01FB03F3 		mul	r3, r1, r3
 124              		.loc 1 266 50
 125 0064 1A44     		add	r2, r2, r3
 126              		.loc 1 266 32
 127 0066 FB68     		ldr	r3, [r7, #12]
 128 0068 DA60     		str	r2, [r3, #12]
 267:Middlewares/Third_Party/FreeRTOS/Source/queue.c **** 		pxQueue->cRxLock = queueUNLOCKED;
 129              		.loc 1 267 20
 130 006a FB68     		ldr	r3, [r7, #12]
 131 006c FF22     		movs	r2, #255
 132 006e 83F84420 		strb	r2, [r3, #68]
 268:Middlewares/Third_Party/FreeRTOS/Source/queue.c **** 		pxQueue->cTxLock = queueUNLOCKED;
 133              		.loc 1 268 20
 134 0072 FB68     		ldr	r3, [r7, #12]
 135 0074 FF22     		movs	r2, #255
 136 0076 83F84520 		strb	r2, [r3, #69]
 269:Middlewares/Third_Party/FreeRTOS/Source/queue.c **** 
 270:Middlewares/Third_Party/FreeRTOS/Source/queue.c **** 		if( xNewQueue == pdFALSE )
 137              		.loc 1 270 5
 138 007a 3B68     		ldr	r3, [r7]
 139 007c 002B     		cmp	r3, #0
 140 007e 14D1     		bne	.L4
 271:Middlewares/Third_Party/FreeRTOS/Source/queue.c **** 		{
 272:Middlewares/Third_Party/FreeRTOS/Source/queue.c **** 			/* If there are tasks blocked waiting to read from the queue, then
 273:Middlewares/Third_Party/FreeRTOS/Source/queue.c **** 			the tasks will remain blocked as after this function exits the queue
 274:Middlewares/Third_Party/FreeRTOS/Source/queue.c **** 			will still be empty.  If there are tasks blocked waiting to write to
 275:Middlewares/Third_Party/FreeRTOS/Source/queue.c **** 			the queue, then one should be unblocked as after this function exits
 276:Middlewares/Third_Party/FreeRTOS/Source/queue.c **** 			it will be possible to write to it. */
 277:Middlewares/Third_Party/FreeRTOS/Source/queue.c **** 			if( listLIST_IS_EMPTY( &( pxQueue->xTasksWaitingToSend ) ) == pdFALSE )
 141              		.loc 1 277 8
 142 0080 FB68     		ldr	r3, [r7, #12]
 143 0082 1B69     		ldr	r3, [r3, #16]
 144              		.loc 1 277 6
 145 0084 002B     		cmp	r3, #0
 146 0086 1AD0     		beq	.L5
ARM GAS  C:\Users\EI\AppData\Local\Temp\cc6xPaa5.s 			page 12


 278:Middlewares/Third_Party/FreeRTOS/Source/queue.c **** 			{
 279:Middlewares/Third_Party/FreeRTOS/Source/queue.c **** 				if( xTaskRemoveFromEventList( &( pxQueue->xTasksWaitingToSend ) ) != pdFALSE )
 147              		.loc 1 279 35
 148 0088 FB68     		ldr	r3, [r7, #12]
 149 008a 1033     		adds	r3, r3, #16
 150              		.loc 1 279 9
 151 008c 1846     		mov	r0, r3
 152 008e FFF7FEFF 		bl	xTaskRemoveFromEventList
 153 0092 0346     		mov	r3, r0
 154              		.loc 1 279 7
 155 0094 002B     		cmp	r3, #0
 156 0096 12D0     		beq	.L5
 280:Middlewares/Third_Party/FreeRTOS/Source/queue.c **** 				{
 281:Middlewares/Third_Party/FreeRTOS/Source/queue.c **** 					queueYIELD_IF_USING_PREEMPTION();
 157              		.loc 1 281 6
 158 0098 0C4B     		ldr	r3, .L7
 159 009a 4FF08052 		mov	r2, #268435456
 160 009e 1A60     		str	r2, [r3]
 161              		.syntax unified
 162              	@ 281 "Middlewares/Third_Party/FreeRTOS/Source/queue.c" 1
 163 00a0 BFF34F8F 		dsb
 164              	@ 0 "" 2
 165              	@ 281 "Middlewares/Third_Party/FreeRTOS/Source/queue.c" 1
 166 00a4 BFF36F8F 		isb
 167              	@ 0 "" 2
 168              		.thumb
 169              		.syntax unified
 170 00a8 09E0     		b	.L5
 171              	.L4:
 282:Middlewares/Third_Party/FreeRTOS/Source/queue.c **** 				}
 283:Middlewares/Third_Party/FreeRTOS/Source/queue.c **** 				else
 284:Middlewares/Third_Party/FreeRTOS/Source/queue.c **** 				{
 285:Middlewares/Third_Party/FreeRTOS/Source/queue.c **** 					mtCOVERAGE_TEST_MARKER();
 286:Middlewares/Third_Party/FreeRTOS/Source/queue.c **** 				}
 287:Middlewares/Third_Party/FreeRTOS/Source/queue.c **** 			}
 288:Middlewares/Third_Party/FreeRTOS/Source/queue.c **** 			else
 289:Middlewares/Third_Party/FreeRTOS/Source/queue.c **** 			{
 290:Middlewares/Third_Party/FreeRTOS/Source/queue.c **** 				mtCOVERAGE_TEST_MARKER();
 291:Middlewares/Third_Party/FreeRTOS/Source/queue.c **** 			}
 292:Middlewares/Third_Party/FreeRTOS/Source/queue.c **** 		}
 293:Middlewares/Third_Party/FreeRTOS/Source/queue.c **** 		else
 294:Middlewares/Third_Party/FreeRTOS/Source/queue.c **** 		{
 295:Middlewares/Third_Party/FreeRTOS/Source/queue.c **** 			/* Ensure the event queues start in the correct state. */
 296:Middlewares/Third_Party/FreeRTOS/Source/queue.c **** 			vListInitialise( &( pxQueue->xTasksWaitingToSend ) );
 172              		.loc 1 296 4
 173 00aa FB68     		ldr	r3, [r7, #12]
 174 00ac 1033     		adds	r3, r3, #16
 175 00ae 1846     		mov	r0, r3
 176 00b0 FFF7FEFF 		bl	vListInitialise
 297:Middlewares/Third_Party/FreeRTOS/Source/queue.c **** 			vListInitialise( &( pxQueue->xTasksWaitingToReceive ) );
 177              		.loc 1 297 4
 178 00b4 FB68     		ldr	r3, [r7, #12]
 179 00b6 2433     		adds	r3, r3, #36
 180 00b8 1846     		mov	r0, r3
 181 00ba FFF7FEFF 		bl	vListInitialise
 182              	.L5:
 298:Middlewares/Third_Party/FreeRTOS/Source/queue.c **** 		}
ARM GAS  C:\Users\EI\AppData\Local\Temp\cc6xPaa5.s 			page 13


 299:Middlewares/Third_Party/FreeRTOS/Source/queue.c **** 	}
 300:Middlewares/Third_Party/FreeRTOS/Source/queue.c **** 	taskEXIT_CRITICAL();
 183              		.loc 1 300 2
 184 00be FFF7FEFF 		bl	vPortExitCritical
 301:Middlewares/Third_Party/FreeRTOS/Source/queue.c **** 
 302:Middlewares/Third_Party/FreeRTOS/Source/queue.c **** 	/* A value is returned for calling semantic consistency with previous
 303:Middlewares/Third_Party/FreeRTOS/Source/queue.c **** 	versions. */
 304:Middlewares/Third_Party/FreeRTOS/Source/queue.c **** 	return pdPASS;
 185              		.loc 1 304 9
 186 00c2 0123     		movs	r3, #1
 305:Middlewares/Third_Party/FreeRTOS/Source/queue.c **** }
 187              		.loc 1 305 1
 188 00c4 1846     		mov	r0, r3
 189 00c6 1037     		adds	r7, r7, #16
 190              	.LCFI3:
 191              		.cfi_def_cfa_offset 8
 192 00c8 BD46     		mov	sp, r7
 193              	.LCFI4:
 194              		.cfi_def_cfa_register 13
 195              		@ sp needed
 196 00ca 80BD     		pop	{r7, pc}
 197              	.L8:
 198              		.align	2
 199              	.L7:
 200 00cc 04ED00E0 		.word	-536810236
 201              		.cfi_endproc
 202              	.LFE4:
 204              		.section	.text.xQueueGenericCreateStatic,"ax",%progbits
 205              		.align	1
 206              		.global	xQueueGenericCreateStatic
 207              		.syntax unified
 208              		.thumb
 209              		.thumb_func
 210              		.fpu fpv4-sp-d16
 212              	xQueueGenericCreateStatic:
 213              	.LFB5:
 306:Middlewares/Third_Party/FreeRTOS/Source/queue.c **** /*-----------------------------------------------------------*/
 307:Middlewares/Third_Party/FreeRTOS/Source/queue.c **** 
 308:Middlewares/Third_Party/FreeRTOS/Source/queue.c **** #if( configSUPPORT_STATIC_ALLOCATION == 1 )
 309:Middlewares/Third_Party/FreeRTOS/Source/queue.c **** 
 310:Middlewares/Third_Party/FreeRTOS/Source/queue.c **** 	QueueHandle_t xQueueGenericCreateStatic( const UBaseType_t uxQueueLength, const UBaseType_t uxItem
 311:Middlewares/Third_Party/FreeRTOS/Source/queue.c **** 	{
 214              		.loc 1 311 2
 215              		.cfi_startproc
 216              		@ args = 4, pretend = 0, frame = 48
 217              		@ frame_needed = 1, uses_anonymous_args = 0
 218 0000 80B5     		push	{r7, lr}
 219              	.LCFI5:
 220              		.cfi_def_cfa_offset 8
 221              		.cfi_offset 7, -8
 222              		.cfi_offset 14, -4
 223 0002 8EB0     		sub	sp, sp, #56
 224              	.LCFI6:
 225              		.cfi_def_cfa_offset 64
 226 0004 02AF     		add	r7, sp, #8
 227              	.LCFI7:
 228              		.cfi_def_cfa 7, 56
ARM GAS  C:\Users\EI\AppData\Local\Temp\cc6xPaa5.s 			page 14


 229 0006 F860     		str	r0, [r7, #12]
 230 0008 B960     		str	r1, [r7, #8]
 231 000a 7A60     		str	r2, [r7, #4]
 232 000c 3B60     		str	r3, [r7]
 312:Middlewares/Third_Party/FreeRTOS/Source/queue.c **** 	Queue_t *pxNewQueue;
 313:Middlewares/Third_Party/FreeRTOS/Source/queue.c **** 
 314:Middlewares/Third_Party/FreeRTOS/Source/queue.c **** 		configASSERT( uxQueueLength > ( UBaseType_t ) 0 );
 233              		.loc 1 314 3
 234 000e FB68     		ldr	r3, [r7, #12]
 235 0010 002B     		cmp	r3, #0
 236 0012 0AD1     		bne	.L10
 237              	.LBB120:
 238              	.LBB121:
 195:Middlewares/Third_Party/FreeRTOS/Source/portable/GCC/ARM_CM4F/portmacro.h **** 	(
 239              		.loc 2 195 2
 240              		.syntax unified
 241              	@ 195 "Middlewares/Third_Party/FreeRTOS/Source/portable/GCC/ARM_CM4F/portmacro.h" 1
 242 0014 4FF05003 			mov r3, #80												
 243 0018 83F31188 		msr basepri, r3											
 244 001c BFF36F8F 		isb														
 245 0020 BFF34F8F 		dsb														
 246              	
 247              	@ 0 "" 2
 248              		.thumb
 249              		.syntax unified
 250 0024 BB62     		str	r3, [r7, #40]
 251              		.loc 2 203 1
 252 0026 00BF     		nop
 253              	.L11:
 254              	.LBE121:
 255              	.LBE120:
 256              		.loc 1 314 3 discriminator 1
 257 0028 FEE7     		b	.L11
 258              	.L10:
 315:Middlewares/Third_Party/FreeRTOS/Source/queue.c **** 
 316:Middlewares/Third_Party/FreeRTOS/Source/queue.c **** 		/* The StaticQueue_t structure and the queue storage area must be
 317:Middlewares/Third_Party/FreeRTOS/Source/queue.c **** 		supplied. */
 318:Middlewares/Third_Party/FreeRTOS/Source/queue.c **** 		configASSERT( pxStaticQueue != NULL );
 259              		.loc 1 318 3
 260 002a 3B68     		ldr	r3, [r7]
 261 002c 002B     		cmp	r3, #0
 262 002e 0AD1     		bne	.L12
 263              	.LBB122:
 264              	.LBB123:
 195:Middlewares/Third_Party/FreeRTOS/Source/portable/GCC/ARM_CM4F/portmacro.h **** 	(
 265              		.loc 2 195 2
 266              		.syntax unified
 267              	@ 195 "Middlewares/Third_Party/FreeRTOS/Source/portable/GCC/ARM_CM4F/portmacro.h" 1
 268 0030 4FF05003 			mov r3, #80												
 269 0034 83F31188 		msr basepri, r3											
 270 0038 BFF36F8F 		isb														
 271 003c BFF34F8F 		dsb														
 272              	
 273              	@ 0 "" 2
 274              		.thumb
 275              		.syntax unified
 276 0040 7B62     		str	r3, [r7, #36]
ARM GAS  C:\Users\EI\AppData\Local\Temp\cc6xPaa5.s 			page 15


 277              		.loc 2 203 1
 278 0042 00BF     		nop
 279              	.L13:
 280              	.LBE123:
 281              	.LBE122:
 282              		.loc 1 318 3 discriminator 2
 283 0044 FEE7     		b	.L13
 284              	.L12:
 319:Middlewares/Third_Party/FreeRTOS/Source/queue.c **** 
 320:Middlewares/Third_Party/FreeRTOS/Source/queue.c **** 		/* A queue storage area should be provided if the item size is not 0, and
 321:Middlewares/Third_Party/FreeRTOS/Source/queue.c **** 		should not be provided if the item size is 0. */
 322:Middlewares/Third_Party/FreeRTOS/Source/queue.c **** 		configASSERT( !( ( pucQueueStorage != NULL ) && ( uxItemSize == 0 ) ) );
 285              		.loc 1 322 3
 286 0046 7B68     		ldr	r3, [r7, #4]
 287 0048 002B     		cmp	r3, #0
 288 004a 02D0     		beq	.L14
 289              		.loc 1 322 3 is_stmt 0 discriminator 2
 290 004c BB68     		ldr	r3, [r7, #8]
 291 004e 002B     		cmp	r3, #0
 292 0050 01D0     		beq	.L15
 293              	.L14:
 294              		.loc 1 322 3 discriminator 3
 295 0052 0123     		movs	r3, #1
 296 0054 00E0     		b	.L16
 297              	.L15:
 298              		.loc 1 322 3 discriminator 4
 299 0056 0023     		movs	r3, #0
 300              	.L16:
 301              		.loc 1 322 3 discriminator 6
 302 0058 002B     		cmp	r3, #0
 303 005a 0AD1     		bne	.L17
 304              	.LBB124:
 305              	.LBB125:
 195:Middlewares/Third_Party/FreeRTOS/Source/portable/GCC/ARM_CM4F/portmacro.h **** 	(
 306              		.loc 2 195 2 is_stmt 1
 307              		.syntax unified
 308              	@ 195 "Middlewares/Third_Party/FreeRTOS/Source/portable/GCC/ARM_CM4F/portmacro.h" 1
 309 005c 4FF05003 			mov r3, #80												
 310 0060 83F31188 		msr basepri, r3											
 311 0064 BFF36F8F 		isb														
 312 0068 BFF34F8F 		dsb														
 313              	
 314              	@ 0 "" 2
 315              		.thumb
 316              		.syntax unified
 317 006c 3B62     		str	r3, [r7, #32]
 318              		.loc 2 203 1
 319 006e 00BF     		nop
 320              	.L18:
 321              	.LBE125:
 322              	.LBE124:
 323              		.loc 1 322 3 discriminator 3
 324 0070 FEE7     		b	.L18
 325              	.L17:
 323:Middlewares/Third_Party/FreeRTOS/Source/queue.c **** 		configASSERT( !( ( pucQueueStorage == NULL ) && ( uxItemSize != 0 ) ) );
 326              		.loc 1 323 3
 327 0072 7B68     		ldr	r3, [r7, #4]
ARM GAS  C:\Users\EI\AppData\Local\Temp\cc6xPaa5.s 			page 16


 328 0074 002B     		cmp	r3, #0
 329 0076 02D1     		bne	.L19
 330              		.loc 1 323 3 is_stmt 0 discriminator 2
 331 0078 BB68     		ldr	r3, [r7, #8]
 332 007a 002B     		cmp	r3, #0
 333 007c 01D1     		bne	.L20
 334              	.L19:
 335              		.loc 1 323 3 discriminator 3
 336 007e 0123     		movs	r3, #1
 337 0080 00E0     		b	.L21
 338              	.L20:
 339              		.loc 1 323 3 discriminator 4
 340 0082 0023     		movs	r3, #0
 341              	.L21:
 342              		.loc 1 323 3 discriminator 6
 343 0084 002B     		cmp	r3, #0
 344 0086 0AD1     		bne	.L22
 345              	.LBB126:
 346              	.LBB127:
 195:Middlewares/Third_Party/FreeRTOS/Source/portable/GCC/ARM_CM4F/portmacro.h **** 	(
 347              		.loc 2 195 2 is_stmt 1
 348              		.syntax unified
 349              	@ 195 "Middlewares/Third_Party/FreeRTOS/Source/portable/GCC/ARM_CM4F/portmacro.h" 1
 350 0088 4FF05003 			mov r3, #80												
 351 008c 83F31188 		msr basepri, r3											
 352 0090 BFF36F8F 		isb														
 353 0094 BFF34F8F 		dsb														
 354              	
 355              	@ 0 "" 2
 356              		.thumb
 357              		.syntax unified
 358 0098 FB61     		str	r3, [r7, #28]
 359              		.loc 2 203 1
 360 009a 00BF     		nop
 361              	.L23:
 362              	.LBE127:
 363              	.LBE126:
 364              		.loc 1 323 3 discriminator 4
 365 009c FEE7     		b	.L23
 366              	.L22:
 367              	.LBB128:
 324:Middlewares/Third_Party/FreeRTOS/Source/queue.c **** 
 325:Middlewares/Third_Party/FreeRTOS/Source/queue.c **** 		#if( configASSERT_DEFINED == 1 )
 326:Middlewares/Third_Party/FreeRTOS/Source/queue.c **** 		{
 327:Middlewares/Third_Party/FreeRTOS/Source/queue.c **** 			/* Sanity check that the size of the structure used to declare a
 328:Middlewares/Third_Party/FreeRTOS/Source/queue.c **** 			variable of type StaticQueue_t or StaticSemaphore_t equals the size of
 329:Middlewares/Third_Party/FreeRTOS/Source/queue.c **** 			the real queue and semaphore structures. */
 330:Middlewares/Third_Party/FreeRTOS/Source/queue.c **** 			volatile size_t xSize = sizeof( StaticQueue_t );
 368              		.loc 1 330 20
 369 009e 5023     		movs	r3, #80
 370 00a0 7B61     		str	r3, [r7, #20]
 331:Middlewares/Third_Party/FreeRTOS/Source/queue.c **** 			configASSERT( xSize == sizeof( Queue_t ) );
 371              		.loc 1 331 4
 372 00a2 7B69     		ldr	r3, [r7, #20]
 373 00a4 502B     		cmp	r3, #80
 374 00a6 0AD0     		beq	.L24
 375              	.LBB129:
ARM GAS  C:\Users\EI\AppData\Local\Temp\cc6xPaa5.s 			page 17


 376              	.LBB130:
 195:Middlewares/Third_Party/FreeRTOS/Source/portable/GCC/ARM_CM4F/portmacro.h **** 	(
 377              		.loc 2 195 2
 378              		.syntax unified
 379              	@ 195 "Middlewares/Third_Party/FreeRTOS/Source/portable/GCC/ARM_CM4F/portmacro.h" 1
 380 00a8 4FF05003 			mov r3, #80												
 381 00ac 83F31188 		msr basepri, r3											
 382 00b0 BFF36F8F 		isb														
 383 00b4 BFF34F8F 		dsb														
 384              	
 385              	@ 0 "" 2
 386              		.thumb
 387              		.syntax unified
 388 00b8 BB61     		str	r3, [r7, #24]
 389              		.loc 2 203 1
 390 00ba 00BF     		nop
 391              	.L25:
 392              	.LBE130:
 393              	.LBE129:
 394              		.loc 1 331 4 discriminator 5
 395 00bc FEE7     		b	.L25
 396              	.L24:
 332:Middlewares/Third_Party/FreeRTOS/Source/queue.c **** 			( void ) xSize; /* Keeps lint quiet when configASSERT() is not defined. */
 397              		.loc 1 332 4
 398 00be 7B69     		ldr	r3, [r7, #20]
 399              	.LBE128:
 333:Middlewares/Third_Party/FreeRTOS/Source/queue.c **** 		}
 334:Middlewares/Third_Party/FreeRTOS/Source/queue.c **** 		#endif /* configASSERT_DEFINED */
 335:Middlewares/Third_Party/FreeRTOS/Source/queue.c **** 
 336:Middlewares/Third_Party/FreeRTOS/Source/queue.c **** 		/* The address of a statically allocated queue was passed in, use it.
 337:Middlewares/Third_Party/FreeRTOS/Source/queue.c **** 		The address of a statically allocated storage area was also passed in
 338:Middlewares/Third_Party/FreeRTOS/Source/queue.c **** 		but is already set. */
 339:Middlewares/Third_Party/FreeRTOS/Source/queue.c **** 		pxNewQueue = ( Queue_t * ) pxStaticQueue; /*lint !e740 !e9087 Unusual cast is ok as the structure
 400              		.loc 1 339 14
 401 00c0 3B68     		ldr	r3, [r7]
 402 00c2 FB62     		str	r3, [r7, #44]
 340:Middlewares/Third_Party/FreeRTOS/Source/queue.c **** 
 341:Middlewares/Third_Party/FreeRTOS/Source/queue.c **** 		if( pxNewQueue != NULL )
 403              		.loc 1 341 5
 404 00c4 FB6A     		ldr	r3, [r7, #44]
 405 00c6 002B     		cmp	r3, #0
 406 00c8 0DD0     		beq	.L26
 342:Middlewares/Third_Party/FreeRTOS/Source/queue.c **** 		{
 343:Middlewares/Third_Party/FreeRTOS/Source/queue.c **** 			#if( configSUPPORT_DYNAMIC_ALLOCATION == 1 )
 344:Middlewares/Third_Party/FreeRTOS/Source/queue.c **** 			{
 345:Middlewares/Third_Party/FreeRTOS/Source/queue.c **** 				/* Queues can be allocated wither statically or dynamically, so
 346:Middlewares/Third_Party/FreeRTOS/Source/queue.c **** 				note this queue was allocated statically in case the queue is
 347:Middlewares/Third_Party/FreeRTOS/Source/queue.c **** 				later deleted. */
 348:Middlewares/Third_Party/FreeRTOS/Source/queue.c **** 				pxNewQueue->ucStaticallyAllocated = pdTRUE;
 407              		.loc 1 348 39
 408 00ca FB6A     		ldr	r3, [r7, #44]
 409 00cc 0122     		movs	r2, #1
 410 00ce 83F84620 		strb	r2, [r3, #70]
 349:Middlewares/Third_Party/FreeRTOS/Source/queue.c **** 			}
 350:Middlewares/Third_Party/FreeRTOS/Source/queue.c **** 			#endif /* configSUPPORT_DYNAMIC_ALLOCATION */
 351:Middlewares/Third_Party/FreeRTOS/Source/queue.c **** 
 352:Middlewares/Third_Party/FreeRTOS/Source/queue.c **** 			prvInitialiseNewQueue( uxQueueLength, uxItemSize, pucQueueStorage, ucQueueType, pxNewQueue );
ARM GAS  C:\Users\EI\AppData\Local\Temp\cc6xPaa5.s 			page 18


 411              		.loc 1 352 4
 412 00d2 97F83820 		ldrb	r2, [r7, #56]	@ zero_extendqisi2
 413 00d6 FB6A     		ldr	r3, [r7, #44]
 414 00d8 0093     		str	r3, [sp]
 415 00da 1346     		mov	r3, r2
 416 00dc 7A68     		ldr	r2, [r7, #4]
 417 00de B968     		ldr	r1, [r7, #8]
 418 00e0 F868     		ldr	r0, [r7, #12]
 419 00e2 FFF7FEFF 		bl	prvInitialiseNewQueue
 420              	.L26:
 353:Middlewares/Third_Party/FreeRTOS/Source/queue.c **** 		}
 354:Middlewares/Third_Party/FreeRTOS/Source/queue.c **** 		else
 355:Middlewares/Third_Party/FreeRTOS/Source/queue.c **** 		{
 356:Middlewares/Third_Party/FreeRTOS/Source/queue.c **** 			traceQUEUE_CREATE_FAILED( ucQueueType );
 357:Middlewares/Third_Party/FreeRTOS/Source/queue.c **** 			mtCOVERAGE_TEST_MARKER();
 358:Middlewares/Third_Party/FreeRTOS/Source/queue.c **** 		}
 359:Middlewares/Third_Party/FreeRTOS/Source/queue.c **** 
 360:Middlewares/Third_Party/FreeRTOS/Source/queue.c **** 		return pxNewQueue;
 421              		.loc 1 360 10
 422 00e6 FB6A     		ldr	r3, [r7, #44]
 361:Middlewares/Third_Party/FreeRTOS/Source/queue.c **** 	}
 423              		.loc 1 361 2
 424 00e8 1846     		mov	r0, r3
 425 00ea 3037     		adds	r7, r7, #48
 426              	.LCFI8:
 427              		.cfi_def_cfa_offset 8
 428 00ec BD46     		mov	sp, r7
 429              	.LCFI9:
 430              		.cfi_def_cfa_register 13
 431              		@ sp needed
 432 00ee 80BD     		pop	{r7, pc}
 433              		.cfi_endproc
 434              	.LFE5:
 436              		.section	.text.xQueueGenericCreate,"ax",%progbits
 437              		.align	1
 438              		.global	xQueueGenericCreate
 439              		.syntax unified
 440              		.thumb
 441              		.thumb_func
 442              		.fpu fpv4-sp-d16
 444              	xQueueGenericCreate:
 445              	.LFB6:
 362:Middlewares/Third_Party/FreeRTOS/Source/queue.c **** 
 363:Middlewares/Third_Party/FreeRTOS/Source/queue.c **** #endif /* configSUPPORT_STATIC_ALLOCATION */
 364:Middlewares/Third_Party/FreeRTOS/Source/queue.c **** /*-----------------------------------------------------------*/
 365:Middlewares/Third_Party/FreeRTOS/Source/queue.c **** 
 366:Middlewares/Third_Party/FreeRTOS/Source/queue.c **** #if( configSUPPORT_DYNAMIC_ALLOCATION == 1 )
 367:Middlewares/Third_Party/FreeRTOS/Source/queue.c **** 
 368:Middlewares/Third_Party/FreeRTOS/Source/queue.c **** 	QueueHandle_t xQueueGenericCreate( const UBaseType_t uxQueueLength, const UBaseType_t uxItemSize, 
 369:Middlewares/Third_Party/FreeRTOS/Source/queue.c **** 	{
 446              		.loc 1 369 2
 447              		.cfi_startproc
 448              		@ args = 0, pretend = 0, frame = 32
 449              		@ frame_needed = 1, uses_anonymous_args = 0
 450 0000 80B5     		push	{r7, lr}
 451              	.LCFI10:
 452              		.cfi_def_cfa_offset 8
ARM GAS  C:\Users\EI\AppData\Local\Temp\cc6xPaa5.s 			page 19


 453              		.cfi_offset 7, -8
 454              		.cfi_offset 14, -4
 455 0002 8AB0     		sub	sp, sp, #40
 456              	.LCFI11:
 457              		.cfi_def_cfa_offset 48
 458 0004 02AF     		add	r7, sp, #8
 459              	.LCFI12:
 460              		.cfi_def_cfa 7, 40
 461 0006 F860     		str	r0, [r7, #12]
 462 0008 B960     		str	r1, [r7, #8]
 463 000a 1346     		mov	r3, r2
 464 000c FB71     		strb	r3, [r7, #7]
 370:Middlewares/Third_Party/FreeRTOS/Source/queue.c **** 	Queue_t *pxNewQueue;
 371:Middlewares/Third_Party/FreeRTOS/Source/queue.c **** 	size_t xQueueSizeInBytes;
 372:Middlewares/Third_Party/FreeRTOS/Source/queue.c **** 	uint8_t *pucQueueStorage;
 373:Middlewares/Third_Party/FreeRTOS/Source/queue.c **** 
 374:Middlewares/Third_Party/FreeRTOS/Source/queue.c **** 		configASSERT( uxQueueLength > ( UBaseType_t ) 0 );
 465              		.loc 1 374 3
 466 000e FB68     		ldr	r3, [r7, #12]
 467 0010 002B     		cmp	r3, #0
 468 0012 0AD1     		bne	.L29
 469              	.LBB131:
 470              	.LBB132:
 195:Middlewares/Third_Party/FreeRTOS/Source/portable/GCC/ARM_CM4F/portmacro.h **** 	(
 471              		.loc 2 195 2
 472              		.syntax unified
 473              	@ 195 "Middlewares/Third_Party/FreeRTOS/Source/portable/GCC/ARM_CM4F/portmacro.h" 1
 474 0014 4FF05003 			mov r3, #80												
 475 0018 83F31188 		msr basepri, r3											
 476 001c BFF36F8F 		isb														
 477 0020 BFF34F8F 		dsb														
 478              	
 479              	@ 0 "" 2
 480              		.thumb
 481              		.syntax unified
 482 0024 3B61     		str	r3, [r7, #16]
 483              		.loc 2 203 1
 484 0026 00BF     		nop
 485              	.L30:
 486              	.LBE132:
 487              	.LBE131:
 488              		.loc 1 374 3 discriminator 1
 489 0028 FEE7     		b	.L30
 490              	.L29:
 375:Middlewares/Third_Party/FreeRTOS/Source/queue.c **** 
 376:Middlewares/Third_Party/FreeRTOS/Source/queue.c **** 		/* Allocate enough space to hold the maximum number of items that
 377:Middlewares/Third_Party/FreeRTOS/Source/queue.c **** 		can be in the queue at any time.  It is valid for uxItemSize to be
 378:Middlewares/Third_Party/FreeRTOS/Source/queue.c **** 		zero in the case the queue is used as a semaphore. */
 379:Middlewares/Third_Party/FreeRTOS/Source/queue.c **** 		xQueueSizeInBytes = ( size_t ) ( uxQueueLength * uxItemSize ); /*lint !e961 MISRA exception as th
 491              		.loc 1 379 21
 492 002a FB68     		ldr	r3, [r7, #12]
 493 002c BA68     		ldr	r2, [r7, #8]
 494 002e 02FB03F3 		mul	r3, r2, r3
 495 0032 FB61     		str	r3, [r7, #28]
 380:Middlewares/Third_Party/FreeRTOS/Source/queue.c **** 
 381:Middlewares/Third_Party/FreeRTOS/Source/queue.c **** 		/* Allocate the queue and storage area.  Justification for MISRA
 382:Middlewares/Third_Party/FreeRTOS/Source/queue.c **** 		deviation as follows:  pvPortMalloc() always ensures returned memory
ARM GAS  C:\Users\EI\AppData\Local\Temp\cc6xPaa5.s 			page 20


 383:Middlewares/Third_Party/FreeRTOS/Source/queue.c **** 		blocks are aligned per the requirements of the MCU stack.  In this case
 384:Middlewares/Third_Party/FreeRTOS/Source/queue.c **** 		pvPortMalloc() must return a pointer that is guaranteed to meet the
 385:Middlewares/Third_Party/FreeRTOS/Source/queue.c **** 		alignment requirements of the Queue_t structure - which in this case
 386:Middlewares/Third_Party/FreeRTOS/Source/queue.c **** 		is an int8_t *.  Therefore, whenever the stack alignment requirements
 387:Middlewares/Third_Party/FreeRTOS/Source/queue.c **** 		are greater than or equal to the pointer to char requirements the cast
 388:Middlewares/Third_Party/FreeRTOS/Source/queue.c **** 		is safe.  In other cases alignment requirements are not strict (one or
 389:Middlewares/Third_Party/FreeRTOS/Source/queue.c **** 		two bytes). */
 390:Middlewares/Third_Party/FreeRTOS/Source/queue.c **** 		pxNewQueue = ( Queue_t * ) pvPortMalloc( sizeof( Queue_t ) + xQueueSizeInBytes ); /*lint !e9087 !
 496              		.loc 1 390 30
 497 0034 FB69     		ldr	r3, [r7, #28]
 498 0036 5033     		adds	r3, r3, #80
 499 0038 1846     		mov	r0, r3
 500 003a FFF7FEFF 		bl	pvPortMalloc
 501 003e B861     		str	r0, [r7, #24]
 391:Middlewares/Third_Party/FreeRTOS/Source/queue.c **** 
 392:Middlewares/Third_Party/FreeRTOS/Source/queue.c **** 		if( pxNewQueue != NULL )
 502              		.loc 1 392 5
 503 0040 BB69     		ldr	r3, [r7, #24]
 504 0042 002B     		cmp	r3, #0
 505 0044 11D0     		beq	.L31
 393:Middlewares/Third_Party/FreeRTOS/Source/queue.c **** 		{
 394:Middlewares/Third_Party/FreeRTOS/Source/queue.c **** 			/* Jump past the queue structure to find the location of the queue
 395:Middlewares/Third_Party/FreeRTOS/Source/queue.c **** 			storage area. */
 396:Middlewares/Third_Party/FreeRTOS/Source/queue.c **** 			pucQueueStorage = ( uint8_t * ) pxNewQueue;
 506              		.loc 1 396 20
 507 0046 BB69     		ldr	r3, [r7, #24]
 508 0048 7B61     		str	r3, [r7, #20]
 397:Middlewares/Third_Party/FreeRTOS/Source/queue.c **** 			pucQueueStorage += sizeof( Queue_t ); /*lint !e9016 Pointer arithmetic allowed on char types, es
 509              		.loc 1 397 20
 510 004a 7B69     		ldr	r3, [r7, #20]
 511 004c 5033     		adds	r3, r3, #80
 512 004e 7B61     		str	r3, [r7, #20]
 398:Middlewares/Third_Party/FreeRTOS/Source/queue.c **** 
 399:Middlewares/Third_Party/FreeRTOS/Source/queue.c **** 			#if( configSUPPORT_STATIC_ALLOCATION == 1 )
 400:Middlewares/Third_Party/FreeRTOS/Source/queue.c **** 			{
 401:Middlewares/Third_Party/FreeRTOS/Source/queue.c **** 				/* Queues can be created either statically or dynamically, so
 402:Middlewares/Third_Party/FreeRTOS/Source/queue.c **** 				note this task was created dynamically in case it is later
 403:Middlewares/Third_Party/FreeRTOS/Source/queue.c **** 				deleted. */
 404:Middlewares/Third_Party/FreeRTOS/Source/queue.c **** 				pxNewQueue->ucStaticallyAllocated = pdFALSE;
 513              		.loc 1 404 39
 514 0050 BB69     		ldr	r3, [r7, #24]
 515 0052 0022     		movs	r2, #0
 516 0054 83F84620 		strb	r2, [r3, #70]
 405:Middlewares/Third_Party/FreeRTOS/Source/queue.c **** 			}
 406:Middlewares/Third_Party/FreeRTOS/Source/queue.c **** 			#endif /* configSUPPORT_STATIC_ALLOCATION */
 407:Middlewares/Third_Party/FreeRTOS/Source/queue.c **** 
 408:Middlewares/Third_Party/FreeRTOS/Source/queue.c **** 			prvInitialiseNewQueue( uxQueueLength, uxItemSize, pucQueueStorage, ucQueueType, pxNewQueue );
 517              		.loc 1 408 4
 518 0058 FA79     		ldrb	r2, [r7, #7]	@ zero_extendqisi2
 519 005a BB69     		ldr	r3, [r7, #24]
 520 005c 0093     		str	r3, [sp]
 521 005e 1346     		mov	r3, r2
 522 0060 7A69     		ldr	r2, [r7, #20]
 523 0062 B968     		ldr	r1, [r7, #8]
 524 0064 F868     		ldr	r0, [r7, #12]
 525 0066 FFF7FEFF 		bl	prvInitialiseNewQueue
 526              	.L31:
ARM GAS  C:\Users\EI\AppData\Local\Temp\cc6xPaa5.s 			page 21


 409:Middlewares/Third_Party/FreeRTOS/Source/queue.c **** 		}
 410:Middlewares/Third_Party/FreeRTOS/Source/queue.c **** 		else
 411:Middlewares/Third_Party/FreeRTOS/Source/queue.c **** 		{
 412:Middlewares/Third_Party/FreeRTOS/Source/queue.c **** 			traceQUEUE_CREATE_FAILED( ucQueueType );
 413:Middlewares/Third_Party/FreeRTOS/Source/queue.c **** 			mtCOVERAGE_TEST_MARKER();
 414:Middlewares/Third_Party/FreeRTOS/Source/queue.c **** 		}
 415:Middlewares/Third_Party/FreeRTOS/Source/queue.c **** 
 416:Middlewares/Third_Party/FreeRTOS/Source/queue.c **** 		return pxNewQueue;
 527              		.loc 1 416 10
 528 006a BB69     		ldr	r3, [r7, #24]
 417:Middlewares/Third_Party/FreeRTOS/Source/queue.c **** 	}
 529              		.loc 1 417 2
 530 006c 1846     		mov	r0, r3
 531 006e 2037     		adds	r7, r7, #32
 532              	.LCFI13:
 533              		.cfi_def_cfa_offset 8
 534 0070 BD46     		mov	sp, r7
 535              	.LCFI14:
 536              		.cfi_def_cfa_register 13
 537              		@ sp needed
 538 0072 80BD     		pop	{r7, pc}
 539              		.cfi_endproc
 540              	.LFE6:
 542              		.section	.text.prvInitialiseNewQueue,"ax",%progbits
 543              		.align	1
 544              		.syntax unified
 545              		.thumb
 546              		.thumb_func
 547              		.fpu fpv4-sp-d16
 549              	prvInitialiseNewQueue:
 550              	.LFB7:
 418:Middlewares/Third_Party/FreeRTOS/Source/queue.c **** 
 419:Middlewares/Third_Party/FreeRTOS/Source/queue.c **** #endif /* configSUPPORT_STATIC_ALLOCATION */
 420:Middlewares/Third_Party/FreeRTOS/Source/queue.c **** /*-----------------------------------------------------------*/
 421:Middlewares/Third_Party/FreeRTOS/Source/queue.c **** 
 422:Middlewares/Third_Party/FreeRTOS/Source/queue.c **** static void prvInitialiseNewQueue( const UBaseType_t uxQueueLength, const UBaseType_t uxItemSize, u
 423:Middlewares/Third_Party/FreeRTOS/Source/queue.c **** {
 551              		.loc 1 423 1
 552              		.cfi_startproc
 553              		@ args = 4, pretend = 0, frame = 16
 554              		@ frame_needed = 1, uses_anonymous_args = 0
 555 0000 80B5     		push	{r7, lr}
 556              	.LCFI15:
 557              		.cfi_def_cfa_offset 8
 558              		.cfi_offset 7, -8
 559              		.cfi_offset 14, -4
 560 0002 84B0     		sub	sp, sp, #16
 561              	.LCFI16:
 562              		.cfi_def_cfa_offset 24
 563 0004 00AF     		add	r7, sp, #0
 564              	.LCFI17:
 565              		.cfi_def_cfa_register 7
 566 0006 F860     		str	r0, [r7, #12]
 567 0008 B960     		str	r1, [r7, #8]
 568 000a 7A60     		str	r2, [r7, #4]
 569 000c FB70     		strb	r3, [r7, #3]
 424:Middlewares/Third_Party/FreeRTOS/Source/queue.c **** 	/* Remove compiler warnings about unused parameters should
ARM GAS  C:\Users\EI\AppData\Local\Temp\cc6xPaa5.s 			page 22


 425:Middlewares/Third_Party/FreeRTOS/Source/queue.c **** 	configUSE_TRACE_FACILITY not be set to 1. */
 426:Middlewares/Third_Party/FreeRTOS/Source/queue.c **** 	( void ) ucQueueType;
 427:Middlewares/Third_Party/FreeRTOS/Source/queue.c **** 
 428:Middlewares/Third_Party/FreeRTOS/Source/queue.c **** 	if( uxItemSize == ( UBaseType_t ) 0 )
 570              		.loc 1 428 4
 571 000e BB68     		ldr	r3, [r7, #8]
 572 0010 002B     		cmp	r3, #0
 573 0012 03D1     		bne	.L34
 429:Middlewares/Third_Party/FreeRTOS/Source/queue.c **** 	{
 430:Middlewares/Third_Party/FreeRTOS/Source/queue.c **** 		/* No RAM was allocated for the queue storage area, but PC head cannot
 431:Middlewares/Third_Party/FreeRTOS/Source/queue.c **** 		be set to NULL because NULL is used as a key to say the queue is used as
 432:Middlewares/Third_Party/FreeRTOS/Source/queue.c **** 		a mutex.  Therefore just set pcHead to point to the queue as a benign
 433:Middlewares/Third_Party/FreeRTOS/Source/queue.c **** 		value that is known to be within the memory map. */
 434:Middlewares/Third_Party/FreeRTOS/Source/queue.c **** 		pxNewQueue->pcHead = ( int8_t * ) pxNewQueue;
 574              		.loc 1 434 22
 575 0014 BB69     		ldr	r3, [r7, #24]
 576 0016 BA69     		ldr	r2, [r7, #24]
 577 0018 1A60     		str	r2, [r3]
 578 001a 02E0     		b	.L35
 579              	.L34:
 435:Middlewares/Third_Party/FreeRTOS/Source/queue.c **** 	}
 436:Middlewares/Third_Party/FreeRTOS/Source/queue.c **** 	else
 437:Middlewares/Third_Party/FreeRTOS/Source/queue.c **** 	{
 438:Middlewares/Third_Party/FreeRTOS/Source/queue.c **** 		/* Set the head to the start of the queue storage area. */
 439:Middlewares/Third_Party/FreeRTOS/Source/queue.c **** 		pxNewQueue->pcHead = ( int8_t * ) pucQueueStorage;
 580              		.loc 1 439 22
 581 001c BB69     		ldr	r3, [r7, #24]
 582 001e 7A68     		ldr	r2, [r7, #4]
 583 0020 1A60     		str	r2, [r3]
 584              	.L35:
 440:Middlewares/Third_Party/FreeRTOS/Source/queue.c **** 	}
 441:Middlewares/Third_Party/FreeRTOS/Source/queue.c **** 
 442:Middlewares/Third_Party/FreeRTOS/Source/queue.c **** 	/* Initialise the queue members as described where the queue type is
 443:Middlewares/Third_Party/FreeRTOS/Source/queue.c **** 	defined. */
 444:Middlewares/Third_Party/FreeRTOS/Source/queue.c **** 	pxNewQueue->uxLength = uxQueueLength;
 585              		.loc 1 444 23
 586 0022 BB69     		ldr	r3, [r7, #24]
 587 0024 FA68     		ldr	r2, [r7, #12]
 588 0026 DA63     		str	r2, [r3, #60]
 445:Middlewares/Third_Party/FreeRTOS/Source/queue.c **** 	pxNewQueue->uxItemSize = uxItemSize;
 589              		.loc 1 445 25
 590 0028 BB69     		ldr	r3, [r7, #24]
 591 002a BA68     		ldr	r2, [r7, #8]
 592 002c 1A64     		str	r2, [r3, #64]
 446:Middlewares/Third_Party/FreeRTOS/Source/queue.c **** 	( void ) xQueueGenericReset( pxNewQueue, pdTRUE );
 593              		.loc 1 446 11
 594 002e 0121     		movs	r1, #1
 595 0030 B869     		ldr	r0, [r7, #24]
 596 0032 FFF7FEFF 		bl	xQueueGenericReset
 447:Middlewares/Third_Party/FreeRTOS/Source/queue.c **** 
 448:Middlewares/Third_Party/FreeRTOS/Source/queue.c **** 	#if ( configUSE_TRACE_FACILITY == 1 )
 449:Middlewares/Third_Party/FreeRTOS/Source/queue.c **** 	{
 450:Middlewares/Third_Party/FreeRTOS/Source/queue.c **** 		pxNewQueue->ucQueueType = ucQueueType;
 597              		.loc 1 450 27
 598 0036 BB69     		ldr	r3, [r7, #24]
 599 0038 FA78     		ldrb	r2, [r7, #3]
 600 003a 83F84C20 		strb	r2, [r3, #76]
ARM GAS  C:\Users\EI\AppData\Local\Temp\cc6xPaa5.s 			page 23


 451:Middlewares/Third_Party/FreeRTOS/Source/queue.c **** 	}
 452:Middlewares/Third_Party/FreeRTOS/Source/queue.c **** 	#endif /* configUSE_TRACE_FACILITY */
 453:Middlewares/Third_Party/FreeRTOS/Source/queue.c **** 
 454:Middlewares/Third_Party/FreeRTOS/Source/queue.c **** 	#if( configUSE_QUEUE_SETS == 1 )
 455:Middlewares/Third_Party/FreeRTOS/Source/queue.c **** 	{
 456:Middlewares/Third_Party/FreeRTOS/Source/queue.c **** 		pxNewQueue->pxQueueSetContainer = NULL;
 457:Middlewares/Third_Party/FreeRTOS/Source/queue.c **** 	}
 458:Middlewares/Third_Party/FreeRTOS/Source/queue.c **** 	#endif /* configUSE_QUEUE_SETS */
 459:Middlewares/Third_Party/FreeRTOS/Source/queue.c **** 
 460:Middlewares/Third_Party/FreeRTOS/Source/queue.c **** 	traceQUEUE_CREATE( pxNewQueue );
 461:Middlewares/Third_Party/FreeRTOS/Source/queue.c **** }
 601              		.loc 1 461 1
 602 003e 00BF     		nop
 603 0040 1037     		adds	r7, r7, #16
 604              	.LCFI18:
 605              		.cfi_def_cfa_offset 8
 606 0042 BD46     		mov	sp, r7
 607              	.LCFI19:
 608              		.cfi_def_cfa_register 13
 609              		@ sp needed
 610 0044 80BD     		pop	{r7, pc}
 611              		.cfi_endproc
 612              	.LFE7:
 614              		.section	.text.prvInitialiseMutex,"ax",%progbits
 615              		.align	1
 616              		.syntax unified
 617              		.thumb
 618              		.thumb_func
 619              		.fpu fpv4-sp-d16
 621              	prvInitialiseMutex:
 622              	.LFB8:
 462:Middlewares/Third_Party/FreeRTOS/Source/queue.c **** /*-----------------------------------------------------------*/
 463:Middlewares/Third_Party/FreeRTOS/Source/queue.c **** 
 464:Middlewares/Third_Party/FreeRTOS/Source/queue.c **** #if( configUSE_MUTEXES == 1 )
 465:Middlewares/Third_Party/FreeRTOS/Source/queue.c **** 
 466:Middlewares/Third_Party/FreeRTOS/Source/queue.c **** 	static void prvInitialiseMutex( Queue_t *pxNewQueue )
 467:Middlewares/Third_Party/FreeRTOS/Source/queue.c **** 	{
 623              		.loc 1 467 2
 624              		.cfi_startproc
 625              		@ args = 0, pretend = 0, frame = 8
 626              		@ frame_needed = 1, uses_anonymous_args = 0
 627 0000 80B5     		push	{r7, lr}
 628              	.LCFI20:
 629              		.cfi_def_cfa_offset 8
 630              		.cfi_offset 7, -8
 631              		.cfi_offset 14, -4
 632 0002 82B0     		sub	sp, sp, #8
 633              	.LCFI21:
 634              		.cfi_def_cfa_offset 16
 635 0004 00AF     		add	r7, sp, #0
 636              	.LCFI22:
 637              		.cfi_def_cfa_register 7
 638 0006 7860     		str	r0, [r7, #4]
 468:Middlewares/Third_Party/FreeRTOS/Source/queue.c **** 		if( pxNewQueue != NULL )
 639              		.loc 1 468 5
 640 0008 7B68     		ldr	r3, [r7, #4]
 641 000a 002B     		cmp	r3, #0
ARM GAS  C:\Users\EI\AppData\Local\Temp\cc6xPaa5.s 			page 24


 642 000c 0ED0     		beq	.L38
 469:Middlewares/Third_Party/FreeRTOS/Source/queue.c **** 		{
 470:Middlewares/Third_Party/FreeRTOS/Source/queue.c **** 			/* The queue create function will set all the queue structure members
 471:Middlewares/Third_Party/FreeRTOS/Source/queue.c **** 			correctly for a generic queue, but this function is creating a
 472:Middlewares/Third_Party/FreeRTOS/Source/queue.c **** 			mutex.  Overwrite those members that need to be set differently -
 473:Middlewares/Third_Party/FreeRTOS/Source/queue.c **** 			in particular the information required for priority inheritance. */
 474:Middlewares/Third_Party/FreeRTOS/Source/queue.c **** 			pxNewQueue->u.xSemaphore.xMutexHolder = NULL;
 643              		.loc 1 474 42
 644 000e 7B68     		ldr	r3, [r7, #4]
 645 0010 0022     		movs	r2, #0
 646 0012 9A60     		str	r2, [r3, #8]
 475:Middlewares/Third_Party/FreeRTOS/Source/queue.c **** 			pxNewQueue->uxQueueType = queueQUEUE_IS_MUTEX;
 647              		.loc 1 475 28
 648 0014 7B68     		ldr	r3, [r7, #4]
 649 0016 0022     		movs	r2, #0
 650 0018 1A60     		str	r2, [r3]
 476:Middlewares/Third_Party/FreeRTOS/Source/queue.c **** 
 477:Middlewares/Third_Party/FreeRTOS/Source/queue.c **** 			/* In case this is a recursive mutex. */
 478:Middlewares/Third_Party/FreeRTOS/Source/queue.c **** 			pxNewQueue->u.xSemaphore.uxRecursiveCallCount = 0;
 651              		.loc 1 478 50
 652 001a 7B68     		ldr	r3, [r7, #4]
 653 001c 0022     		movs	r2, #0
 654 001e DA60     		str	r2, [r3, #12]
 479:Middlewares/Third_Party/FreeRTOS/Source/queue.c **** 
 480:Middlewares/Third_Party/FreeRTOS/Source/queue.c **** 			traceCREATE_MUTEX( pxNewQueue );
 481:Middlewares/Third_Party/FreeRTOS/Source/queue.c **** 
 482:Middlewares/Third_Party/FreeRTOS/Source/queue.c **** 			/* Start with the semaphore in the expected state. */
 483:Middlewares/Third_Party/FreeRTOS/Source/queue.c **** 			( void ) xQueueGenericSend( pxNewQueue, NULL, ( TickType_t ) 0U, queueSEND_TO_BACK );
 655              		.loc 1 483 13
 656 0020 0023     		movs	r3, #0
 657 0022 0022     		movs	r2, #0
 658 0024 0021     		movs	r1, #0
 659 0026 7868     		ldr	r0, [r7, #4]
 660 0028 FFF7FEFF 		bl	xQueueGenericSend
 661              	.L38:
 484:Middlewares/Third_Party/FreeRTOS/Source/queue.c **** 		}
 485:Middlewares/Third_Party/FreeRTOS/Source/queue.c **** 		else
 486:Middlewares/Third_Party/FreeRTOS/Source/queue.c **** 		{
 487:Middlewares/Third_Party/FreeRTOS/Source/queue.c **** 			traceCREATE_MUTEX_FAILED();
 488:Middlewares/Third_Party/FreeRTOS/Source/queue.c **** 		}
 489:Middlewares/Third_Party/FreeRTOS/Source/queue.c **** 	}
 662              		.loc 1 489 2
 663 002c 00BF     		nop
 664 002e 0837     		adds	r7, r7, #8
 665              	.LCFI23:
 666              		.cfi_def_cfa_offset 8
 667 0030 BD46     		mov	sp, r7
 668              	.LCFI24:
 669              		.cfi_def_cfa_register 13
 670              		@ sp needed
 671 0032 80BD     		pop	{r7, pc}
 672              		.cfi_endproc
 673              	.LFE8:
 675              		.section	.text.xQueueCreateMutex,"ax",%progbits
 676              		.align	1
 677              		.global	xQueueCreateMutex
 678              		.syntax unified
ARM GAS  C:\Users\EI\AppData\Local\Temp\cc6xPaa5.s 			page 25


 679              		.thumb
 680              		.thumb_func
 681              		.fpu fpv4-sp-d16
 683              	xQueueCreateMutex:
 684              	.LFB9:
 490:Middlewares/Third_Party/FreeRTOS/Source/queue.c **** 
 491:Middlewares/Third_Party/FreeRTOS/Source/queue.c **** #endif /* configUSE_MUTEXES */
 492:Middlewares/Third_Party/FreeRTOS/Source/queue.c **** /*-----------------------------------------------------------*/
 493:Middlewares/Third_Party/FreeRTOS/Source/queue.c **** 
 494:Middlewares/Third_Party/FreeRTOS/Source/queue.c **** #if( ( configUSE_MUTEXES == 1 ) && ( configSUPPORT_DYNAMIC_ALLOCATION == 1 ) )
 495:Middlewares/Third_Party/FreeRTOS/Source/queue.c **** 
 496:Middlewares/Third_Party/FreeRTOS/Source/queue.c **** 	QueueHandle_t xQueueCreateMutex( const uint8_t ucQueueType )
 497:Middlewares/Third_Party/FreeRTOS/Source/queue.c **** 	{
 685              		.loc 1 497 2
 686              		.cfi_startproc
 687              		@ args = 0, pretend = 0, frame = 24
 688              		@ frame_needed = 1, uses_anonymous_args = 0
 689 0000 80B5     		push	{r7, lr}
 690              	.LCFI25:
 691              		.cfi_def_cfa_offset 8
 692              		.cfi_offset 7, -8
 693              		.cfi_offset 14, -4
 694 0002 86B0     		sub	sp, sp, #24
 695              	.LCFI26:
 696              		.cfi_def_cfa_offset 32
 697 0004 00AF     		add	r7, sp, #0
 698              	.LCFI27:
 699              		.cfi_def_cfa_register 7
 700 0006 0346     		mov	r3, r0
 701 0008 FB71     		strb	r3, [r7, #7]
 498:Middlewares/Third_Party/FreeRTOS/Source/queue.c **** 	QueueHandle_t xNewQueue;
 499:Middlewares/Third_Party/FreeRTOS/Source/queue.c **** 	const UBaseType_t uxMutexLength = ( UBaseType_t ) 1, uxMutexSize = ( UBaseType_t ) 0;
 702              		.loc 1 499 20
 703 000a 0123     		movs	r3, #1
 704 000c 7B61     		str	r3, [r7, #20]
 705              		.loc 1 499 55
 706 000e 0023     		movs	r3, #0
 707 0010 3B61     		str	r3, [r7, #16]
 500:Middlewares/Third_Party/FreeRTOS/Source/queue.c **** 
 501:Middlewares/Third_Party/FreeRTOS/Source/queue.c **** 		xNewQueue = xQueueGenericCreate( uxMutexLength, uxMutexSize, ucQueueType );
 708              		.loc 1 501 15
 709 0012 FB79     		ldrb	r3, [r7, #7]	@ zero_extendqisi2
 710 0014 1A46     		mov	r2, r3
 711 0016 3969     		ldr	r1, [r7, #16]
 712 0018 7869     		ldr	r0, [r7, #20]
 713 001a FFF7FEFF 		bl	xQueueGenericCreate
 714 001e F860     		str	r0, [r7, #12]
 502:Middlewares/Third_Party/FreeRTOS/Source/queue.c **** 		prvInitialiseMutex( ( Queue_t * ) xNewQueue );
 715              		.loc 1 502 3
 716 0020 F868     		ldr	r0, [r7, #12]
 717 0022 FFF7FEFF 		bl	prvInitialiseMutex
 503:Middlewares/Third_Party/FreeRTOS/Source/queue.c **** 
 504:Middlewares/Third_Party/FreeRTOS/Source/queue.c **** 		return xNewQueue;
 718              		.loc 1 504 10
 719 0026 FB68     		ldr	r3, [r7, #12]
 505:Middlewares/Third_Party/FreeRTOS/Source/queue.c **** 	}
 720              		.loc 1 505 2
ARM GAS  C:\Users\EI\AppData\Local\Temp\cc6xPaa5.s 			page 26


 721 0028 1846     		mov	r0, r3
 722 002a 1837     		adds	r7, r7, #24
 723              	.LCFI28:
 724              		.cfi_def_cfa_offset 8
 725 002c BD46     		mov	sp, r7
 726              	.LCFI29:
 727              		.cfi_def_cfa_register 13
 728              		@ sp needed
 729 002e 80BD     		pop	{r7, pc}
 730              		.cfi_endproc
 731              	.LFE9:
 733              		.section	.text.xQueueCreateMutexStatic,"ax",%progbits
 734              		.align	1
 735              		.global	xQueueCreateMutexStatic
 736              		.syntax unified
 737              		.thumb
 738              		.thumb_func
 739              		.fpu fpv4-sp-d16
 741              	xQueueCreateMutexStatic:
 742              	.LFB10:
 506:Middlewares/Third_Party/FreeRTOS/Source/queue.c **** 
 507:Middlewares/Third_Party/FreeRTOS/Source/queue.c **** #endif /* configUSE_MUTEXES */
 508:Middlewares/Third_Party/FreeRTOS/Source/queue.c **** /*-----------------------------------------------------------*/
 509:Middlewares/Third_Party/FreeRTOS/Source/queue.c **** 
 510:Middlewares/Third_Party/FreeRTOS/Source/queue.c **** #if( ( configUSE_MUTEXES == 1 ) && ( configSUPPORT_STATIC_ALLOCATION == 1 ) )
 511:Middlewares/Third_Party/FreeRTOS/Source/queue.c **** 
 512:Middlewares/Third_Party/FreeRTOS/Source/queue.c **** 	QueueHandle_t xQueueCreateMutexStatic( const uint8_t ucQueueType, StaticQueue_t *pxStaticQueue )
 513:Middlewares/Third_Party/FreeRTOS/Source/queue.c **** 	{
 743              		.loc 1 513 2
 744              		.cfi_startproc
 745              		@ args = 0, pretend = 0, frame = 24
 746              		@ frame_needed = 1, uses_anonymous_args = 0
 747 0000 80B5     		push	{r7, lr}
 748              	.LCFI30:
 749              		.cfi_def_cfa_offset 8
 750              		.cfi_offset 7, -8
 751              		.cfi_offset 14, -4
 752 0002 88B0     		sub	sp, sp, #32
 753              	.LCFI31:
 754              		.cfi_def_cfa_offset 40
 755 0004 02AF     		add	r7, sp, #8
 756              	.LCFI32:
 757              		.cfi_def_cfa 7, 32
 758 0006 0346     		mov	r3, r0
 759 0008 3960     		str	r1, [r7]
 760 000a FB71     		strb	r3, [r7, #7]
 514:Middlewares/Third_Party/FreeRTOS/Source/queue.c **** 	QueueHandle_t xNewQueue;
 515:Middlewares/Third_Party/FreeRTOS/Source/queue.c **** 	const UBaseType_t uxMutexLength = ( UBaseType_t ) 1, uxMutexSize = ( UBaseType_t ) 0;
 761              		.loc 1 515 20
 762 000c 0123     		movs	r3, #1
 763 000e 7B61     		str	r3, [r7, #20]
 764              		.loc 1 515 55
 765 0010 0023     		movs	r3, #0
 766 0012 3B61     		str	r3, [r7, #16]
 516:Middlewares/Third_Party/FreeRTOS/Source/queue.c **** 
 517:Middlewares/Third_Party/FreeRTOS/Source/queue.c **** 		/* Prevent compiler warnings about unused parameters if
 518:Middlewares/Third_Party/FreeRTOS/Source/queue.c **** 		configUSE_TRACE_FACILITY does not equal 1. */
ARM GAS  C:\Users\EI\AppData\Local\Temp\cc6xPaa5.s 			page 27


 519:Middlewares/Third_Party/FreeRTOS/Source/queue.c **** 		( void ) ucQueueType;
 520:Middlewares/Third_Party/FreeRTOS/Source/queue.c **** 
 521:Middlewares/Third_Party/FreeRTOS/Source/queue.c **** 		xNewQueue = xQueueGenericCreateStatic( uxMutexLength, uxMutexSize, NULL, pxStaticQueue, ucQueueTy
 767              		.loc 1 521 15
 768 0014 FB79     		ldrb	r3, [r7, #7]	@ zero_extendqisi2
 769 0016 0093     		str	r3, [sp]
 770 0018 3B68     		ldr	r3, [r7]
 771 001a 0022     		movs	r2, #0
 772 001c 3969     		ldr	r1, [r7, #16]
 773 001e 7869     		ldr	r0, [r7, #20]
 774 0020 FFF7FEFF 		bl	xQueueGenericCreateStatic
 775 0024 F860     		str	r0, [r7, #12]
 522:Middlewares/Third_Party/FreeRTOS/Source/queue.c **** 		prvInitialiseMutex( ( Queue_t * ) xNewQueue );
 776              		.loc 1 522 3
 777 0026 F868     		ldr	r0, [r7, #12]
 778 0028 FFF7FEFF 		bl	prvInitialiseMutex
 523:Middlewares/Third_Party/FreeRTOS/Source/queue.c **** 
 524:Middlewares/Third_Party/FreeRTOS/Source/queue.c **** 		return xNewQueue;
 779              		.loc 1 524 10
 780 002c FB68     		ldr	r3, [r7, #12]
 525:Middlewares/Third_Party/FreeRTOS/Source/queue.c **** 	}
 781              		.loc 1 525 2
 782 002e 1846     		mov	r0, r3
 783 0030 1837     		adds	r7, r7, #24
 784              	.LCFI33:
 785              		.cfi_def_cfa_offset 8
 786 0032 BD46     		mov	sp, r7
 787              	.LCFI34:
 788              		.cfi_def_cfa_register 13
 789              		@ sp needed
 790 0034 80BD     		pop	{r7, pc}
 791              		.cfi_endproc
 792              	.LFE10:
 794              		.section	.text.xQueueGetMutexHolder,"ax",%progbits
 795              		.align	1
 796              		.global	xQueueGetMutexHolder
 797              		.syntax unified
 798              		.thumb
 799              		.thumb_func
 800              		.fpu fpv4-sp-d16
 802              	xQueueGetMutexHolder:
 803              	.LFB11:
 526:Middlewares/Third_Party/FreeRTOS/Source/queue.c **** 
 527:Middlewares/Third_Party/FreeRTOS/Source/queue.c **** #endif /* configUSE_MUTEXES */
 528:Middlewares/Third_Party/FreeRTOS/Source/queue.c **** /*-----------------------------------------------------------*/
 529:Middlewares/Third_Party/FreeRTOS/Source/queue.c **** 
 530:Middlewares/Third_Party/FreeRTOS/Source/queue.c **** #if ( ( configUSE_MUTEXES == 1 ) && ( INCLUDE_xSemaphoreGetMutexHolder == 1 ) )
 531:Middlewares/Third_Party/FreeRTOS/Source/queue.c **** 
 532:Middlewares/Third_Party/FreeRTOS/Source/queue.c **** 	TaskHandle_t xQueueGetMutexHolder( QueueHandle_t xSemaphore )
 533:Middlewares/Third_Party/FreeRTOS/Source/queue.c **** 	{
 804              		.loc 1 533 2
 805              		.cfi_startproc
 806              		@ args = 0, pretend = 0, frame = 16
 807              		@ frame_needed = 1, uses_anonymous_args = 0
 808 0000 80B5     		push	{r7, lr}
 809              	.LCFI35:
 810              		.cfi_def_cfa_offset 8
ARM GAS  C:\Users\EI\AppData\Local\Temp\cc6xPaa5.s 			page 28


 811              		.cfi_offset 7, -8
 812              		.cfi_offset 14, -4
 813 0002 84B0     		sub	sp, sp, #16
 814              	.LCFI36:
 815              		.cfi_def_cfa_offset 24
 816 0004 00AF     		add	r7, sp, #0
 817              	.LCFI37:
 818              		.cfi_def_cfa_register 7
 819 0006 7860     		str	r0, [r7, #4]
 534:Middlewares/Third_Party/FreeRTOS/Source/queue.c **** 	TaskHandle_t pxReturn;
 535:Middlewares/Third_Party/FreeRTOS/Source/queue.c **** 	Queue_t * const pxSemaphore = ( Queue_t * ) xSemaphore;
 820              		.loc 1 535 18
 821 0008 7B68     		ldr	r3, [r7, #4]
 822 000a BB60     		str	r3, [r7, #8]
 536:Middlewares/Third_Party/FreeRTOS/Source/queue.c **** 
 537:Middlewares/Third_Party/FreeRTOS/Source/queue.c **** 		/* This function is called by xSemaphoreGetMutexHolder(), and should not
 538:Middlewares/Third_Party/FreeRTOS/Source/queue.c **** 		be called directly.  Note:  This is a good way of determining if the
 539:Middlewares/Third_Party/FreeRTOS/Source/queue.c **** 		calling task is the mutex holder, but not a good way of determining the
 540:Middlewares/Third_Party/FreeRTOS/Source/queue.c **** 		identity of the mutex holder, as the holder may change between the
 541:Middlewares/Third_Party/FreeRTOS/Source/queue.c **** 		following critical section exiting and the function returning. */
 542:Middlewares/Third_Party/FreeRTOS/Source/queue.c **** 		taskENTER_CRITICAL();
 823              		.loc 1 542 3
 824 000c FFF7FEFF 		bl	vPortEnterCritical
 543:Middlewares/Third_Party/FreeRTOS/Source/queue.c **** 		{
 544:Middlewares/Third_Party/FreeRTOS/Source/queue.c **** 			if( pxSemaphore->uxQueueType == queueQUEUE_IS_MUTEX )
 825              		.loc 1 544 19
 826 0010 BB68     		ldr	r3, [r7, #8]
 827 0012 1B68     		ldr	r3, [r3]
 828              		.loc 1 544 6
 829 0014 002B     		cmp	r3, #0
 830 0016 03D1     		bne	.L44
 545:Middlewares/Third_Party/FreeRTOS/Source/queue.c **** 			{
 546:Middlewares/Third_Party/FreeRTOS/Source/queue.c **** 				pxReturn = pxSemaphore->u.xSemaphore.xMutexHolder;
 831              		.loc 1 546 14
 832 0018 BB68     		ldr	r3, [r7, #8]
 833 001a 9B68     		ldr	r3, [r3, #8]
 834 001c FB60     		str	r3, [r7, #12]
 835 001e 01E0     		b	.L45
 836              	.L44:
 547:Middlewares/Third_Party/FreeRTOS/Source/queue.c **** 			}
 548:Middlewares/Third_Party/FreeRTOS/Source/queue.c **** 			else
 549:Middlewares/Third_Party/FreeRTOS/Source/queue.c **** 			{
 550:Middlewares/Third_Party/FreeRTOS/Source/queue.c **** 				pxReturn = NULL;
 837              		.loc 1 550 14
 838 0020 0023     		movs	r3, #0
 839 0022 FB60     		str	r3, [r7, #12]
 840              	.L45:
 551:Middlewares/Third_Party/FreeRTOS/Source/queue.c **** 			}
 552:Middlewares/Third_Party/FreeRTOS/Source/queue.c **** 		}
 553:Middlewares/Third_Party/FreeRTOS/Source/queue.c **** 		taskEXIT_CRITICAL();
 841              		.loc 1 553 3
 842 0024 FFF7FEFF 		bl	vPortExitCritical
 554:Middlewares/Third_Party/FreeRTOS/Source/queue.c **** 
 555:Middlewares/Third_Party/FreeRTOS/Source/queue.c **** 		return pxReturn;
 843              		.loc 1 555 10
 844 0028 FB68     		ldr	r3, [r7, #12]
 556:Middlewares/Third_Party/FreeRTOS/Source/queue.c **** 	} /*lint !e818 xSemaphore cannot be a pointer to const because it is a typedef. */
ARM GAS  C:\Users\EI\AppData\Local\Temp\cc6xPaa5.s 			page 29


 845              		.loc 1 556 2
 846 002a 1846     		mov	r0, r3
 847 002c 1037     		adds	r7, r7, #16
 848              	.LCFI38:
 849              		.cfi_def_cfa_offset 8
 850 002e BD46     		mov	sp, r7
 851              	.LCFI39:
 852              		.cfi_def_cfa_register 13
 853              		@ sp needed
 854 0030 80BD     		pop	{r7, pc}
 855              		.cfi_endproc
 856              	.LFE11:
 858              		.section	.text.xQueueGetMutexHolderFromISR,"ax",%progbits
 859              		.align	1
 860              		.global	xQueueGetMutexHolderFromISR
 861              		.syntax unified
 862              		.thumb
 863              		.thumb_func
 864              		.fpu fpv4-sp-d16
 866              	xQueueGetMutexHolderFromISR:
 867              	.LFB12:
 557:Middlewares/Third_Party/FreeRTOS/Source/queue.c **** 
 558:Middlewares/Third_Party/FreeRTOS/Source/queue.c **** #endif
 559:Middlewares/Third_Party/FreeRTOS/Source/queue.c **** /*-----------------------------------------------------------*/
 560:Middlewares/Third_Party/FreeRTOS/Source/queue.c **** 
 561:Middlewares/Third_Party/FreeRTOS/Source/queue.c **** #if ( ( configUSE_MUTEXES == 1 ) && ( INCLUDE_xSemaphoreGetMutexHolder == 1 ) )
 562:Middlewares/Third_Party/FreeRTOS/Source/queue.c **** 
 563:Middlewares/Third_Party/FreeRTOS/Source/queue.c **** 	TaskHandle_t xQueueGetMutexHolderFromISR( QueueHandle_t xSemaphore )
 564:Middlewares/Third_Party/FreeRTOS/Source/queue.c **** 	{
 868              		.loc 1 564 2
 869              		.cfi_startproc
 870              		@ args = 0, pretend = 0, frame = 16
 871              		@ frame_needed = 1, uses_anonymous_args = 0
 872              		@ link register save eliminated.
 873 0000 80B4     		push	{r7}
 874              	.LCFI40:
 875              		.cfi_def_cfa_offset 4
 876              		.cfi_offset 7, -4
 877 0002 85B0     		sub	sp, sp, #20
 878              	.LCFI41:
 879              		.cfi_def_cfa_offset 24
 880 0004 00AF     		add	r7, sp, #0
 881              	.LCFI42:
 882              		.cfi_def_cfa_register 7
 883 0006 7860     		str	r0, [r7, #4]
 565:Middlewares/Third_Party/FreeRTOS/Source/queue.c **** 	TaskHandle_t pxReturn;
 566:Middlewares/Third_Party/FreeRTOS/Source/queue.c **** 
 567:Middlewares/Third_Party/FreeRTOS/Source/queue.c **** 		configASSERT( xSemaphore );
 884              		.loc 1 567 3
 885 0008 7B68     		ldr	r3, [r7, #4]
 886 000a 002B     		cmp	r3, #0
 887 000c 0AD1     		bne	.L48
 888              	.LBB133:
 889              	.LBB134:
 195:Middlewares/Third_Party/FreeRTOS/Source/portable/GCC/ARM_CM4F/portmacro.h **** 	(
 890              		.loc 2 195 2
 891              		.syntax unified
ARM GAS  C:\Users\EI\AppData\Local\Temp\cc6xPaa5.s 			page 30


 892              	@ 195 "Middlewares/Third_Party/FreeRTOS/Source/portable/GCC/ARM_CM4F/portmacro.h" 1
 893 000e 4FF05003 			mov r3, #80												
 894 0012 83F31188 		msr basepri, r3											
 895 0016 BFF36F8F 		isb														
 896 001a BFF34F8F 		dsb														
 897              	
 898              	@ 0 "" 2
 899              		.thumb
 900              		.syntax unified
 901 001e BB60     		str	r3, [r7, #8]
 902              		.loc 2 203 1
 903 0020 00BF     		nop
 904              	.L49:
 905              	.LBE134:
 906              	.LBE133:
 907              		.loc 1 567 3 discriminator 1
 908 0022 FEE7     		b	.L49
 909              	.L48:
 568:Middlewares/Third_Party/FreeRTOS/Source/queue.c **** 
 569:Middlewares/Third_Party/FreeRTOS/Source/queue.c **** 		/* Mutexes cannot be used in interrupt service routines, so the mutex
 570:Middlewares/Third_Party/FreeRTOS/Source/queue.c **** 		holder should not change in an ISR, and therefore a critical section is
 571:Middlewares/Third_Party/FreeRTOS/Source/queue.c **** 		not required here. */
 572:Middlewares/Third_Party/FreeRTOS/Source/queue.c **** 		if( ( ( Queue_t * ) xSemaphore )->uxQueueType == queueQUEUE_IS_MUTEX )
 910              		.loc 1 572 35
 911 0024 7B68     		ldr	r3, [r7, #4]
 912 0026 1B68     		ldr	r3, [r3]
 913              		.loc 1 572 5
 914 0028 002B     		cmp	r3, #0
 915 002a 03D1     		bne	.L50
 573:Middlewares/Third_Party/FreeRTOS/Source/queue.c **** 		{
 574:Middlewares/Third_Party/FreeRTOS/Source/queue.c **** 			pxReturn = ( ( Queue_t * ) xSemaphore )->u.xSemaphore.xMutexHolder;
 916              		.loc 1 574 13
 917 002c 7B68     		ldr	r3, [r7, #4]
 918 002e 9B68     		ldr	r3, [r3, #8]
 919 0030 FB60     		str	r3, [r7, #12]
 920 0032 01E0     		b	.L51
 921              	.L50:
 575:Middlewares/Third_Party/FreeRTOS/Source/queue.c **** 		}
 576:Middlewares/Third_Party/FreeRTOS/Source/queue.c **** 		else
 577:Middlewares/Third_Party/FreeRTOS/Source/queue.c **** 		{
 578:Middlewares/Third_Party/FreeRTOS/Source/queue.c **** 			pxReturn = NULL;
 922              		.loc 1 578 13
 923 0034 0023     		movs	r3, #0
 924 0036 FB60     		str	r3, [r7, #12]
 925              	.L51:
 579:Middlewares/Third_Party/FreeRTOS/Source/queue.c **** 		}
 580:Middlewares/Third_Party/FreeRTOS/Source/queue.c **** 
 581:Middlewares/Third_Party/FreeRTOS/Source/queue.c **** 		return pxReturn;
 926              		.loc 1 581 10
 927 0038 FB68     		ldr	r3, [r7, #12]
 582:Middlewares/Third_Party/FreeRTOS/Source/queue.c **** 	} /*lint !e818 xSemaphore cannot be a pointer to const because it is a typedef. */
 928              		.loc 1 582 2
 929 003a 1846     		mov	r0, r3
 930 003c 1437     		adds	r7, r7, #20
 931              	.LCFI43:
 932              		.cfi_def_cfa_offset 4
 933 003e BD46     		mov	sp, r7
ARM GAS  C:\Users\EI\AppData\Local\Temp\cc6xPaa5.s 			page 31


 934              	.LCFI44:
 935              		.cfi_def_cfa_register 13
 936              		@ sp needed
 937 0040 5DF8047B 		ldr	r7, [sp], #4
 938              	.LCFI45:
 939              		.cfi_restore 7
 940              		.cfi_def_cfa_offset 0
 941 0044 7047     		bx	lr
 942              		.cfi_endproc
 943              	.LFE12:
 945              		.section	.text.xQueueGiveMutexRecursive,"ax",%progbits
 946              		.align	1
 947              		.global	xQueueGiveMutexRecursive
 948              		.syntax unified
 949              		.thumb
 950              		.thumb_func
 951              		.fpu fpv4-sp-d16
 953              	xQueueGiveMutexRecursive:
 954              	.LFB13:
 583:Middlewares/Third_Party/FreeRTOS/Source/queue.c **** 
 584:Middlewares/Third_Party/FreeRTOS/Source/queue.c **** #endif
 585:Middlewares/Third_Party/FreeRTOS/Source/queue.c **** /*-----------------------------------------------------------*/
 586:Middlewares/Third_Party/FreeRTOS/Source/queue.c **** 
 587:Middlewares/Third_Party/FreeRTOS/Source/queue.c **** #if ( configUSE_RECURSIVE_MUTEXES == 1 )
 588:Middlewares/Third_Party/FreeRTOS/Source/queue.c **** 
 589:Middlewares/Third_Party/FreeRTOS/Source/queue.c **** 	BaseType_t xQueueGiveMutexRecursive( QueueHandle_t xMutex )
 590:Middlewares/Third_Party/FreeRTOS/Source/queue.c **** 	{
 955              		.loc 1 590 2
 956              		.cfi_startproc
 957              		@ args = 0, pretend = 0, frame = 24
 958              		@ frame_needed = 1, uses_anonymous_args = 0
 959 0000 90B5     		push	{r4, r7, lr}
 960              	.LCFI46:
 961              		.cfi_def_cfa_offset 12
 962              		.cfi_offset 4, -12
 963              		.cfi_offset 7, -8
 964              		.cfi_offset 14, -4
 965 0002 87B0     		sub	sp, sp, #28
 966              	.LCFI47:
 967              		.cfi_def_cfa_offset 40
 968 0004 00AF     		add	r7, sp, #0
 969              	.LCFI48:
 970              		.cfi_def_cfa_register 7
 971 0006 7860     		str	r0, [r7, #4]
 591:Middlewares/Third_Party/FreeRTOS/Source/queue.c **** 	BaseType_t xReturn;
 592:Middlewares/Third_Party/FreeRTOS/Source/queue.c **** 	Queue_t * const pxMutex = ( Queue_t * ) xMutex;
 972              		.loc 1 592 18
 973 0008 7B68     		ldr	r3, [r7, #4]
 974 000a 3B61     		str	r3, [r7, #16]
 593:Middlewares/Third_Party/FreeRTOS/Source/queue.c **** 
 594:Middlewares/Third_Party/FreeRTOS/Source/queue.c **** 		configASSERT( pxMutex );
 975              		.loc 1 594 3
 976 000c 3B69     		ldr	r3, [r7, #16]
 977 000e 002B     		cmp	r3, #0
 978 0010 0AD1     		bne	.L54
 979              	.LBB135:
 980              	.LBB136:
ARM GAS  C:\Users\EI\AppData\Local\Temp\cc6xPaa5.s 			page 32


 195:Middlewares/Third_Party/FreeRTOS/Source/portable/GCC/ARM_CM4F/portmacro.h **** 	(
 981              		.loc 2 195 2
 982              		.syntax unified
 983              	@ 195 "Middlewares/Third_Party/FreeRTOS/Source/portable/GCC/ARM_CM4F/portmacro.h" 1
 984 0012 4FF05003 			mov r3, #80												
 985 0016 83F31188 		msr basepri, r3											
 986 001a BFF36F8F 		isb														
 987 001e BFF34F8F 		dsb														
 988              	
 989              	@ 0 "" 2
 990              		.thumb
 991              		.syntax unified
 992 0022 FB60     		str	r3, [r7, #12]
 993              		.loc 2 203 1
 994 0024 00BF     		nop
 995              	.L55:
 996              	.LBE136:
 997              	.LBE135:
 998              		.loc 1 594 3 discriminator 1
 999 0026 FEE7     		b	.L55
 1000              	.L54:
 595:Middlewares/Third_Party/FreeRTOS/Source/queue.c **** 
 596:Middlewares/Third_Party/FreeRTOS/Source/queue.c **** 		/* If this is the task that holds the mutex then xMutexHolder will not
 597:Middlewares/Third_Party/FreeRTOS/Source/queue.c **** 		change outside of this task.  If this task does not hold the mutex then
 598:Middlewares/Third_Party/FreeRTOS/Source/queue.c **** 		pxMutexHolder can never coincidentally equal the tasks handle, and as
 599:Middlewares/Third_Party/FreeRTOS/Source/queue.c **** 		this is the only condition we are interested in it does not matter if
 600:Middlewares/Third_Party/FreeRTOS/Source/queue.c **** 		pxMutexHolder is accessed simultaneously by another task.  Therefore no
 601:Middlewares/Third_Party/FreeRTOS/Source/queue.c **** 		mutual exclusion is required to test the pxMutexHolder variable. */
 602:Middlewares/Third_Party/FreeRTOS/Source/queue.c **** 		if( pxMutex->u.xSemaphore.xMutexHolder == xTaskGetCurrentTaskHandle() )
 1001              		.loc 1 602 28
 1002 0028 3B69     		ldr	r3, [r7, #16]
 1003 002a 9C68     		ldr	r4, [r3, #8]
 1004              		.loc 1 602 45
 1005 002c FFF7FEFF 		bl	xTaskGetCurrentTaskHandle
 1006 0030 0346     		mov	r3, r0
 1007              		.loc 1 602 5
 1008 0032 9C42     		cmp	r4, r3
 1009 0034 11D1     		bne	.L56
 603:Middlewares/Third_Party/FreeRTOS/Source/queue.c **** 		{
 604:Middlewares/Third_Party/FreeRTOS/Source/queue.c **** 			traceGIVE_MUTEX_RECURSIVE( pxMutex );
 605:Middlewares/Third_Party/FreeRTOS/Source/queue.c **** 
 606:Middlewares/Third_Party/FreeRTOS/Source/queue.c **** 			/* uxRecursiveCallCount cannot be zero if xMutexHolder is equal to
 607:Middlewares/Third_Party/FreeRTOS/Source/queue.c **** 			the task handle, therefore no underflow check is required.  Also,
 608:Middlewares/Third_Party/FreeRTOS/Source/queue.c **** 			uxRecursiveCallCount is only modified by the mutex holder, and as
 609:Middlewares/Third_Party/FreeRTOS/Source/queue.c **** 			there can only be one, no mutual exclusion is required to modify the
 610:Middlewares/Third_Party/FreeRTOS/Source/queue.c **** 			uxRecursiveCallCount member. */
 611:Middlewares/Third_Party/FreeRTOS/Source/queue.c **** 			( pxMutex->u.xSemaphore.uxRecursiveCallCount )--;
 1010              		.loc 1 611 27
 1011 0036 3B69     		ldr	r3, [r7, #16]
 1012 0038 DB68     		ldr	r3, [r3, #12]
 1013              		.loc 1 611 50
 1014 003a 5A1E     		subs	r2, r3, #1
 1015 003c 3B69     		ldr	r3, [r7, #16]
 1016 003e DA60     		str	r2, [r3, #12]
 612:Middlewares/Third_Party/FreeRTOS/Source/queue.c **** 
 613:Middlewares/Third_Party/FreeRTOS/Source/queue.c **** 			/* Has the recursive call count unwound to 0? */
 614:Middlewares/Third_Party/FreeRTOS/Source/queue.c **** 			if( pxMutex->u.xSemaphore.uxRecursiveCallCount == ( UBaseType_t ) 0 )
ARM GAS  C:\Users\EI\AppData\Local\Temp\cc6xPaa5.s 			page 33


 1017              		.loc 1 614 29
 1018 0040 3B69     		ldr	r3, [r7, #16]
 1019 0042 DB68     		ldr	r3, [r3, #12]
 1020              		.loc 1 614 6
 1021 0044 002B     		cmp	r3, #0
 1022 0046 05D1     		bne	.L57
 615:Middlewares/Third_Party/FreeRTOS/Source/queue.c **** 			{
 616:Middlewares/Third_Party/FreeRTOS/Source/queue.c **** 				/* Return the mutex.  This will automatically unblock any other
 617:Middlewares/Third_Party/FreeRTOS/Source/queue.c **** 				task that might be waiting to access the mutex. */
 618:Middlewares/Third_Party/FreeRTOS/Source/queue.c **** 				( void ) xQueueGenericSend( pxMutex, NULL, queueMUTEX_GIVE_BLOCK_TIME, queueSEND_TO_BACK );
 1023              		.loc 1 618 14
 1024 0048 0023     		movs	r3, #0
 1025 004a 0022     		movs	r2, #0
 1026 004c 0021     		movs	r1, #0
 1027 004e 3869     		ldr	r0, [r7, #16]
 1028 0050 FFF7FEFF 		bl	xQueueGenericSend
 1029              	.L57:
 619:Middlewares/Third_Party/FreeRTOS/Source/queue.c **** 			}
 620:Middlewares/Third_Party/FreeRTOS/Source/queue.c **** 			else
 621:Middlewares/Third_Party/FreeRTOS/Source/queue.c **** 			{
 622:Middlewares/Third_Party/FreeRTOS/Source/queue.c **** 				mtCOVERAGE_TEST_MARKER();
 623:Middlewares/Third_Party/FreeRTOS/Source/queue.c **** 			}
 624:Middlewares/Third_Party/FreeRTOS/Source/queue.c **** 
 625:Middlewares/Third_Party/FreeRTOS/Source/queue.c **** 			xReturn = pdPASS;
 1030              		.loc 1 625 12
 1031 0054 0123     		movs	r3, #1
 1032 0056 7B61     		str	r3, [r7, #20]
 1033 0058 01E0     		b	.L58
 1034              	.L56:
 626:Middlewares/Third_Party/FreeRTOS/Source/queue.c **** 		}
 627:Middlewares/Third_Party/FreeRTOS/Source/queue.c **** 		else
 628:Middlewares/Third_Party/FreeRTOS/Source/queue.c **** 		{
 629:Middlewares/Third_Party/FreeRTOS/Source/queue.c **** 			/* The mutex cannot be given because the calling task is not the
 630:Middlewares/Third_Party/FreeRTOS/Source/queue.c **** 			holder. */
 631:Middlewares/Third_Party/FreeRTOS/Source/queue.c **** 			xReturn = pdFAIL;
 1035              		.loc 1 631 12
 1036 005a 0023     		movs	r3, #0
 1037 005c 7B61     		str	r3, [r7, #20]
 1038              	.L58:
 632:Middlewares/Third_Party/FreeRTOS/Source/queue.c **** 
 633:Middlewares/Third_Party/FreeRTOS/Source/queue.c **** 			traceGIVE_MUTEX_RECURSIVE_FAILED( pxMutex );
 634:Middlewares/Third_Party/FreeRTOS/Source/queue.c **** 		}
 635:Middlewares/Third_Party/FreeRTOS/Source/queue.c **** 
 636:Middlewares/Third_Party/FreeRTOS/Source/queue.c **** 		return xReturn;
 1039              		.loc 1 636 10
 1040 005e 7B69     		ldr	r3, [r7, #20]
 637:Middlewares/Third_Party/FreeRTOS/Source/queue.c **** 	}
 1041              		.loc 1 637 2
 1042 0060 1846     		mov	r0, r3
 1043 0062 1C37     		adds	r7, r7, #28
 1044              	.LCFI49:
 1045              		.cfi_def_cfa_offset 12
 1046 0064 BD46     		mov	sp, r7
 1047              	.LCFI50:
 1048              		.cfi_def_cfa_register 13
 1049              		@ sp needed
 1050 0066 90BD     		pop	{r4, r7, pc}
ARM GAS  C:\Users\EI\AppData\Local\Temp\cc6xPaa5.s 			page 34


 1051              		.cfi_endproc
 1052              	.LFE13:
 1054              		.section	.text.xQueueTakeMutexRecursive,"ax",%progbits
 1055              		.align	1
 1056              		.global	xQueueTakeMutexRecursive
 1057              		.syntax unified
 1058              		.thumb
 1059              		.thumb_func
 1060              		.fpu fpv4-sp-d16
 1062              	xQueueTakeMutexRecursive:
 1063              	.LFB14:
 638:Middlewares/Third_Party/FreeRTOS/Source/queue.c **** 
 639:Middlewares/Third_Party/FreeRTOS/Source/queue.c **** #endif /* configUSE_RECURSIVE_MUTEXES */
 640:Middlewares/Third_Party/FreeRTOS/Source/queue.c **** /*-----------------------------------------------------------*/
 641:Middlewares/Third_Party/FreeRTOS/Source/queue.c **** 
 642:Middlewares/Third_Party/FreeRTOS/Source/queue.c **** #if ( configUSE_RECURSIVE_MUTEXES == 1 )
 643:Middlewares/Third_Party/FreeRTOS/Source/queue.c **** 
 644:Middlewares/Third_Party/FreeRTOS/Source/queue.c **** 	BaseType_t xQueueTakeMutexRecursive( QueueHandle_t xMutex, TickType_t xTicksToWait )
 645:Middlewares/Third_Party/FreeRTOS/Source/queue.c **** 	{
 1064              		.loc 1 645 2
 1065              		.cfi_startproc
 1066              		@ args = 0, pretend = 0, frame = 24
 1067              		@ frame_needed = 1, uses_anonymous_args = 0
 1068 0000 90B5     		push	{r4, r7, lr}
 1069              	.LCFI51:
 1070              		.cfi_def_cfa_offset 12
 1071              		.cfi_offset 4, -12
 1072              		.cfi_offset 7, -8
 1073              		.cfi_offset 14, -4
 1074 0002 87B0     		sub	sp, sp, #28
 1075              	.LCFI52:
 1076              		.cfi_def_cfa_offset 40
 1077 0004 00AF     		add	r7, sp, #0
 1078              	.LCFI53:
 1079              		.cfi_def_cfa_register 7
 1080 0006 7860     		str	r0, [r7, #4]
 1081 0008 3960     		str	r1, [r7]
 646:Middlewares/Third_Party/FreeRTOS/Source/queue.c **** 	BaseType_t xReturn;
 647:Middlewares/Third_Party/FreeRTOS/Source/queue.c **** 	Queue_t * const pxMutex = ( Queue_t * ) xMutex;
 1082              		.loc 1 647 18
 1083 000a 7B68     		ldr	r3, [r7, #4]
 1084 000c 3B61     		str	r3, [r7, #16]
 648:Middlewares/Third_Party/FreeRTOS/Source/queue.c **** 
 649:Middlewares/Third_Party/FreeRTOS/Source/queue.c **** 		configASSERT( pxMutex );
 1085              		.loc 1 649 3
 1086 000e 3B69     		ldr	r3, [r7, #16]
 1087 0010 002B     		cmp	r3, #0
 1088 0012 0AD1     		bne	.L61
 1089              	.LBB137:
 1090              	.LBB138:
 195:Middlewares/Third_Party/FreeRTOS/Source/portable/GCC/ARM_CM4F/portmacro.h **** 	(
 1091              		.loc 2 195 2
 1092              		.syntax unified
 1093              	@ 195 "Middlewares/Third_Party/FreeRTOS/Source/portable/GCC/ARM_CM4F/portmacro.h" 1
 1094 0014 4FF05003 			mov r3, #80												
 1095 0018 83F31188 		msr basepri, r3											
 1096 001c BFF36F8F 		isb														
ARM GAS  C:\Users\EI\AppData\Local\Temp\cc6xPaa5.s 			page 35


 1097 0020 BFF34F8F 		dsb														
 1098              	
 1099              	@ 0 "" 2
 1100              		.thumb
 1101              		.syntax unified
 1102 0024 FB60     		str	r3, [r7, #12]
 1103              		.loc 2 203 1
 1104 0026 00BF     		nop
 1105              	.L62:
 1106              	.LBE138:
 1107              	.LBE137:
 1108              		.loc 1 649 3 discriminator 1
 1109 0028 FEE7     		b	.L62
 1110              	.L61:
 650:Middlewares/Third_Party/FreeRTOS/Source/queue.c **** 
 651:Middlewares/Third_Party/FreeRTOS/Source/queue.c **** 		/* Comments regarding mutual exclusion as per those within
 652:Middlewares/Third_Party/FreeRTOS/Source/queue.c **** 		xQueueGiveMutexRecursive(). */
 653:Middlewares/Third_Party/FreeRTOS/Source/queue.c **** 
 654:Middlewares/Third_Party/FreeRTOS/Source/queue.c **** 		traceTAKE_MUTEX_RECURSIVE( pxMutex );
 655:Middlewares/Third_Party/FreeRTOS/Source/queue.c **** 
 656:Middlewares/Third_Party/FreeRTOS/Source/queue.c **** 		if( pxMutex->u.xSemaphore.xMutexHolder == xTaskGetCurrentTaskHandle() )
 1111              		.loc 1 656 28
 1112 002a 3B69     		ldr	r3, [r7, #16]
 1113 002c 9C68     		ldr	r4, [r3, #8]
 1114              		.loc 1 656 45
 1115 002e FFF7FEFF 		bl	xTaskGetCurrentTaskHandle
 1116 0032 0346     		mov	r3, r0
 1117              		.loc 1 656 5
 1118 0034 9C42     		cmp	r4, r3
 1119 0036 07D1     		bne	.L63
 657:Middlewares/Third_Party/FreeRTOS/Source/queue.c **** 		{
 658:Middlewares/Third_Party/FreeRTOS/Source/queue.c **** 			( pxMutex->u.xSemaphore.uxRecursiveCallCount )++;
 1120              		.loc 1 658 27
 1121 0038 3B69     		ldr	r3, [r7, #16]
 1122 003a DB68     		ldr	r3, [r3, #12]
 1123              		.loc 1 658 50
 1124 003c 5A1C     		adds	r2, r3, #1
 1125 003e 3B69     		ldr	r3, [r7, #16]
 1126 0040 DA60     		str	r2, [r3, #12]
 659:Middlewares/Third_Party/FreeRTOS/Source/queue.c **** 			xReturn = pdPASS;
 1127              		.loc 1 659 12
 1128 0042 0123     		movs	r3, #1
 1129 0044 7B61     		str	r3, [r7, #20]
 1130 0046 0CE0     		b	.L64
 1131              	.L63:
 660:Middlewares/Third_Party/FreeRTOS/Source/queue.c **** 		}
 661:Middlewares/Third_Party/FreeRTOS/Source/queue.c **** 		else
 662:Middlewares/Third_Party/FreeRTOS/Source/queue.c **** 		{
 663:Middlewares/Third_Party/FreeRTOS/Source/queue.c **** 			xReturn = xQueueSemaphoreTake( pxMutex, xTicksToWait );
 1132              		.loc 1 663 14
 1133 0048 3968     		ldr	r1, [r7]
 1134 004a 3869     		ldr	r0, [r7, #16]
 1135 004c FFF7FEFF 		bl	xQueueSemaphoreTake
 1136 0050 7861     		str	r0, [r7, #20]
 664:Middlewares/Third_Party/FreeRTOS/Source/queue.c **** 
 665:Middlewares/Third_Party/FreeRTOS/Source/queue.c **** 			/* pdPASS will only be returned if the mutex was successfully
 666:Middlewares/Third_Party/FreeRTOS/Source/queue.c **** 			obtained.  The calling task may have entered the Blocked state
ARM GAS  C:\Users\EI\AppData\Local\Temp\cc6xPaa5.s 			page 36


 667:Middlewares/Third_Party/FreeRTOS/Source/queue.c **** 			before reaching here. */
 668:Middlewares/Third_Party/FreeRTOS/Source/queue.c **** 			if( xReturn != pdFAIL )
 1137              		.loc 1 668 6
 1138 0052 7B69     		ldr	r3, [r7, #20]
 1139 0054 002B     		cmp	r3, #0
 1140 0056 04D0     		beq	.L64
 669:Middlewares/Third_Party/FreeRTOS/Source/queue.c **** 			{
 670:Middlewares/Third_Party/FreeRTOS/Source/queue.c **** 				( pxMutex->u.xSemaphore.uxRecursiveCallCount )++;
 1141              		.loc 1 670 28
 1142 0058 3B69     		ldr	r3, [r7, #16]
 1143 005a DB68     		ldr	r3, [r3, #12]
 1144              		.loc 1 670 51
 1145 005c 5A1C     		adds	r2, r3, #1
 1146 005e 3B69     		ldr	r3, [r7, #16]
 1147 0060 DA60     		str	r2, [r3, #12]
 1148              	.L64:
 671:Middlewares/Third_Party/FreeRTOS/Source/queue.c **** 			}
 672:Middlewares/Third_Party/FreeRTOS/Source/queue.c **** 			else
 673:Middlewares/Third_Party/FreeRTOS/Source/queue.c **** 			{
 674:Middlewares/Third_Party/FreeRTOS/Source/queue.c **** 				traceTAKE_MUTEX_RECURSIVE_FAILED( pxMutex );
 675:Middlewares/Third_Party/FreeRTOS/Source/queue.c **** 			}
 676:Middlewares/Third_Party/FreeRTOS/Source/queue.c **** 		}
 677:Middlewares/Third_Party/FreeRTOS/Source/queue.c **** 
 678:Middlewares/Third_Party/FreeRTOS/Source/queue.c **** 		return xReturn;
 1149              		.loc 1 678 10
 1150 0062 7B69     		ldr	r3, [r7, #20]
 679:Middlewares/Third_Party/FreeRTOS/Source/queue.c **** 	}
 1151              		.loc 1 679 2
 1152 0064 1846     		mov	r0, r3
 1153 0066 1C37     		adds	r7, r7, #28
 1154              	.LCFI54:
 1155              		.cfi_def_cfa_offset 12
 1156 0068 BD46     		mov	sp, r7
 1157              	.LCFI55:
 1158              		.cfi_def_cfa_register 13
 1159              		@ sp needed
 1160 006a 90BD     		pop	{r4, r7, pc}
 1161              		.cfi_endproc
 1162              	.LFE14:
 1164              		.section	.text.xQueueCreateCountingSemaphoreStatic,"ax",%progbits
 1165              		.align	1
 1166              		.global	xQueueCreateCountingSemaphoreStatic
 1167              		.syntax unified
 1168              		.thumb
 1169              		.thumb_func
 1170              		.fpu fpv4-sp-d16
 1172              	xQueueCreateCountingSemaphoreStatic:
 1173              	.LFB15:
 680:Middlewares/Third_Party/FreeRTOS/Source/queue.c **** 
 681:Middlewares/Third_Party/FreeRTOS/Source/queue.c **** #endif /* configUSE_RECURSIVE_MUTEXES */
 682:Middlewares/Third_Party/FreeRTOS/Source/queue.c **** /*-----------------------------------------------------------*/
 683:Middlewares/Third_Party/FreeRTOS/Source/queue.c **** 
 684:Middlewares/Third_Party/FreeRTOS/Source/queue.c **** #if( ( configUSE_COUNTING_SEMAPHORES == 1 ) && ( configSUPPORT_STATIC_ALLOCATION == 1 ) )
 685:Middlewares/Third_Party/FreeRTOS/Source/queue.c **** 
 686:Middlewares/Third_Party/FreeRTOS/Source/queue.c **** 	QueueHandle_t xQueueCreateCountingSemaphoreStatic( const UBaseType_t uxMaxCount, const UBaseType_t
 687:Middlewares/Third_Party/FreeRTOS/Source/queue.c **** 	{
 1174              		.loc 1 687 2
ARM GAS  C:\Users\EI\AppData\Local\Temp\cc6xPaa5.s 			page 37


 1175              		.cfi_startproc
 1176              		@ args = 0, pretend = 0, frame = 32
 1177              		@ frame_needed = 1, uses_anonymous_args = 0
 1178 0000 80B5     		push	{r7, lr}
 1179              	.LCFI56:
 1180              		.cfi_def_cfa_offset 8
 1181              		.cfi_offset 7, -8
 1182              		.cfi_offset 14, -4
 1183 0002 8AB0     		sub	sp, sp, #40
 1184              	.LCFI57:
 1185              		.cfi_def_cfa_offset 48
 1186 0004 02AF     		add	r7, sp, #8
 1187              	.LCFI58:
 1188              		.cfi_def_cfa 7, 40
 1189 0006 F860     		str	r0, [r7, #12]
 1190 0008 B960     		str	r1, [r7, #8]
 1191 000a 7A60     		str	r2, [r7, #4]
 688:Middlewares/Third_Party/FreeRTOS/Source/queue.c **** 	QueueHandle_t xHandle;
 689:Middlewares/Third_Party/FreeRTOS/Source/queue.c **** 
 690:Middlewares/Third_Party/FreeRTOS/Source/queue.c **** 		configASSERT( uxMaxCount != 0 );
 1192              		.loc 1 690 3
 1193 000c FB68     		ldr	r3, [r7, #12]
 1194 000e 002B     		cmp	r3, #0
 1195 0010 0AD1     		bne	.L67
 1196              	.LBB139:
 1197              	.LBB140:
 195:Middlewares/Third_Party/FreeRTOS/Source/portable/GCC/ARM_CM4F/portmacro.h **** 	(
 1198              		.loc 2 195 2
 1199              		.syntax unified
 1200              	@ 195 "Middlewares/Third_Party/FreeRTOS/Source/portable/GCC/ARM_CM4F/portmacro.h" 1
 1201 0012 4FF05003 			mov r3, #80												
 1202 0016 83F31188 		msr basepri, r3											
 1203 001a BFF36F8F 		isb														
 1204 001e BFF34F8F 		dsb														
 1205              	
 1206              	@ 0 "" 2
 1207              		.thumb
 1208              		.syntax unified
 1209 0022 BB61     		str	r3, [r7, #24]
 1210              		.loc 2 203 1
 1211 0024 00BF     		nop
 1212              	.L68:
 1213              	.LBE140:
 1214              	.LBE139:
 1215              		.loc 1 690 3 discriminator 1
 1216 0026 FEE7     		b	.L68
 1217              	.L67:
 691:Middlewares/Third_Party/FreeRTOS/Source/queue.c **** 		configASSERT( uxInitialCount <= uxMaxCount );
 1218              		.loc 1 691 3
 1219 0028 BA68     		ldr	r2, [r7, #8]
 1220 002a FB68     		ldr	r3, [r7, #12]
 1221 002c 9A42     		cmp	r2, r3
 1222 002e 0AD9     		bls	.L69
 1223              	.LBB141:
 1224              	.LBB142:
 195:Middlewares/Third_Party/FreeRTOS/Source/portable/GCC/ARM_CM4F/portmacro.h **** 	(
 1225              		.loc 2 195 2
ARM GAS  C:\Users\EI\AppData\Local\Temp\cc6xPaa5.s 			page 38


 1226              		.syntax unified
 1227              	@ 195 "Middlewares/Third_Party/FreeRTOS/Source/portable/GCC/ARM_CM4F/portmacro.h" 1
 1228 0030 4FF05003 			mov r3, #80												
 1229 0034 83F31188 		msr basepri, r3											
 1230 0038 BFF36F8F 		isb														
 1231 003c BFF34F8F 		dsb														
 1232              	
 1233              	@ 0 "" 2
 1234              		.thumb
 1235              		.syntax unified
 1236 0040 7B61     		str	r3, [r7, #20]
 1237              		.loc 2 203 1
 1238 0042 00BF     		nop
 1239              	.L70:
 1240              	.LBE142:
 1241              	.LBE141:
 1242              		.loc 1 691 3 discriminator 2
 1243 0044 FEE7     		b	.L70
 1244              	.L69:
 692:Middlewares/Third_Party/FreeRTOS/Source/queue.c **** 
 693:Middlewares/Third_Party/FreeRTOS/Source/queue.c **** 		xHandle = xQueueGenericCreateStatic( uxMaxCount, queueSEMAPHORE_QUEUE_ITEM_LENGTH, NULL, pxStatic
 1245              		.loc 1 693 13
 1246 0046 0223     		movs	r3, #2
 1247 0048 0093     		str	r3, [sp]
 1248 004a 7B68     		ldr	r3, [r7, #4]
 1249 004c 0022     		movs	r2, #0
 1250 004e 0021     		movs	r1, #0
 1251 0050 F868     		ldr	r0, [r7, #12]
 1252 0052 FFF7FEFF 		bl	xQueueGenericCreateStatic
 1253 0056 F861     		str	r0, [r7, #28]
 694:Middlewares/Third_Party/FreeRTOS/Source/queue.c **** 
 695:Middlewares/Third_Party/FreeRTOS/Source/queue.c **** 		if( xHandle != NULL )
 1254              		.loc 1 695 5
 1255 0058 FB69     		ldr	r3, [r7, #28]
 1256 005a 002B     		cmp	r3, #0
 1257 005c 02D0     		beq	.L71
 696:Middlewares/Third_Party/FreeRTOS/Source/queue.c **** 		{
 697:Middlewares/Third_Party/FreeRTOS/Source/queue.c **** 			( ( Queue_t * ) xHandle )->uxMessagesWaiting = uxInitialCount;
 1258              		.loc 1 697 49
 1259 005e FB69     		ldr	r3, [r7, #28]
 1260 0060 BA68     		ldr	r2, [r7, #8]
 1261 0062 9A63     		str	r2, [r3, #56]
 1262              	.L71:
 698:Middlewares/Third_Party/FreeRTOS/Source/queue.c **** 
 699:Middlewares/Third_Party/FreeRTOS/Source/queue.c **** 			traceCREATE_COUNTING_SEMAPHORE();
 700:Middlewares/Third_Party/FreeRTOS/Source/queue.c **** 		}
 701:Middlewares/Third_Party/FreeRTOS/Source/queue.c **** 		else
 702:Middlewares/Third_Party/FreeRTOS/Source/queue.c **** 		{
 703:Middlewares/Third_Party/FreeRTOS/Source/queue.c **** 			traceCREATE_COUNTING_SEMAPHORE_FAILED();
 704:Middlewares/Third_Party/FreeRTOS/Source/queue.c **** 		}
 705:Middlewares/Third_Party/FreeRTOS/Source/queue.c **** 
 706:Middlewares/Third_Party/FreeRTOS/Source/queue.c **** 		return xHandle;
 1263              		.loc 1 706 10
 1264 0064 FB69     		ldr	r3, [r7, #28]
 707:Middlewares/Third_Party/FreeRTOS/Source/queue.c **** 	}
 1265              		.loc 1 707 2
 1266 0066 1846     		mov	r0, r3
ARM GAS  C:\Users\EI\AppData\Local\Temp\cc6xPaa5.s 			page 39


 1267 0068 2037     		adds	r7, r7, #32
 1268              	.LCFI59:
 1269              		.cfi_def_cfa_offset 8
 1270 006a BD46     		mov	sp, r7
 1271              	.LCFI60:
 1272              		.cfi_def_cfa_register 13
 1273              		@ sp needed
 1274 006c 80BD     		pop	{r7, pc}
 1275              		.cfi_endproc
 1276              	.LFE15:
 1278              		.section	.text.xQueueCreateCountingSemaphore,"ax",%progbits
 1279              		.align	1
 1280              		.global	xQueueCreateCountingSemaphore
 1281              		.syntax unified
 1282              		.thumb
 1283              		.thumb_func
 1284              		.fpu fpv4-sp-d16
 1286              	xQueueCreateCountingSemaphore:
 1287              	.LFB16:
 708:Middlewares/Third_Party/FreeRTOS/Source/queue.c **** 
 709:Middlewares/Third_Party/FreeRTOS/Source/queue.c **** #endif /* ( ( configUSE_COUNTING_SEMAPHORES == 1 ) && ( configSUPPORT_DYNAMIC_ALLOCATION == 1 ) ) *
 710:Middlewares/Third_Party/FreeRTOS/Source/queue.c **** /*-----------------------------------------------------------*/
 711:Middlewares/Third_Party/FreeRTOS/Source/queue.c **** 
 712:Middlewares/Third_Party/FreeRTOS/Source/queue.c **** #if( ( configUSE_COUNTING_SEMAPHORES == 1 ) && ( configSUPPORT_DYNAMIC_ALLOCATION == 1 ) )
 713:Middlewares/Third_Party/FreeRTOS/Source/queue.c **** 
 714:Middlewares/Third_Party/FreeRTOS/Source/queue.c **** 	QueueHandle_t xQueueCreateCountingSemaphore( const UBaseType_t uxMaxCount, const UBaseType_t uxIni
 715:Middlewares/Third_Party/FreeRTOS/Source/queue.c **** 	{
 1288              		.loc 1 715 2
 1289              		.cfi_startproc
 1290              		@ args = 0, pretend = 0, frame = 24
 1291              		@ frame_needed = 1, uses_anonymous_args = 0
 1292 0000 80B5     		push	{r7, lr}
 1293              	.LCFI61:
 1294              		.cfi_def_cfa_offset 8
 1295              		.cfi_offset 7, -8
 1296              		.cfi_offset 14, -4
 1297 0002 86B0     		sub	sp, sp, #24
 1298              	.LCFI62:
 1299              		.cfi_def_cfa_offset 32
 1300 0004 00AF     		add	r7, sp, #0
 1301              	.LCFI63:
 1302              		.cfi_def_cfa_register 7
 1303 0006 7860     		str	r0, [r7, #4]
 1304 0008 3960     		str	r1, [r7]
 716:Middlewares/Third_Party/FreeRTOS/Source/queue.c **** 	QueueHandle_t xHandle;
 717:Middlewares/Third_Party/FreeRTOS/Source/queue.c **** 
 718:Middlewares/Third_Party/FreeRTOS/Source/queue.c **** 		configASSERT( uxMaxCount != 0 );
 1305              		.loc 1 718 3
 1306 000a 7B68     		ldr	r3, [r7, #4]
 1307 000c 002B     		cmp	r3, #0
 1308 000e 0AD1     		bne	.L74
 1309              	.LBB143:
 1310              	.LBB144:
 195:Middlewares/Third_Party/FreeRTOS/Source/portable/GCC/ARM_CM4F/portmacro.h **** 	(
 1311              		.loc 2 195 2
 1312              		.syntax unified
 1313              	@ 195 "Middlewares/Third_Party/FreeRTOS/Source/portable/GCC/ARM_CM4F/portmacro.h" 1
ARM GAS  C:\Users\EI\AppData\Local\Temp\cc6xPaa5.s 			page 40


 1314 0010 4FF05003 			mov r3, #80												
 1315 0014 83F31188 		msr basepri, r3											
 1316 0018 BFF36F8F 		isb														
 1317 001c BFF34F8F 		dsb														
 1318              	
 1319              	@ 0 "" 2
 1320              		.thumb
 1321              		.syntax unified
 1322 0020 3B61     		str	r3, [r7, #16]
 1323              		.loc 2 203 1
 1324 0022 00BF     		nop
 1325              	.L75:
 1326              	.LBE144:
 1327              	.LBE143:
 1328              		.loc 1 718 3 discriminator 1
 1329 0024 FEE7     		b	.L75
 1330              	.L74:
 719:Middlewares/Third_Party/FreeRTOS/Source/queue.c **** 		configASSERT( uxInitialCount <= uxMaxCount );
 1331              		.loc 1 719 3
 1332 0026 3A68     		ldr	r2, [r7]
 1333 0028 7B68     		ldr	r3, [r7, #4]
 1334 002a 9A42     		cmp	r2, r3
 1335 002c 0AD9     		bls	.L76
 1336              	.LBB145:
 1337              	.LBB146:
 195:Middlewares/Third_Party/FreeRTOS/Source/portable/GCC/ARM_CM4F/portmacro.h **** 	(
 1338              		.loc 2 195 2
 1339              		.syntax unified
 1340              	@ 195 "Middlewares/Third_Party/FreeRTOS/Source/portable/GCC/ARM_CM4F/portmacro.h" 1
 1341 002e 4FF05003 			mov r3, #80												
 1342 0032 83F31188 		msr basepri, r3											
 1343 0036 BFF36F8F 		isb														
 1344 003a BFF34F8F 		dsb														
 1345              	
 1346              	@ 0 "" 2
 1347              		.thumb
 1348              		.syntax unified
 1349 003e FB60     		str	r3, [r7, #12]
 1350              		.loc 2 203 1
 1351 0040 00BF     		nop
 1352              	.L77:
 1353              	.LBE146:
 1354              	.LBE145:
 1355              		.loc 1 719 3 discriminator 2
 1356 0042 FEE7     		b	.L77
 1357              	.L76:
 720:Middlewares/Third_Party/FreeRTOS/Source/queue.c **** 
 721:Middlewares/Third_Party/FreeRTOS/Source/queue.c **** 		xHandle = xQueueGenericCreate( uxMaxCount, queueSEMAPHORE_QUEUE_ITEM_LENGTH, queueQUEUE_TYPE_COUN
 1358              		.loc 1 721 13
 1359 0044 0222     		movs	r2, #2
 1360 0046 0021     		movs	r1, #0
 1361 0048 7868     		ldr	r0, [r7, #4]
 1362 004a FFF7FEFF 		bl	xQueueGenericCreate
 1363 004e 7861     		str	r0, [r7, #20]
 722:Middlewares/Third_Party/FreeRTOS/Source/queue.c **** 
 723:Middlewares/Third_Party/FreeRTOS/Source/queue.c **** 		if( xHandle != NULL )
 1364              		.loc 1 723 5
ARM GAS  C:\Users\EI\AppData\Local\Temp\cc6xPaa5.s 			page 41


 1365 0050 7B69     		ldr	r3, [r7, #20]
 1366 0052 002B     		cmp	r3, #0
 1367 0054 02D0     		beq	.L78
 724:Middlewares/Third_Party/FreeRTOS/Source/queue.c **** 		{
 725:Middlewares/Third_Party/FreeRTOS/Source/queue.c **** 			( ( Queue_t * ) xHandle )->uxMessagesWaiting = uxInitialCount;
 1368              		.loc 1 725 49
 1369 0056 7B69     		ldr	r3, [r7, #20]
 1370 0058 3A68     		ldr	r2, [r7]
 1371 005a 9A63     		str	r2, [r3, #56]
 1372              	.L78:
 726:Middlewares/Third_Party/FreeRTOS/Source/queue.c **** 
 727:Middlewares/Third_Party/FreeRTOS/Source/queue.c **** 			traceCREATE_COUNTING_SEMAPHORE();
 728:Middlewares/Third_Party/FreeRTOS/Source/queue.c **** 		}
 729:Middlewares/Third_Party/FreeRTOS/Source/queue.c **** 		else
 730:Middlewares/Third_Party/FreeRTOS/Source/queue.c **** 		{
 731:Middlewares/Third_Party/FreeRTOS/Source/queue.c **** 			traceCREATE_COUNTING_SEMAPHORE_FAILED();
 732:Middlewares/Third_Party/FreeRTOS/Source/queue.c **** 		}
 733:Middlewares/Third_Party/FreeRTOS/Source/queue.c **** 
 734:Middlewares/Third_Party/FreeRTOS/Source/queue.c **** 		return xHandle;
 1373              		.loc 1 734 10
 1374 005c 7B69     		ldr	r3, [r7, #20]
 735:Middlewares/Third_Party/FreeRTOS/Source/queue.c **** 	}
 1375              		.loc 1 735 2
 1376 005e 1846     		mov	r0, r3
 1377 0060 1837     		adds	r7, r7, #24
 1378              	.LCFI64:
 1379              		.cfi_def_cfa_offset 8
 1380 0062 BD46     		mov	sp, r7
 1381              	.LCFI65:
 1382              		.cfi_def_cfa_register 13
 1383              		@ sp needed
 1384 0064 80BD     		pop	{r7, pc}
 1385              		.cfi_endproc
 1386              	.LFE16:
 1388              		.section	.text.xQueueGenericSend,"ax",%progbits
 1389              		.align	1
 1390              		.global	xQueueGenericSend
 1391              		.syntax unified
 1392              		.thumb
 1393              		.thumb_func
 1394              		.fpu fpv4-sp-d16
 1396              	xQueueGenericSend:
 1397              	.LFB17:
 736:Middlewares/Third_Party/FreeRTOS/Source/queue.c **** 
 737:Middlewares/Third_Party/FreeRTOS/Source/queue.c **** #endif /* ( ( configUSE_COUNTING_SEMAPHORES == 1 ) && ( configSUPPORT_DYNAMIC_ALLOCATION == 1 ) ) *
 738:Middlewares/Third_Party/FreeRTOS/Source/queue.c **** /*-----------------------------------------------------------*/
 739:Middlewares/Third_Party/FreeRTOS/Source/queue.c **** 
 740:Middlewares/Third_Party/FreeRTOS/Source/queue.c **** BaseType_t xQueueGenericSend( QueueHandle_t xQueue, const void * const pvItemToQueue, TickType_t xT
 741:Middlewares/Third_Party/FreeRTOS/Source/queue.c **** {
 1398              		.loc 1 741 1
 1399              		.cfi_startproc
 1400              		@ args = 0, pretend = 0, frame = 56
 1401              		@ frame_needed = 1, uses_anonymous_args = 0
 1402 0000 80B5     		push	{r7, lr}
 1403              	.LCFI66:
 1404              		.cfi_def_cfa_offset 8
 1405              		.cfi_offset 7, -8
ARM GAS  C:\Users\EI\AppData\Local\Temp\cc6xPaa5.s 			page 42


 1406              		.cfi_offset 14, -4
 1407 0002 8EB0     		sub	sp, sp, #56
 1408              	.LCFI67:
 1409              		.cfi_def_cfa_offset 64
 1410 0004 00AF     		add	r7, sp, #0
 1411              	.LCFI68:
 1412              		.cfi_def_cfa_register 7
 1413 0006 F860     		str	r0, [r7, #12]
 1414 0008 B960     		str	r1, [r7, #8]
 1415 000a 7A60     		str	r2, [r7, #4]
 1416 000c 3B60     		str	r3, [r7]
 742:Middlewares/Third_Party/FreeRTOS/Source/queue.c **** BaseType_t xEntryTimeSet = pdFALSE, xYieldRequired;
 1417              		.loc 1 742 12
 1418 000e 0023     		movs	r3, #0
 1419 0010 7B63     		str	r3, [r7, #52]
 743:Middlewares/Third_Party/FreeRTOS/Source/queue.c **** TimeOut_t xTimeOut;
 744:Middlewares/Third_Party/FreeRTOS/Source/queue.c **** Queue_t * const pxQueue = xQueue;
 1420              		.loc 1 744 17
 1421 0012 FB68     		ldr	r3, [r7, #12]
 1422 0014 3B63     		str	r3, [r7, #48]
 745:Middlewares/Third_Party/FreeRTOS/Source/queue.c **** 
 746:Middlewares/Third_Party/FreeRTOS/Source/queue.c **** 	configASSERT( pxQueue );
 1423              		.loc 1 746 2
 1424 0016 3B6B     		ldr	r3, [r7, #48]
 1425 0018 002B     		cmp	r3, #0
 1426 001a 0AD1     		bne	.L81
 1427              	.LBB147:
 1428              	.LBB148:
 195:Middlewares/Third_Party/FreeRTOS/Source/portable/GCC/ARM_CM4F/portmacro.h **** 	(
 1429              		.loc 2 195 2
 1430              		.syntax unified
 1431              	@ 195 "Middlewares/Third_Party/FreeRTOS/Source/portable/GCC/ARM_CM4F/portmacro.h" 1
 1432 001c 4FF05003 			mov r3, #80												
 1433 0020 83F31188 		msr basepri, r3											
 1434 0024 BFF36F8F 		isb														
 1435 0028 BFF34F8F 		dsb														
 1436              	
 1437              	@ 0 "" 2
 1438              		.thumb
 1439              		.syntax unified
 1440 002c BB62     		str	r3, [r7, #40]
 1441              		.loc 2 203 1
 1442 002e 00BF     		nop
 1443              	.L82:
 1444              	.LBE148:
 1445              	.LBE147:
 1446              		.loc 1 746 2 discriminator 1
 1447 0030 FEE7     		b	.L82
 1448              	.L81:
 747:Middlewares/Third_Party/FreeRTOS/Source/queue.c **** 	configASSERT( !( ( pvItemToQueue == NULL ) && ( pxQueue->uxItemSize != ( UBaseType_t ) 0U ) ) );
 1449              		.loc 1 747 2
 1450 0032 BB68     		ldr	r3, [r7, #8]
 1451 0034 002B     		cmp	r3, #0
 1452 0036 03D1     		bne	.L83
 1453              		.loc 1 747 2 is_stmt 0 discriminator 2
 1454 0038 3B6B     		ldr	r3, [r7, #48]
 1455 003a 1B6C     		ldr	r3, [r3, #64]
ARM GAS  C:\Users\EI\AppData\Local\Temp\cc6xPaa5.s 			page 43


 1456 003c 002B     		cmp	r3, #0
 1457 003e 01D1     		bne	.L84
 1458              	.L83:
 1459              		.loc 1 747 2 discriminator 3
 1460 0040 0123     		movs	r3, #1
 1461 0042 00E0     		b	.L85
 1462              	.L84:
 1463              		.loc 1 747 2 discriminator 4
 1464 0044 0023     		movs	r3, #0
 1465              	.L85:
 1466              		.loc 1 747 2 discriminator 6
 1467 0046 002B     		cmp	r3, #0
 1468 0048 0AD1     		bne	.L86
 1469              	.LBB149:
 1470              	.LBB150:
 195:Middlewares/Third_Party/FreeRTOS/Source/portable/GCC/ARM_CM4F/portmacro.h **** 	(
 1471              		.loc 2 195 2 is_stmt 1
 1472              		.syntax unified
 1473              	@ 195 "Middlewares/Third_Party/FreeRTOS/Source/portable/GCC/ARM_CM4F/portmacro.h" 1
 1474 004a 4FF05003 			mov r3, #80												
 1475 004e 83F31188 		msr basepri, r3											
 1476 0052 BFF36F8F 		isb														
 1477 0056 BFF34F8F 		dsb														
 1478              	
 1479              	@ 0 "" 2
 1480              		.thumb
 1481              		.syntax unified
 1482 005a 7B62     		str	r3, [r7, #36]
 1483              		.loc 2 203 1
 1484 005c 00BF     		nop
 1485              	.L87:
 1486              	.LBE150:
 1487              	.LBE149:
 1488              		.loc 1 747 2 discriminator 2
 1489 005e FEE7     		b	.L87
 1490              	.L86:
 748:Middlewares/Third_Party/FreeRTOS/Source/queue.c **** 	configASSERT( !( ( xCopyPosition == queueOVERWRITE ) && ( pxQueue->uxLength != 1 ) ) );
 1491              		.loc 1 748 2
 1492 0060 3B68     		ldr	r3, [r7]
 1493 0062 022B     		cmp	r3, #2
 1494 0064 03D1     		bne	.L88
 1495              		.loc 1 748 2 is_stmt 0 discriminator 2
 1496 0066 3B6B     		ldr	r3, [r7, #48]
 1497 0068 DB6B     		ldr	r3, [r3, #60]
 1498 006a 012B     		cmp	r3, #1
 1499 006c 01D1     		bne	.L89
 1500              	.L88:
 1501              		.loc 1 748 2 discriminator 3
 1502 006e 0123     		movs	r3, #1
 1503 0070 00E0     		b	.L90
 1504              	.L89:
 1505              		.loc 1 748 2 discriminator 4
 1506 0072 0023     		movs	r3, #0
 1507              	.L90:
 1508              		.loc 1 748 2 discriminator 6
 1509 0074 002B     		cmp	r3, #0
 1510 0076 0AD1     		bne	.L91
ARM GAS  C:\Users\EI\AppData\Local\Temp\cc6xPaa5.s 			page 44


 1511              	.LBB151:
 1512              	.LBB152:
 195:Middlewares/Third_Party/FreeRTOS/Source/portable/GCC/ARM_CM4F/portmacro.h **** 	(
 1513              		.loc 2 195 2 is_stmt 1
 1514              		.syntax unified
 1515              	@ 195 "Middlewares/Third_Party/FreeRTOS/Source/portable/GCC/ARM_CM4F/portmacro.h" 1
 1516 0078 4FF05003 			mov r3, #80												
 1517 007c 83F31188 		msr basepri, r3											
 1518 0080 BFF36F8F 		isb														
 1519 0084 BFF34F8F 		dsb														
 1520              	
 1521              	@ 0 "" 2
 1522              		.thumb
 1523              		.syntax unified
 1524 0088 3B62     		str	r3, [r7, #32]
 1525              		.loc 2 203 1
 1526 008a 00BF     		nop
 1527              	.L92:
 1528              	.LBE152:
 1529              	.LBE151:
 1530              		.loc 1 748 2 discriminator 3
 1531 008c FEE7     		b	.L92
 1532              	.L91:
 749:Middlewares/Third_Party/FreeRTOS/Source/queue.c **** 	#if ( ( INCLUDE_xTaskGetSchedulerState == 1 ) || ( configUSE_TIMERS == 1 ) )
 750:Middlewares/Third_Party/FreeRTOS/Source/queue.c **** 	{
 751:Middlewares/Third_Party/FreeRTOS/Source/queue.c **** 		configASSERT( !( ( xTaskGetSchedulerState() == taskSCHEDULER_SUSPENDED ) && ( xTicksToWait != 0 )
 1533              		.loc 1 751 3
 1534 008e FFF7FEFF 		bl	xTaskGetSchedulerState
 1535 0092 0346     		mov	r3, r0
 1536 0094 002B     		cmp	r3, #0
 1537 0096 02D1     		bne	.L93
 1538              		.loc 1 751 3 is_stmt 0 discriminator 2
 1539 0098 7B68     		ldr	r3, [r7, #4]
 1540 009a 002B     		cmp	r3, #0
 1541 009c 01D1     		bne	.L94
 1542              	.L93:
 1543              		.loc 1 751 3 discriminator 3
 1544 009e 0123     		movs	r3, #1
 1545 00a0 00E0     		b	.L95
 1546              	.L94:
 1547              		.loc 1 751 3 discriminator 4
 1548 00a2 0023     		movs	r3, #0
 1549              	.L95:
 1550              		.loc 1 751 3 discriminator 6
 1551 00a4 002B     		cmp	r3, #0
 1552 00a6 0AD1     		bne	.L96
 1553              	.LBB153:
 1554              	.LBB154:
 195:Middlewares/Third_Party/FreeRTOS/Source/portable/GCC/ARM_CM4F/portmacro.h **** 	(
 1555              		.loc 2 195 2 is_stmt 1
 1556              		.syntax unified
 1557              	@ 195 "Middlewares/Third_Party/FreeRTOS/Source/portable/GCC/ARM_CM4F/portmacro.h" 1
 1558 00a8 4FF05003 			mov r3, #80												
 1559 00ac 83F31188 		msr basepri, r3											
 1560 00b0 BFF36F8F 		isb														
 1561 00b4 BFF34F8F 		dsb														
 1562              	
ARM GAS  C:\Users\EI\AppData\Local\Temp\cc6xPaa5.s 			page 45


 1563              	@ 0 "" 2
 1564              		.thumb
 1565              		.syntax unified
 1566 00b8 FB61     		str	r3, [r7, #28]
 1567              		.loc 2 203 1
 1568 00ba 00BF     		nop
 1569              	.L97:
 1570              	.LBE154:
 1571              	.LBE153:
 1572              		.loc 1 751 3 discriminator 4
 1573 00bc FEE7     		b	.L97
 1574              	.L96:
 752:Middlewares/Third_Party/FreeRTOS/Source/queue.c **** 	}
 753:Middlewares/Third_Party/FreeRTOS/Source/queue.c **** 	#endif
 754:Middlewares/Third_Party/FreeRTOS/Source/queue.c **** 
 755:Middlewares/Third_Party/FreeRTOS/Source/queue.c **** 
 756:Middlewares/Third_Party/FreeRTOS/Source/queue.c **** 	/*lint -save -e904 This function relaxes the coding standard somewhat to
 757:Middlewares/Third_Party/FreeRTOS/Source/queue.c **** 	allow return statements within the function itself.  This is done in the
 758:Middlewares/Third_Party/FreeRTOS/Source/queue.c **** 	interest of execution time efficiency. */
 759:Middlewares/Third_Party/FreeRTOS/Source/queue.c **** 	for( ;; )
 760:Middlewares/Third_Party/FreeRTOS/Source/queue.c **** 	{
 761:Middlewares/Third_Party/FreeRTOS/Source/queue.c **** 		taskENTER_CRITICAL();
 1575              		.loc 1 761 3
 1576 00be FFF7FEFF 		bl	vPortEnterCritical
 762:Middlewares/Third_Party/FreeRTOS/Source/queue.c **** 		{
 763:Middlewares/Third_Party/FreeRTOS/Source/queue.c **** 			/* Is there room on the queue now?  The running task must be the
 764:Middlewares/Third_Party/FreeRTOS/Source/queue.c **** 			highest priority task wanting to access the queue.  If the head item
 765:Middlewares/Third_Party/FreeRTOS/Source/queue.c **** 			in the queue is to be overwritten then it does not matter if the
 766:Middlewares/Third_Party/FreeRTOS/Source/queue.c **** 			queue is full. */
 767:Middlewares/Third_Party/FreeRTOS/Source/queue.c **** 			if( ( pxQueue->uxMessagesWaiting < pxQueue->uxLength ) || ( xCopyPosition == queueOVERWRITE ) )
 1577              		.loc 1 767 17
 1578 00c2 3B6B     		ldr	r3, [r7, #48]
 1579 00c4 9A6B     		ldr	r2, [r3, #56]
 1580              		.loc 1 767 46
 1581 00c6 3B6B     		ldr	r3, [r7, #48]
 1582 00c8 DB6B     		ldr	r3, [r3, #60]
 1583              		.loc 1 767 6
 1584 00ca 9A42     		cmp	r2, r3
 1585 00cc 02D3     		bcc	.L98
 1586              		.loc 1 767 59 discriminator 1
 1587 00ce 3B68     		ldr	r3, [r7]
 1588 00d0 022B     		cmp	r3, #2
 1589 00d2 29D1     		bne	.L99
 1590              	.L98:
 768:Middlewares/Third_Party/FreeRTOS/Source/queue.c **** 			{
 769:Middlewares/Third_Party/FreeRTOS/Source/queue.c **** 				traceQUEUE_SEND( pxQueue );
 770:Middlewares/Third_Party/FreeRTOS/Source/queue.c **** 
 771:Middlewares/Third_Party/FreeRTOS/Source/queue.c **** 				#if ( configUSE_QUEUE_SETS == 1 )
 772:Middlewares/Third_Party/FreeRTOS/Source/queue.c **** 				{
 773:Middlewares/Third_Party/FreeRTOS/Source/queue.c **** 				const UBaseType_t uxPreviousMessagesWaiting = pxQueue->uxMessagesWaiting;
 774:Middlewares/Third_Party/FreeRTOS/Source/queue.c **** 
 775:Middlewares/Third_Party/FreeRTOS/Source/queue.c **** 					xYieldRequired = prvCopyDataToQueue( pxQueue, pvItemToQueue, xCopyPosition );
 776:Middlewares/Third_Party/FreeRTOS/Source/queue.c **** 
 777:Middlewares/Third_Party/FreeRTOS/Source/queue.c **** 					if( pxQueue->pxQueueSetContainer != NULL )
 778:Middlewares/Third_Party/FreeRTOS/Source/queue.c **** 					{
 779:Middlewares/Third_Party/FreeRTOS/Source/queue.c **** 						if( ( xCopyPosition == queueOVERWRITE ) && ( uxPreviousMessagesWaiting != ( UBaseType_t ) 0 )
 780:Middlewares/Third_Party/FreeRTOS/Source/queue.c **** 						{
ARM GAS  C:\Users\EI\AppData\Local\Temp\cc6xPaa5.s 			page 46


 781:Middlewares/Third_Party/FreeRTOS/Source/queue.c **** 							/* Do not notify the queue set as an existing item
 782:Middlewares/Third_Party/FreeRTOS/Source/queue.c **** 							was overwritten in the queue so the number of items
 783:Middlewares/Third_Party/FreeRTOS/Source/queue.c **** 							in the queue has not changed. */
 784:Middlewares/Third_Party/FreeRTOS/Source/queue.c **** 							mtCOVERAGE_TEST_MARKER();
 785:Middlewares/Third_Party/FreeRTOS/Source/queue.c **** 						}
 786:Middlewares/Third_Party/FreeRTOS/Source/queue.c **** 						else if( prvNotifyQueueSetContainer( pxQueue ) != pdFALSE )
 787:Middlewares/Third_Party/FreeRTOS/Source/queue.c **** 						{
 788:Middlewares/Third_Party/FreeRTOS/Source/queue.c **** 							/* The queue is a member of a queue set, and posting
 789:Middlewares/Third_Party/FreeRTOS/Source/queue.c **** 							to the queue set caused a higher priority task to
 790:Middlewares/Third_Party/FreeRTOS/Source/queue.c **** 							unblock. A context switch is required. */
 791:Middlewares/Third_Party/FreeRTOS/Source/queue.c **** 							queueYIELD_IF_USING_PREEMPTION();
 792:Middlewares/Third_Party/FreeRTOS/Source/queue.c **** 						}
 793:Middlewares/Third_Party/FreeRTOS/Source/queue.c **** 						else
 794:Middlewares/Third_Party/FreeRTOS/Source/queue.c **** 						{
 795:Middlewares/Third_Party/FreeRTOS/Source/queue.c **** 							mtCOVERAGE_TEST_MARKER();
 796:Middlewares/Third_Party/FreeRTOS/Source/queue.c **** 						}
 797:Middlewares/Third_Party/FreeRTOS/Source/queue.c **** 					}
 798:Middlewares/Third_Party/FreeRTOS/Source/queue.c **** 					else
 799:Middlewares/Third_Party/FreeRTOS/Source/queue.c **** 					{
 800:Middlewares/Third_Party/FreeRTOS/Source/queue.c **** 						/* If there was a task waiting for data to arrive on the
 801:Middlewares/Third_Party/FreeRTOS/Source/queue.c **** 						queue then unblock it now. */
 802:Middlewares/Third_Party/FreeRTOS/Source/queue.c **** 						if( listLIST_IS_EMPTY( &( pxQueue->xTasksWaitingToReceive ) ) == pdFALSE )
 803:Middlewares/Third_Party/FreeRTOS/Source/queue.c **** 						{
 804:Middlewares/Third_Party/FreeRTOS/Source/queue.c **** 							if( xTaskRemoveFromEventList( &( pxQueue->xTasksWaitingToReceive ) ) != pdFALSE )
 805:Middlewares/Third_Party/FreeRTOS/Source/queue.c **** 							{
 806:Middlewares/Third_Party/FreeRTOS/Source/queue.c **** 								/* The unblocked task has a priority higher than
 807:Middlewares/Third_Party/FreeRTOS/Source/queue.c **** 								our own so yield immediately.  Yes it is ok to
 808:Middlewares/Third_Party/FreeRTOS/Source/queue.c **** 								do this from within the critical section - the
 809:Middlewares/Third_Party/FreeRTOS/Source/queue.c **** 								kernel takes care of that. */
 810:Middlewares/Third_Party/FreeRTOS/Source/queue.c **** 								queueYIELD_IF_USING_PREEMPTION();
 811:Middlewares/Third_Party/FreeRTOS/Source/queue.c **** 							}
 812:Middlewares/Third_Party/FreeRTOS/Source/queue.c **** 							else
 813:Middlewares/Third_Party/FreeRTOS/Source/queue.c **** 							{
 814:Middlewares/Third_Party/FreeRTOS/Source/queue.c **** 								mtCOVERAGE_TEST_MARKER();
 815:Middlewares/Third_Party/FreeRTOS/Source/queue.c **** 							}
 816:Middlewares/Third_Party/FreeRTOS/Source/queue.c **** 						}
 817:Middlewares/Third_Party/FreeRTOS/Source/queue.c **** 						else if( xYieldRequired != pdFALSE )
 818:Middlewares/Third_Party/FreeRTOS/Source/queue.c **** 						{
 819:Middlewares/Third_Party/FreeRTOS/Source/queue.c **** 							/* This path is a special case that will only get
 820:Middlewares/Third_Party/FreeRTOS/Source/queue.c **** 							executed if the task was holding multiple mutexes
 821:Middlewares/Third_Party/FreeRTOS/Source/queue.c **** 							and the mutexes were given back in an order that is
 822:Middlewares/Third_Party/FreeRTOS/Source/queue.c **** 							different to that in which they were taken. */
 823:Middlewares/Third_Party/FreeRTOS/Source/queue.c **** 							queueYIELD_IF_USING_PREEMPTION();
 824:Middlewares/Third_Party/FreeRTOS/Source/queue.c **** 						}
 825:Middlewares/Third_Party/FreeRTOS/Source/queue.c **** 						else
 826:Middlewares/Third_Party/FreeRTOS/Source/queue.c **** 						{
 827:Middlewares/Third_Party/FreeRTOS/Source/queue.c **** 							mtCOVERAGE_TEST_MARKER();
 828:Middlewares/Third_Party/FreeRTOS/Source/queue.c **** 						}
 829:Middlewares/Third_Party/FreeRTOS/Source/queue.c **** 					}
 830:Middlewares/Third_Party/FreeRTOS/Source/queue.c **** 				}
 831:Middlewares/Third_Party/FreeRTOS/Source/queue.c **** 				#else /* configUSE_QUEUE_SETS */
 832:Middlewares/Third_Party/FreeRTOS/Source/queue.c **** 				{
 833:Middlewares/Third_Party/FreeRTOS/Source/queue.c **** 					xYieldRequired = prvCopyDataToQueue( pxQueue, pvItemToQueue, xCopyPosition );
 1591              		.loc 1 833 23
 1592 00d4 3A68     		ldr	r2, [r7]
 1593 00d6 B968     		ldr	r1, [r7, #8]
 1594 00d8 386B     		ldr	r0, [r7, #48]
ARM GAS  C:\Users\EI\AppData\Local\Temp\cc6xPaa5.s 			page 47


 1595 00da FFF7FEFF 		bl	prvCopyDataToQueue
 1596 00de F862     		str	r0, [r7, #44]
 834:Middlewares/Third_Party/FreeRTOS/Source/queue.c **** 
 835:Middlewares/Third_Party/FreeRTOS/Source/queue.c **** 					/* If there was a task waiting for data to arrive on the
 836:Middlewares/Third_Party/FreeRTOS/Source/queue.c **** 					queue then unblock it now. */
 837:Middlewares/Third_Party/FreeRTOS/Source/queue.c **** 					if( listLIST_IS_EMPTY( &( pxQueue->xTasksWaitingToReceive ) ) == pdFALSE )
 1597              		.loc 1 837 10
 1598 00e0 3B6B     		ldr	r3, [r7, #48]
 1599 00e2 5B6A     		ldr	r3, [r3, #36]
 1600              		.loc 1 837 8
 1601 00e4 002B     		cmp	r3, #0
 1602 00e6 10D0     		beq	.L100
 838:Middlewares/Third_Party/FreeRTOS/Source/queue.c **** 					{
 839:Middlewares/Third_Party/FreeRTOS/Source/queue.c **** 						if( xTaskRemoveFromEventList( &( pxQueue->xTasksWaitingToReceive ) ) != pdFALSE )
 1603              		.loc 1 839 37
 1604 00e8 3B6B     		ldr	r3, [r7, #48]
 1605 00ea 2433     		adds	r3, r3, #36
 1606              		.loc 1 839 11
 1607 00ec 1846     		mov	r0, r3
 1608 00ee FFF7FEFF 		bl	xTaskRemoveFromEventList
 1609 00f2 0346     		mov	r3, r0
 1610              		.loc 1 839 9
 1611 00f4 002B     		cmp	r3, #0
 1612 00f6 13D0     		beq	.L101
 840:Middlewares/Third_Party/FreeRTOS/Source/queue.c **** 						{
 841:Middlewares/Third_Party/FreeRTOS/Source/queue.c **** 							/* The unblocked task has a priority higher than
 842:Middlewares/Third_Party/FreeRTOS/Source/queue.c **** 							our own so yield immediately.  Yes it is ok to do
 843:Middlewares/Third_Party/FreeRTOS/Source/queue.c **** 							this from within the critical section - the kernel
 844:Middlewares/Third_Party/FreeRTOS/Source/queue.c **** 							takes care of that. */
 845:Middlewares/Third_Party/FreeRTOS/Source/queue.c **** 							queueYIELD_IF_USING_PREEMPTION();
 1613              		.loc 1 845 8
 1614 00f8 3F4B     		ldr	r3, .L111
 1615 00fa 4FF08052 		mov	r2, #268435456
 1616 00fe 1A60     		str	r2, [r3]
 1617              		.syntax unified
 1618              	@ 845 "Middlewares/Third_Party/FreeRTOS/Source/queue.c" 1
 1619 0100 BFF34F8F 		dsb
 1620              	@ 0 "" 2
 1621              	@ 845 "Middlewares/Third_Party/FreeRTOS/Source/queue.c" 1
 1622 0104 BFF36F8F 		isb
 1623              	@ 0 "" 2
 1624              		.thumb
 1625              		.syntax unified
 1626 0108 0AE0     		b	.L101
 1627              	.L100:
 846:Middlewares/Third_Party/FreeRTOS/Source/queue.c **** 						}
 847:Middlewares/Third_Party/FreeRTOS/Source/queue.c **** 						else
 848:Middlewares/Third_Party/FreeRTOS/Source/queue.c **** 						{
 849:Middlewares/Third_Party/FreeRTOS/Source/queue.c **** 							mtCOVERAGE_TEST_MARKER();
 850:Middlewares/Third_Party/FreeRTOS/Source/queue.c **** 						}
 851:Middlewares/Third_Party/FreeRTOS/Source/queue.c **** 					}
 852:Middlewares/Third_Party/FreeRTOS/Source/queue.c **** 					else if( xYieldRequired != pdFALSE )
 1628              		.loc 1 852 13
 1629 010a FB6A     		ldr	r3, [r7, #44]
 1630 010c 002B     		cmp	r3, #0
 1631 010e 07D0     		beq	.L101
 853:Middlewares/Third_Party/FreeRTOS/Source/queue.c **** 					{
ARM GAS  C:\Users\EI\AppData\Local\Temp\cc6xPaa5.s 			page 48


 854:Middlewares/Third_Party/FreeRTOS/Source/queue.c **** 						/* This path is a special case that will only get
 855:Middlewares/Third_Party/FreeRTOS/Source/queue.c **** 						executed if the task was holding multiple mutexes and
 856:Middlewares/Third_Party/FreeRTOS/Source/queue.c **** 						the mutexes were given back in an order that is
 857:Middlewares/Third_Party/FreeRTOS/Source/queue.c **** 						different to that in which they were taken. */
 858:Middlewares/Third_Party/FreeRTOS/Source/queue.c **** 						queueYIELD_IF_USING_PREEMPTION();
 1632              		.loc 1 858 7
 1633 0110 394B     		ldr	r3, .L111
 1634 0112 4FF08052 		mov	r2, #268435456
 1635 0116 1A60     		str	r2, [r3]
 1636              		.syntax unified
 1637              	@ 858 "Middlewares/Third_Party/FreeRTOS/Source/queue.c" 1
 1638 0118 BFF34F8F 		dsb
 1639              	@ 0 "" 2
 1640              	@ 858 "Middlewares/Third_Party/FreeRTOS/Source/queue.c" 1
 1641 011c BFF36F8F 		isb
 1642              	@ 0 "" 2
 1643              		.thumb
 1644              		.syntax unified
 1645              	.L101:
 859:Middlewares/Third_Party/FreeRTOS/Source/queue.c **** 					}
 860:Middlewares/Third_Party/FreeRTOS/Source/queue.c **** 					else
 861:Middlewares/Third_Party/FreeRTOS/Source/queue.c **** 					{
 862:Middlewares/Third_Party/FreeRTOS/Source/queue.c **** 						mtCOVERAGE_TEST_MARKER();
 863:Middlewares/Third_Party/FreeRTOS/Source/queue.c **** 					}
 864:Middlewares/Third_Party/FreeRTOS/Source/queue.c **** 				}
 865:Middlewares/Third_Party/FreeRTOS/Source/queue.c **** 				#endif /* configUSE_QUEUE_SETS */
 866:Middlewares/Third_Party/FreeRTOS/Source/queue.c **** 
 867:Middlewares/Third_Party/FreeRTOS/Source/queue.c **** 				taskEXIT_CRITICAL();
 1646              		.loc 1 867 5
 1647 0120 FFF7FEFF 		bl	vPortExitCritical
 868:Middlewares/Third_Party/FreeRTOS/Source/queue.c **** 				return pdPASS;
 1648              		.loc 1 868 12
 1649 0124 0123     		movs	r3, #1
 1650 0126 63E0     		b	.L110
 1651              	.L99:
 869:Middlewares/Third_Party/FreeRTOS/Source/queue.c **** 			}
 870:Middlewares/Third_Party/FreeRTOS/Source/queue.c **** 			else
 871:Middlewares/Third_Party/FreeRTOS/Source/queue.c **** 			{
 872:Middlewares/Third_Party/FreeRTOS/Source/queue.c **** 				if( xTicksToWait == ( TickType_t ) 0 )
 1652              		.loc 1 872 22
 1653 0128 7B68     		ldr	r3, [r7, #4]
 1654              		.loc 1 872 7
 1655 012a 002B     		cmp	r3, #0
 1656 012c 03D1     		bne	.L103
 873:Middlewares/Third_Party/FreeRTOS/Source/queue.c **** 				{
 874:Middlewares/Third_Party/FreeRTOS/Source/queue.c **** 					/* The queue was full and no block time is specified (or
 875:Middlewares/Third_Party/FreeRTOS/Source/queue.c **** 					the block time has expired) so leave now. */
 876:Middlewares/Third_Party/FreeRTOS/Source/queue.c **** 					taskEXIT_CRITICAL();
 1657              		.loc 1 876 6
 1658 012e FFF7FEFF 		bl	vPortExitCritical
 877:Middlewares/Third_Party/FreeRTOS/Source/queue.c **** 
 878:Middlewares/Third_Party/FreeRTOS/Source/queue.c **** 					/* Return to the original privilege level before exiting
 879:Middlewares/Third_Party/FreeRTOS/Source/queue.c **** 					the function. */
 880:Middlewares/Third_Party/FreeRTOS/Source/queue.c **** 					traceQUEUE_SEND_FAILED( pxQueue );
 881:Middlewares/Third_Party/FreeRTOS/Source/queue.c **** 					return errQUEUE_FULL;
 1659              		.loc 1 881 13
 1660 0132 0023     		movs	r3, #0
ARM GAS  C:\Users\EI\AppData\Local\Temp\cc6xPaa5.s 			page 49


 1661 0134 5CE0     		b	.L110
 1662              	.L103:
 882:Middlewares/Third_Party/FreeRTOS/Source/queue.c **** 				}
 883:Middlewares/Third_Party/FreeRTOS/Source/queue.c **** 				else if( xEntryTimeSet == pdFALSE )
 1663              		.loc 1 883 12
 1664 0136 7B6B     		ldr	r3, [r7, #52]
 1665 0138 002B     		cmp	r3, #0
 1666 013a 06D1     		bne	.L104
 884:Middlewares/Third_Party/FreeRTOS/Source/queue.c **** 				{
 885:Middlewares/Third_Party/FreeRTOS/Source/queue.c **** 					/* The queue was full and a block time was specified so
 886:Middlewares/Third_Party/FreeRTOS/Source/queue.c **** 					configure the timeout structure. */
 887:Middlewares/Third_Party/FreeRTOS/Source/queue.c **** 					vTaskInternalSetTimeOutState( &xTimeOut );
 1667              		.loc 1 887 6
 1668 013c 07F11403 		add	r3, r7, #20
 1669 0140 1846     		mov	r0, r3
 1670 0142 FFF7FEFF 		bl	vTaskInternalSetTimeOutState
 888:Middlewares/Third_Party/FreeRTOS/Source/queue.c **** 					xEntryTimeSet = pdTRUE;
 1671              		.loc 1 888 20
 1672 0146 0123     		movs	r3, #1
 1673 0148 7B63     		str	r3, [r7, #52]
 1674              	.L104:
 889:Middlewares/Third_Party/FreeRTOS/Source/queue.c **** 				}
 890:Middlewares/Third_Party/FreeRTOS/Source/queue.c **** 				else
 891:Middlewares/Third_Party/FreeRTOS/Source/queue.c **** 				{
 892:Middlewares/Third_Party/FreeRTOS/Source/queue.c **** 					/* Entry time was already set. */
 893:Middlewares/Third_Party/FreeRTOS/Source/queue.c **** 					mtCOVERAGE_TEST_MARKER();
 894:Middlewares/Third_Party/FreeRTOS/Source/queue.c **** 				}
 895:Middlewares/Third_Party/FreeRTOS/Source/queue.c **** 			}
 896:Middlewares/Third_Party/FreeRTOS/Source/queue.c **** 		}
 897:Middlewares/Third_Party/FreeRTOS/Source/queue.c **** 		taskEXIT_CRITICAL();
 1675              		.loc 1 897 3
 1676 014a FFF7FEFF 		bl	vPortExitCritical
 898:Middlewares/Third_Party/FreeRTOS/Source/queue.c **** 
 899:Middlewares/Third_Party/FreeRTOS/Source/queue.c **** 		/* Interrupts and other tasks can send to and receive from the queue
 900:Middlewares/Third_Party/FreeRTOS/Source/queue.c **** 		now the critical section has been exited. */
 901:Middlewares/Third_Party/FreeRTOS/Source/queue.c **** 
 902:Middlewares/Third_Party/FreeRTOS/Source/queue.c **** 		vTaskSuspendAll();
 1677              		.loc 1 902 3
 1678 014e FFF7FEFF 		bl	vTaskSuspendAll
 903:Middlewares/Third_Party/FreeRTOS/Source/queue.c **** 		prvLockQueue( pxQueue );
 1679              		.loc 1 903 3
 1680 0152 FFF7FEFF 		bl	vPortEnterCritical
 1681 0156 3B6B     		ldr	r3, [r7, #48]
 1682 0158 93F84430 		ldrb	r3, [r3, #68]
 1683 015c 5BB2     		sxtb	r3, r3
 1684 015e B3F1FF3F 		cmp	r3, #-1
 1685 0162 03D1     		bne	.L105
 1686              		.loc 1 903 3 is_stmt 0 discriminator 1
 1687 0164 3B6B     		ldr	r3, [r7, #48]
 1688 0166 0022     		movs	r2, #0
 1689 0168 83F84420 		strb	r2, [r3, #68]
 1690              	.L105:
 1691              		.loc 1 903 3 discriminator 3
 1692 016c 3B6B     		ldr	r3, [r7, #48]
 1693 016e 93F84530 		ldrb	r3, [r3, #69]
 1694 0172 5BB2     		sxtb	r3, r3
 1695 0174 B3F1FF3F 		cmp	r3, #-1
ARM GAS  C:\Users\EI\AppData\Local\Temp\cc6xPaa5.s 			page 50


 1696 0178 03D1     		bne	.L106
 1697              		.loc 1 903 3 discriminator 4
 1698 017a 3B6B     		ldr	r3, [r7, #48]
 1699 017c 0022     		movs	r2, #0
 1700 017e 83F84520 		strb	r2, [r3, #69]
 1701              	.L106:
 1702              		.loc 1 903 3 discriminator 6
 1703 0182 FFF7FEFF 		bl	vPortExitCritical
 904:Middlewares/Third_Party/FreeRTOS/Source/queue.c **** 
 905:Middlewares/Third_Party/FreeRTOS/Source/queue.c **** 		/* Update the timeout state to see if it has expired yet. */
 906:Middlewares/Third_Party/FreeRTOS/Source/queue.c **** 		if( xTaskCheckForTimeOut( &xTimeOut, &xTicksToWait ) == pdFALSE )
 1704              		.loc 1 906 7 is_stmt 1 discriminator 6
 1705 0186 3A1D     		adds	r2, r7, #4
 1706 0188 07F11403 		add	r3, r7, #20
 1707 018c 1146     		mov	r1, r2
 1708 018e 1846     		mov	r0, r3
 1709 0190 FFF7FEFF 		bl	xTaskCheckForTimeOut
 1710 0194 0346     		mov	r3, r0
 1711              		.loc 1 906 5 discriminator 6
 1712 0196 002B     		cmp	r3, #0
 1713 0198 24D1     		bne	.L107
 907:Middlewares/Third_Party/FreeRTOS/Source/queue.c **** 		{
 908:Middlewares/Third_Party/FreeRTOS/Source/queue.c **** 			if( prvIsQueueFull( pxQueue ) != pdFALSE )
 1714              		.loc 1 908 8
 1715 019a 386B     		ldr	r0, [r7, #48]
 1716 019c FFF7FEFF 		bl	prvIsQueueFull
 1717 01a0 0346     		mov	r3, r0
 1718              		.loc 1 908 6
 1719 01a2 002B     		cmp	r3, #0
 1720 01a4 18D0     		beq	.L108
 909:Middlewares/Third_Party/FreeRTOS/Source/queue.c **** 			{
 910:Middlewares/Third_Party/FreeRTOS/Source/queue.c **** 				traceBLOCKING_ON_QUEUE_SEND( pxQueue );
 911:Middlewares/Third_Party/FreeRTOS/Source/queue.c **** 				vTaskPlaceOnEventList( &( pxQueue->xTasksWaitingToSend ), xTicksToWait );
 1721              		.loc 1 911 5
 1722 01a6 3B6B     		ldr	r3, [r7, #48]
 1723 01a8 1033     		adds	r3, r3, #16
 1724 01aa 7A68     		ldr	r2, [r7, #4]
 1725 01ac 1146     		mov	r1, r2
 1726 01ae 1846     		mov	r0, r3
 1727 01b0 FFF7FEFF 		bl	vTaskPlaceOnEventList
 912:Middlewares/Third_Party/FreeRTOS/Source/queue.c **** 
 913:Middlewares/Third_Party/FreeRTOS/Source/queue.c **** 				/* Unlocking the queue means queue events can effect the
 914:Middlewares/Third_Party/FreeRTOS/Source/queue.c **** 				event list.  It is possible that interrupts occurring now
 915:Middlewares/Third_Party/FreeRTOS/Source/queue.c **** 				remove this task from the event list again - but as the
 916:Middlewares/Third_Party/FreeRTOS/Source/queue.c **** 				scheduler is suspended the task will go onto the pending
 917:Middlewares/Third_Party/FreeRTOS/Source/queue.c **** 				ready last instead of the actual ready list. */
 918:Middlewares/Third_Party/FreeRTOS/Source/queue.c **** 				prvUnlockQueue( pxQueue );
 1728              		.loc 1 918 5
 1729 01b4 386B     		ldr	r0, [r7, #48]
 1730 01b6 FFF7FEFF 		bl	prvUnlockQueue
 919:Middlewares/Third_Party/FreeRTOS/Source/queue.c **** 
 920:Middlewares/Third_Party/FreeRTOS/Source/queue.c **** 				/* Resuming the scheduler will move tasks from the pending
 921:Middlewares/Third_Party/FreeRTOS/Source/queue.c **** 				ready list into the ready list - so it is feasible that this
 922:Middlewares/Third_Party/FreeRTOS/Source/queue.c **** 				task is already in a ready list before it yields - in which
 923:Middlewares/Third_Party/FreeRTOS/Source/queue.c **** 				case the yield will not cause a context switch unless there
 924:Middlewares/Third_Party/FreeRTOS/Source/queue.c **** 				is also a higher priority task in the pending ready list. */
 925:Middlewares/Third_Party/FreeRTOS/Source/queue.c **** 				if( xTaskResumeAll() == pdFALSE )
ARM GAS  C:\Users\EI\AppData\Local\Temp\cc6xPaa5.s 			page 51


 1731              		.loc 1 925 9
 1732 01ba FFF7FEFF 		bl	xTaskResumeAll
 1733 01be 0346     		mov	r3, r0
 1734              		.loc 1 925 7
 1735 01c0 002B     		cmp	r3, #0
 1736 01c2 7FF47CAF 		bne	.L96
 926:Middlewares/Third_Party/FreeRTOS/Source/queue.c **** 				{
 927:Middlewares/Third_Party/FreeRTOS/Source/queue.c **** 					portYIELD_WITHIN_API();
 1737              		.loc 1 927 6
 1738 01c6 0C4B     		ldr	r3, .L111
 1739 01c8 4FF08052 		mov	r2, #268435456
 1740 01cc 1A60     		str	r2, [r3]
 1741              		.syntax unified
 1742              	@ 927 "Middlewares/Third_Party/FreeRTOS/Source/queue.c" 1
 1743 01ce BFF34F8F 		dsb
 1744              	@ 0 "" 2
 1745              	@ 927 "Middlewares/Third_Party/FreeRTOS/Source/queue.c" 1
 1746 01d2 BFF36F8F 		isb
 1747              	@ 0 "" 2
 1748              		.thumb
 1749              		.syntax unified
 1750 01d6 72E7     		b	.L96
 1751              	.L108:
 928:Middlewares/Third_Party/FreeRTOS/Source/queue.c **** 				}
 929:Middlewares/Third_Party/FreeRTOS/Source/queue.c **** 			}
 930:Middlewares/Third_Party/FreeRTOS/Source/queue.c **** 			else
 931:Middlewares/Third_Party/FreeRTOS/Source/queue.c **** 			{
 932:Middlewares/Third_Party/FreeRTOS/Source/queue.c **** 				/* Try again. */
 933:Middlewares/Third_Party/FreeRTOS/Source/queue.c **** 				prvUnlockQueue( pxQueue );
 1752              		.loc 1 933 5
 1753 01d8 386B     		ldr	r0, [r7, #48]
 1754 01da FFF7FEFF 		bl	prvUnlockQueue
 934:Middlewares/Third_Party/FreeRTOS/Source/queue.c **** 				( void ) xTaskResumeAll();
 1755              		.loc 1 934 14
 1756 01de FFF7FEFF 		bl	xTaskResumeAll
 1757 01e2 6CE7     		b	.L96
 1758              	.L107:
 935:Middlewares/Third_Party/FreeRTOS/Source/queue.c **** 			}
 936:Middlewares/Third_Party/FreeRTOS/Source/queue.c **** 		}
 937:Middlewares/Third_Party/FreeRTOS/Source/queue.c **** 		else
 938:Middlewares/Third_Party/FreeRTOS/Source/queue.c **** 		{
 939:Middlewares/Third_Party/FreeRTOS/Source/queue.c **** 			/* The timeout has expired. */
 940:Middlewares/Third_Party/FreeRTOS/Source/queue.c **** 			prvUnlockQueue( pxQueue );
 1759              		.loc 1 940 4
 1760 01e4 386B     		ldr	r0, [r7, #48]
 1761 01e6 FFF7FEFF 		bl	prvUnlockQueue
 941:Middlewares/Third_Party/FreeRTOS/Source/queue.c **** 			( void ) xTaskResumeAll();
 1762              		.loc 1 941 13
 1763 01ea FFF7FEFF 		bl	xTaskResumeAll
 942:Middlewares/Third_Party/FreeRTOS/Source/queue.c **** 
 943:Middlewares/Third_Party/FreeRTOS/Source/queue.c **** 			traceQUEUE_SEND_FAILED( pxQueue );
 944:Middlewares/Third_Party/FreeRTOS/Source/queue.c **** 			return errQUEUE_FULL;
 1764              		.loc 1 944 11
 1765 01ee 0023     		movs	r3, #0
 1766              	.L110:
 945:Middlewares/Third_Party/FreeRTOS/Source/queue.c **** 		}
 946:Middlewares/Third_Party/FreeRTOS/Source/queue.c **** 	} /*lint -restore */
ARM GAS  C:\Users\EI\AppData\Local\Temp\cc6xPaa5.s 			page 52


 947:Middlewares/Third_Party/FreeRTOS/Source/queue.c **** }
 1767              		.loc 1 947 1 discriminator 7
 1768 01f0 1846     		mov	r0, r3
 1769 01f2 3837     		adds	r7, r7, #56
 1770              	.LCFI69:
 1771              		.cfi_def_cfa_offset 8
 1772 01f4 BD46     		mov	sp, r7
 1773              	.LCFI70:
 1774              		.cfi_def_cfa_register 13
 1775              		@ sp needed
 1776 01f6 80BD     		pop	{r7, pc}
 1777              	.L112:
 1778              		.align	2
 1779              	.L111:
 1780 01f8 04ED00E0 		.word	-536810236
 1781              		.cfi_endproc
 1782              	.LFE17:
 1784              		.section	.text.xQueueGenericSendFromISR,"ax",%progbits
 1785              		.align	1
 1786              		.global	xQueueGenericSendFromISR
 1787              		.syntax unified
 1788              		.thumb
 1789              		.thumb_func
 1790              		.fpu fpv4-sp-d16
 1792              	xQueueGenericSendFromISR:
 1793              	.LFB18:
 948:Middlewares/Third_Party/FreeRTOS/Source/queue.c **** /*-----------------------------------------------------------*/
 949:Middlewares/Third_Party/FreeRTOS/Source/queue.c **** 
 950:Middlewares/Third_Party/FreeRTOS/Source/queue.c **** BaseType_t xQueueGenericSendFromISR( QueueHandle_t xQueue, const void * const pvItemToQueue, BaseTy
 951:Middlewares/Third_Party/FreeRTOS/Source/queue.c **** {
 1794              		.loc 1 951 1
 1795              		.cfi_startproc
 1796              		@ args = 0, pretend = 0, frame = 64
 1797              		@ frame_needed = 1, uses_anonymous_args = 0
 1798 0000 80B5     		push	{r7, lr}
 1799              	.LCFI71:
 1800              		.cfi_def_cfa_offset 8
 1801              		.cfi_offset 7, -8
 1802              		.cfi_offset 14, -4
 1803 0002 90B0     		sub	sp, sp, #64
 1804              	.LCFI72:
 1805              		.cfi_def_cfa_offset 72
 1806 0004 00AF     		add	r7, sp, #0
 1807              	.LCFI73:
 1808              		.cfi_def_cfa_register 7
 1809 0006 F860     		str	r0, [r7, #12]
 1810 0008 B960     		str	r1, [r7, #8]
 1811 000a 7A60     		str	r2, [r7, #4]
 1812 000c 3B60     		str	r3, [r7]
 952:Middlewares/Third_Party/FreeRTOS/Source/queue.c **** BaseType_t xReturn;
 953:Middlewares/Third_Party/FreeRTOS/Source/queue.c **** UBaseType_t uxSavedInterruptStatus;
 954:Middlewares/Third_Party/FreeRTOS/Source/queue.c **** Queue_t * const pxQueue = xQueue;
 1813              		.loc 1 954 17
 1814 000e FB68     		ldr	r3, [r7, #12]
 1815 0010 BB63     		str	r3, [r7, #56]
 955:Middlewares/Third_Party/FreeRTOS/Source/queue.c **** 
 956:Middlewares/Third_Party/FreeRTOS/Source/queue.c **** 	configASSERT( pxQueue );
ARM GAS  C:\Users\EI\AppData\Local\Temp\cc6xPaa5.s 			page 53


 1816              		.loc 1 956 2
 1817 0012 BB6B     		ldr	r3, [r7, #56]
 1818 0014 002B     		cmp	r3, #0
 1819 0016 0AD1     		bne	.L114
 1820              	.LBB155:
 1821              	.LBB156:
 195:Middlewares/Third_Party/FreeRTOS/Source/portable/GCC/ARM_CM4F/portmacro.h **** 	(
 1822              		.loc 2 195 2
 1823              		.syntax unified
 1824              	@ 195 "Middlewares/Third_Party/FreeRTOS/Source/portable/GCC/ARM_CM4F/portmacro.h" 1
 1825 0018 4FF05003 			mov r3, #80												
 1826 001c 83F31188 		msr basepri, r3											
 1827 0020 BFF36F8F 		isb														
 1828 0024 BFF34F8F 		dsb														
 1829              	
 1830              	@ 0 "" 2
 1831              		.thumb
 1832              		.syntax unified
 1833 0028 BB62     		str	r3, [r7, #40]
 1834              		.loc 2 203 1
 1835 002a 00BF     		nop
 1836              	.L115:
 1837              	.LBE156:
 1838              	.LBE155:
 1839              		.loc 1 956 2 discriminator 1
 1840 002c FEE7     		b	.L115
 1841              	.L114:
 957:Middlewares/Third_Party/FreeRTOS/Source/queue.c **** 	configASSERT( !( ( pvItemToQueue == NULL ) && ( pxQueue->uxItemSize != ( UBaseType_t ) 0U ) ) );
 1842              		.loc 1 957 2
 1843 002e BB68     		ldr	r3, [r7, #8]
 1844 0030 002B     		cmp	r3, #0
 1845 0032 03D1     		bne	.L116
 1846              		.loc 1 957 2 is_stmt 0 discriminator 2
 1847 0034 BB6B     		ldr	r3, [r7, #56]
 1848 0036 1B6C     		ldr	r3, [r3, #64]
 1849 0038 002B     		cmp	r3, #0
 1850 003a 01D1     		bne	.L117
 1851              	.L116:
 1852              		.loc 1 957 2 discriminator 3
 1853 003c 0123     		movs	r3, #1
 1854 003e 00E0     		b	.L118
 1855              	.L117:
 1856              		.loc 1 957 2 discriminator 4
 1857 0040 0023     		movs	r3, #0
 1858              	.L118:
 1859              		.loc 1 957 2 discriminator 6
 1860 0042 002B     		cmp	r3, #0
 1861 0044 0AD1     		bne	.L119
 1862              	.LBB157:
 1863              	.LBB158:
 195:Middlewares/Third_Party/FreeRTOS/Source/portable/GCC/ARM_CM4F/portmacro.h **** 	(
 1864              		.loc 2 195 2 is_stmt 1
 1865              		.syntax unified
 1866              	@ 195 "Middlewares/Third_Party/FreeRTOS/Source/portable/GCC/ARM_CM4F/portmacro.h" 1
 1867 0046 4FF05003 			mov r3, #80												
 1868 004a 83F31188 		msr basepri, r3											
 1869 004e BFF36F8F 		isb														
ARM GAS  C:\Users\EI\AppData\Local\Temp\cc6xPaa5.s 			page 54


 1870 0052 BFF34F8F 		dsb														
 1871              	
 1872              	@ 0 "" 2
 1873              		.thumb
 1874              		.syntax unified
 1875 0056 7B62     		str	r3, [r7, #36]
 1876              		.loc 2 203 1
 1877 0058 00BF     		nop
 1878              	.L120:
 1879              	.LBE158:
 1880              	.LBE157:
 1881              		.loc 1 957 2 discriminator 2
 1882 005a FEE7     		b	.L120
 1883              	.L119:
 958:Middlewares/Third_Party/FreeRTOS/Source/queue.c **** 	configASSERT( !( ( xCopyPosition == queueOVERWRITE ) && ( pxQueue->uxLength != 1 ) ) );
 1884              		.loc 1 958 2
 1885 005c 3B68     		ldr	r3, [r7]
 1886 005e 022B     		cmp	r3, #2
 1887 0060 03D1     		bne	.L121
 1888              		.loc 1 958 2 is_stmt 0 discriminator 2
 1889 0062 BB6B     		ldr	r3, [r7, #56]
 1890 0064 DB6B     		ldr	r3, [r3, #60]
 1891 0066 012B     		cmp	r3, #1
 1892 0068 01D1     		bne	.L122
 1893              	.L121:
 1894              		.loc 1 958 2 discriminator 3
 1895 006a 0123     		movs	r3, #1
 1896 006c 00E0     		b	.L123
 1897              	.L122:
 1898              		.loc 1 958 2 discriminator 4
 1899 006e 0023     		movs	r3, #0
 1900              	.L123:
 1901              		.loc 1 958 2 discriminator 6
 1902 0070 002B     		cmp	r3, #0
 1903 0072 0AD1     		bne	.L124
 1904              	.LBB159:
 1905              	.LBB160:
 195:Middlewares/Third_Party/FreeRTOS/Source/portable/GCC/ARM_CM4F/portmacro.h **** 	(
 1906              		.loc 2 195 2 is_stmt 1
 1907              		.syntax unified
 1908              	@ 195 "Middlewares/Third_Party/FreeRTOS/Source/portable/GCC/ARM_CM4F/portmacro.h" 1
 1909 0074 4FF05003 			mov r3, #80												
 1910 0078 83F31188 		msr basepri, r3											
 1911 007c BFF36F8F 		isb														
 1912 0080 BFF34F8F 		dsb														
 1913              	
 1914              	@ 0 "" 2
 1915              		.thumb
 1916              		.syntax unified
 1917 0084 3B62     		str	r3, [r7, #32]
 1918              		.loc 2 203 1
 1919 0086 00BF     		nop
 1920              	.L125:
 1921              	.LBE160:
 1922              	.LBE159:
 1923              		.loc 1 958 2 discriminator 3
 1924 0088 FEE7     		b	.L125
ARM GAS  C:\Users\EI\AppData\Local\Temp\cc6xPaa5.s 			page 55


 1925              	.L124:
 959:Middlewares/Third_Party/FreeRTOS/Source/queue.c **** 
 960:Middlewares/Third_Party/FreeRTOS/Source/queue.c **** 	/* RTOS ports that support interrupt nesting have the concept of a maximum
 961:Middlewares/Third_Party/FreeRTOS/Source/queue.c **** 	system call (or maximum API call) interrupt priority.  Interrupts that are
 962:Middlewares/Third_Party/FreeRTOS/Source/queue.c **** 	above the maximum system call priority are kept permanently enabled, even
 963:Middlewares/Third_Party/FreeRTOS/Source/queue.c **** 	when the RTOS kernel is in a critical section, but cannot make any calls to
 964:Middlewares/Third_Party/FreeRTOS/Source/queue.c **** 	FreeRTOS API functions.  If configASSERT() is defined in FreeRTOSConfig.h
 965:Middlewares/Third_Party/FreeRTOS/Source/queue.c **** 	then portASSERT_IF_INTERRUPT_PRIORITY_INVALID() will result in an assertion
 966:Middlewares/Third_Party/FreeRTOS/Source/queue.c **** 	failure if a FreeRTOS API function is called from an interrupt that has been
 967:Middlewares/Third_Party/FreeRTOS/Source/queue.c **** 	assigned a priority above the configured maximum system call priority.
 968:Middlewares/Third_Party/FreeRTOS/Source/queue.c **** 	Only FreeRTOS functions that end in FromISR can be called from interrupts
 969:Middlewares/Third_Party/FreeRTOS/Source/queue.c **** 	that have been assigned a priority at or (logically) below the maximum
 970:Middlewares/Third_Party/FreeRTOS/Source/queue.c **** 	system call	interrupt priority.  FreeRTOS maintains a separate interrupt
 971:Middlewares/Third_Party/FreeRTOS/Source/queue.c **** 	safe API to ensure interrupt entry is as fast and as simple as possible.
 972:Middlewares/Third_Party/FreeRTOS/Source/queue.c **** 	More information (albeit Cortex-M specific) is provided on the following
 973:Middlewares/Third_Party/FreeRTOS/Source/queue.c **** 	link: http://www.freertos.org/RTOS-Cortex-M3-M4.html */
 974:Middlewares/Third_Party/FreeRTOS/Source/queue.c **** 	portASSERT_IF_INTERRUPT_PRIORITY_INVALID();
 1926              		.loc 1 974 2
 1927 008a FFF7FEFF 		bl	vPortValidateInterruptPriority
 1928              	.LBB161:
 1929              	.LBB162:
 204:Middlewares/Third_Party/FreeRTOS/Source/portable/GCC/ARM_CM4F/portmacro.h **** 
 205:Middlewares/Third_Party/FreeRTOS/Source/portable/GCC/ARM_CM4F/portmacro.h **** /*-----------------------------------------------------------*/
 206:Middlewares/Third_Party/FreeRTOS/Source/portable/GCC/ARM_CM4F/portmacro.h **** 
 207:Middlewares/Third_Party/FreeRTOS/Source/portable/GCC/ARM_CM4F/portmacro.h **** portFORCE_INLINE static uint32_t ulPortRaiseBASEPRI( void )
 208:Middlewares/Third_Party/FreeRTOS/Source/portable/GCC/ARM_CM4F/portmacro.h **** {
 209:Middlewares/Third_Party/FreeRTOS/Source/portable/GCC/ARM_CM4F/portmacro.h **** uint32_t ulOriginalBASEPRI, ulNewBASEPRI;
 210:Middlewares/Third_Party/FreeRTOS/Source/portable/GCC/ARM_CM4F/portmacro.h **** 
 211:Middlewares/Third_Party/FreeRTOS/Source/portable/GCC/ARM_CM4F/portmacro.h **** 	__asm volatile
 1930              		.loc 2 211 2
 1931              		.syntax unified
 1932              	@ 211 "Middlewares/Third_Party/FreeRTOS/Source/portable/GCC/ARM_CM4F/portmacro.h" 1
 1933 008e EFF31182 			mrs r2, basepri											
 1934 0092 4FF05003 		mov r3, #80												
 1935 0096 83F31188 		msr basepri, r3											
 1936 009a BFF36F8F 		isb														
 1937 009e BFF34F8F 		dsb														
 1938              	
 1939              	@ 0 "" 2
 1940              		.thumb
 1941              		.syntax unified
 1942 00a2 FA61     		str	r2, [r7, #28]
 1943 00a4 BB61     		str	r3, [r7, #24]
 212:Middlewares/Third_Party/FreeRTOS/Source/portable/GCC/ARM_CM4F/portmacro.h **** 	(
 213:Middlewares/Third_Party/FreeRTOS/Source/portable/GCC/ARM_CM4F/portmacro.h **** 		"	mrs %0, basepri											\n" \
 214:Middlewares/Third_Party/FreeRTOS/Source/portable/GCC/ARM_CM4F/portmacro.h **** 		"	mov %1, %2												\n"	\
 215:Middlewares/Third_Party/FreeRTOS/Source/portable/GCC/ARM_CM4F/portmacro.h **** 		"	msr basepri, %1											\n" \
 216:Middlewares/Third_Party/FreeRTOS/Source/portable/GCC/ARM_CM4F/portmacro.h **** 		"	isb														\n" \
 217:Middlewares/Third_Party/FreeRTOS/Source/portable/GCC/ARM_CM4F/portmacro.h **** 		"	dsb														\n" \
 218:Middlewares/Third_Party/FreeRTOS/Source/portable/GCC/ARM_CM4F/portmacro.h **** 		:"=r" (ulOriginalBASEPRI), "=r" (ulNewBASEPRI) : "i" ( configMAX_SYSCALL_INTERRUPT_PRIORITY ) : "
 219:Middlewares/Third_Party/FreeRTOS/Source/portable/GCC/ARM_CM4F/portmacro.h **** 	);
 220:Middlewares/Third_Party/FreeRTOS/Source/portable/GCC/ARM_CM4F/portmacro.h **** 
 221:Middlewares/Third_Party/FreeRTOS/Source/portable/GCC/ARM_CM4F/portmacro.h **** 	/* This return will not be reached but is necessary to prevent compiler
 222:Middlewares/Third_Party/FreeRTOS/Source/portable/GCC/ARM_CM4F/portmacro.h **** 	warnings. */
 223:Middlewares/Third_Party/FreeRTOS/Source/portable/GCC/ARM_CM4F/portmacro.h **** 	return ulOriginalBASEPRI;
 1944              		.loc 2 223 9
 1945 00a6 FB69     		ldr	r3, [r7, #28]
ARM GAS  C:\Users\EI\AppData\Local\Temp\cc6xPaa5.s 			page 56


 1946              	.LBE162:
 1947              	.LBE161:
 975:Middlewares/Third_Party/FreeRTOS/Source/queue.c **** 
 976:Middlewares/Third_Party/FreeRTOS/Source/queue.c **** 	/* Similar to xQueueGenericSend, except without blocking if there is no room
 977:Middlewares/Third_Party/FreeRTOS/Source/queue.c **** 	in the queue.  Also don't directly wake a task that was blocked on a queue
 978:Middlewares/Third_Party/FreeRTOS/Source/queue.c **** 	read, instead return a flag to say whether a context switch is required or
 979:Middlewares/Third_Party/FreeRTOS/Source/queue.c **** 	not (i.e. has a task with a higher priority than us been woken by this
 980:Middlewares/Third_Party/FreeRTOS/Source/queue.c **** 	post). */
 981:Middlewares/Third_Party/FreeRTOS/Source/queue.c **** 	uxSavedInterruptStatus = portSET_INTERRUPT_MASK_FROM_ISR();
 1948              		.loc 1 981 27
 1949 00a8 7B63     		str	r3, [r7, #52]
 982:Middlewares/Third_Party/FreeRTOS/Source/queue.c **** 	{
 983:Middlewares/Third_Party/FreeRTOS/Source/queue.c **** 		if( ( pxQueue->uxMessagesWaiting < pxQueue->uxLength ) || ( xCopyPosition == queueOVERWRITE ) )
 1950              		.loc 1 983 16
 1951 00aa BB6B     		ldr	r3, [r7, #56]
 1952 00ac 9A6B     		ldr	r2, [r3, #56]
 1953              		.loc 1 983 45
 1954 00ae BB6B     		ldr	r3, [r7, #56]
 1955 00b0 DB6B     		ldr	r3, [r3, #60]
 1956              		.loc 1 983 5
 1957 00b2 9A42     		cmp	r2, r3
 1958 00b4 02D3     		bcc	.L127
 1959              		.loc 1 983 58 discriminator 1
 1960 00b6 3B68     		ldr	r3, [r7]
 1961 00b8 022B     		cmp	r3, #2
 1962 00ba 2FD1     		bne	.L128
 1963              	.L127:
 1964              	.LBB163:
 984:Middlewares/Third_Party/FreeRTOS/Source/queue.c **** 		{
 985:Middlewares/Third_Party/FreeRTOS/Source/queue.c **** 			const int8_t cTxLock = pxQueue->cTxLock;
 1965              		.loc 1 985 17
 1966 00bc BB6B     		ldr	r3, [r7, #56]
 1967 00be 93F84530 		ldrb	r3, [r3, #69]
 1968 00c2 87F83330 		strb	r3, [r7, #51]
 986:Middlewares/Third_Party/FreeRTOS/Source/queue.c **** 			const UBaseType_t uxPreviousMessagesWaiting = pxQueue->uxMessagesWaiting;
 1969              		.loc 1 986 22
 1970 00c6 BB6B     		ldr	r3, [r7, #56]
 1971 00c8 9B6B     		ldr	r3, [r3, #56]
 1972 00ca FB62     		str	r3, [r7, #44]
 987:Middlewares/Third_Party/FreeRTOS/Source/queue.c **** 
 988:Middlewares/Third_Party/FreeRTOS/Source/queue.c **** 			traceQUEUE_SEND_FROM_ISR( pxQueue );
 989:Middlewares/Third_Party/FreeRTOS/Source/queue.c **** 
 990:Middlewares/Third_Party/FreeRTOS/Source/queue.c **** 			/* Semaphores use xQueueGiveFromISR(), so pxQueue will not be a
 991:Middlewares/Third_Party/FreeRTOS/Source/queue.c **** 			semaphore or mutex.  That means prvCopyDataToQueue() cannot result
 992:Middlewares/Third_Party/FreeRTOS/Source/queue.c **** 			in a task disinheriting a priority and prvCopyDataToQueue() can be
 993:Middlewares/Third_Party/FreeRTOS/Source/queue.c **** 			called here even though the disinherit function does not check if
 994:Middlewares/Third_Party/FreeRTOS/Source/queue.c **** 			the scheduler is suspended before accessing the ready lists. */
 995:Middlewares/Third_Party/FreeRTOS/Source/queue.c **** 			( void ) prvCopyDataToQueue( pxQueue, pvItemToQueue, xCopyPosition );
 1973              		.loc 1 995 13
 1974 00cc 3A68     		ldr	r2, [r7]
 1975 00ce B968     		ldr	r1, [r7, #8]
 1976 00d0 B86B     		ldr	r0, [r7, #56]
 1977 00d2 FFF7FEFF 		bl	prvCopyDataToQueue
 996:Middlewares/Third_Party/FreeRTOS/Source/queue.c **** 
 997:Middlewares/Third_Party/FreeRTOS/Source/queue.c **** 			/* The event list is not altered if the queue is locked.  This will
 998:Middlewares/Third_Party/FreeRTOS/Source/queue.c **** 			be done when the queue is unlocked later. */
 999:Middlewares/Third_Party/FreeRTOS/Source/queue.c **** 			if( cTxLock == queueUNLOCKED )
ARM GAS  C:\Users\EI\AppData\Local\Temp\cc6xPaa5.s 			page 57


 1978              		.loc 1 999 6
 1979 00d6 97F93330 		ldrsb	r3, [r7, #51]
 1980 00da B3F1FF3F 		cmp	r3, #-1
 1981 00de 12D1     		bne	.L129
1000:Middlewares/Third_Party/FreeRTOS/Source/queue.c **** 			{
1001:Middlewares/Third_Party/FreeRTOS/Source/queue.c **** 				#if ( configUSE_QUEUE_SETS == 1 )
1002:Middlewares/Third_Party/FreeRTOS/Source/queue.c **** 				{
1003:Middlewares/Third_Party/FreeRTOS/Source/queue.c **** 					if( pxQueue->pxQueueSetContainer != NULL )
1004:Middlewares/Third_Party/FreeRTOS/Source/queue.c **** 					{
1005:Middlewares/Third_Party/FreeRTOS/Source/queue.c **** 						if( ( xCopyPosition == queueOVERWRITE ) && ( uxPreviousMessagesWaiting != ( UBaseType_t ) 0 )
1006:Middlewares/Third_Party/FreeRTOS/Source/queue.c **** 						{
1007:Middlewares/Third_Party/FreeRTOS/Source/queue.c **** 							/* Do not notify the queue set as an existing item
1008:Middlewares/Third_Party/FreeRTOS/Source/queue.c **** 							was overwritten in the queue so the number of items
1009:Middlewares/Third_Party/FreeRTOS/Source/queue.c **** 							in the queue has not changed. */
1010:Middlewares/Third_Party/FreeRTOS/Source/queue.c **** 							mtCOVERAGE_TEST_MARKER();
1011:Middlewares/Third_Party/FreeRTOS/Source/queue.c **** 						}
1012:Middlewares/Third_Party/FreeRTOS/Source/queue.c **** 						else if( prvNotifyQueueSetContainer( pxQueue ) != pdFALSE )
1013:Middlewares/Third_Party/FreeRTOS/Source/queue.c **** 						{
1014:Middlewares/Third_Party/FreeRTOS/Source/queue.c **** 							/* The queue is a member of a queue set, and posting
1015:Middlewares/Third_Party/FreeRTOS/Source/queue.c **** 							to the queue set caused a higher priority task to
1016:Middlewares/Third_Party/FreeRTOS/Source/queue.c **** 							unblock.  A context switch is required. */
1017:Middlewares/Third_Party/FreeRTOS/Source/queue.c **** 							if( pxHigherPriorityTaskWoken != NULL )
1018:Middlewares/Third_Party/FreeRTOS/Source/queue.c **** 							{
1019:Middlewares/Third_Party/FreeRTOS/Source/queue.c **** 								*pxHigherPriorityTaskWoken = pdTRUE;
1020:Middlewares/Third_Party/FreeRTOS/Source/queue.c **** 							}
1021:Middlewares/Third_Party/FreeRTOS/Source/queue.c **** 							else
1022:Middlewares/Third_Party/FreeRTOS/Source/queue.c **** 							{
1023:Middlewares/Third_Party/FreeRTOS/Source/queue.c **** 								mtCOVERAGE_TEST_MARKER();
1024:Middlewares/Third_Party/FreeRTOS/Source/queue.c **** 							}
1025:Middlewares/Third_Party/FreeRTOS/Source/queue.c **** 						}
1026:Middlewares/Third_Party/FreeRTOS/Source/queue.c **** 						else
1027:Middlewares/Third_Party/FreeRTOS/Source/queue.c **** 						{
1028:Middlewares/Third_Party/FreeRTOS/Source/queue.c **** 							mtCOVERAGE_TEST_MARKER();
1029:Middlewares/Third_Party/FreeRTOS/Source/queue.c **** 						}
1030:Middlewares/Third_Party/FreeRTOS/Source/queue.c **** 					}
1031:Middlewares/Third_Party/FreeRTOS/Source/queue.c **** 					else
1032:Middlewares/Third_Party/FreeRTOS/Source/queue.c **** 					{
1033:Middlewares/Third_Party/FreeRTOS/Source/queue.c **** 						if( listLIST_IS_EMPTY( &( pxQueue->xTasksWaitingToReceive ) ) == pdFALSE )
1034:Middlewares/Third_Party/FreeRTOS/Source/queue.c **** 						{
1035:Middlewares/Third_Party/FreeRTOS/Source/queue.c **** 							if( xTaskRemoveFromEventList( &( pxQueue->xTasksWaitingToReceive ) ) != pdFALSE )
1036:Middlewares/Third_Party/FreeRTOS/Source/queue.c **** 							{
1037:Middlewares/Third_Party/FreeRTOS/Source/queue.c **** 								/* The task waiting has a higher priority so
1038:Middlewares/Third_Party/FreeRTOS/Source/queue.c **** 								record that a context switch is required. */
1039:Middlewares/Third_Party/FreeRTOS/Source/queue.c **** 								if( pxHigherPriorityTaskWoken != NULL )
1040:Middlewares/Third_Party/FreeRTOS/Source/queue.c **** 								{
1041:Middlewares/Third_Party/FreeRTOS/Source/queue.c **** 									*pxHigherPriorityTaskWoken = pdTRUE;
1042:Middlewares/Third_Party/FreeRTOS/Source/queue.c **** 								}
1043:Middlewares/Third_Party/FreeRTOS/Source/queue.c **** 								else
1044:Middlewares/Third_Party/FreeRTOS/Source/queue.c **** 								{
1045:Middlewares/Third_Party/FreeRTOS/Source/queue.c **** 									mtCOVERAGE_TEST_MARKER();
1046:Middlewares/Third_Party/FreeRTOS/Source/queue.c **** 								}
1047:Middlewares/Third_Party/FreeRTOS/Source/queue.c **** 							}
1048:Middlewares/Third_Party/FreeRTOS/Source/queue.c **** 							else
1049:Middlewares/Third_Party/FreeRTOS/Source/queue.c **** 							{
1050:Middlewares/Third_Party/FreeRTOS/Source/queue.c **** 								mtCOVERAGE_TEST_MARKER();
1051:Middlewares/Third_Party/FreeRTOS/Source/queue.c **** 							}
1052:Middlewares/Third_Party/FreeRTOS/Source/queue.c **** 						}
ARM GAS  C:\Users\EI\AppData\Local\Temp\cc6xPaa5.s 			page 58


1053:Middlewares/Third_Party/FreeRTOS/Source/queue.c **** 						else
1054:Middlewares/Third_Party/FreeRTOS/Source/queue.c **** 						{
1055:Middlewares/Third_Party/FreeRTOS/Source/queue.c **** 							mtCOVERAGE_TEST_MARKER();
1056:Middlewares/Third_Party/FreeRTOS/Source/queue.c **** 						}
1057:Middlewares/Third_Party/FreeRTOS/Source/queue.c **** 					}
1058:Middlewares/Third_Party/FreeRTOS/Source/queue.c **** 				}
1059:Middlewares/Third_Party/FreeRTOS/Source/queue.c **** 				#else /* configUSE_QUEUE_SETS */
1060:Middlewares/Third_Party/FreeRTOS/Source/queue.c **** 				{
1061:Middlewares/Third_Party/FreeRTOS/Source/queue.c **** 					if( listLIST_IS_EMPTY( &( pxQueue->xTasksWaitingToReceive ) ) == pdFALSE )
 1982              		.loc 1 1061 10
 1983 00e0 BB6B     		ldr	r3, [r7, #56]
 1984 00e2 5B6A     		ldr	r3, [r3, #36]
 1985              		.loc 1 1061 8
 1986 00e4 002B     		cmp	r3, #0
 1987 00e6 16D0     		beq	.L130
1062:Middlewares/Third_Party/FreeRTOS/Source/queue.c **** 					{
1063:Middlewares/Third_Party/FreeRTOS/Source/queue.c **** 						if( xTaskRemoveFromEventList( &( pxQueue->xTasksWaitingToReceive ) ) != pdFALSE )
 1988              		.loc 1 1063 37
 1989 00e8 BB6B     		ldr	r3, [r7, #56]
 1990 00ea 2433     		adds	r3, r3, #36
 1991              		.loc 1 1063 11
 1992 00ec 1846     		mov	r0, r3
 1993 00ee FFF7FEFF 		bl	xTaskRemoveFromEventList
 1994 00f2 0346     		mov	r3, r0
 1995              		.loc 1 1063 9
 1996 00f4 002B     		cmp	r3, #0
 1997 00f6 0ED0     		beq	.L130
1064:Middlewares/Third_Party/FreeRTOS/Source/queue.c **** 						{
1065:Middlewares/Third_Party/FreeRTOS/Source/queue.c **** 							/* The task waiting has a higher priority so record that a
1066:Middlewares/Third_Party/FreeRTOS/Source/queue.c **** 							context	switch is required. */
1067:Middlewares/Third_Party/FreeRTOS/Source/queue.c **** 							if( pxHigherPriorityTaskWoken != NULL )
 1998              		.loc 1 1067 10
 1999 00f8 7B68     		ldr	r3, [r7, #4]
 2000 00fa 002B     		cmp	r3, #0
 2001 00fc 0BD0     		beq	.L130
1068:Middlewares/Third_Party/FreeRTOS/Source/queue.c **** 							{
1069:Middlewares/Third_Party/FreeRTOS/Source/queue.c **** 								*pxHigherPriorityTaskWoken = pdTRUE;
 2002              		.loc 1 1069 36
 2003 00fe 7B68     		ldr	r3, [r7, #4]
 2004 0100 0122     		movs	r2, #1
 2005 0102 1A60     		str	r2, [r3]
 2006 0104 07E0     		b	.L130
 2007              	.L129:
1070:Middlewares/Third_Party/FreeRTOS/Source/queue.c **** 							}
1071:Middlewares/Third_Party/FreeRTOS/Source/queue.c **** 							else
1072:Middlewares/Third_Party/FreeRTOS/Source/queue.c **** 							{
1073:Middlewares/Third_Party/FreeRTOS/Source/queue.c **** 								mtCOVERAGE_TEST_MARKER();
1074:Middlewares/Third_Party/FreeRTOS/Source/queue.c **** 							}
1075:Middlewares/Third_Party/FreeRTOS/Source/queue.c **** 						}
1076:Middlewares/Third_Party/FreeRTOS/Source/queue.c **** 						else
1077:Middlewares/Third_Party/FreeRTOS/Source/queue.c **** 						{
1078:Middlewares/Third_Party/FreeRTOS/Source/queue.c **** 							mtCOVERAGE_TEST_MARKER();
1079:Middlewares/Third_Party/FreeRTOS/Source/queue.c **** 						}
1080:Middlewares/Third_Party/FreeRTOS/Source/queue.c **** 					}
1081:Middlewares/Third_Party/FreeRTOS/Source/queue.c **** 					else
1082:Middlewares/Third_Party/FreeRTOS/Source/queue.c **** 					{
1083:Middlewares/Third_Party/FreeRTOS/Source/queue.c **** 						mtCOVERAGE_TEST_MARKER();
ARM GAS  C:\Users\EI\AppData\Local\Temp\cc6xPaa5.s 			page 59


1084:Middlewares/Third_Party/FreeRTOS/Source/queue.c **** 					}
1085:Middlewares/Third_Party/FreeRTOS/Source/queue.c **** 					
1086:Middlewares/Third_Party/FreeRTOS/Source/queue.c **** 					/* Not used in this path. */
1087:Middlewares/Third_Party/FreeRTOS/Source/queue.c **** 					( void ) uxPreviousMessagesWaiting;
1088:Middlewares/Third_Party/FreeRTOS/Source/queue.c **** 				}
1089:Middlewares/Third_Party/FreeRTOS/Source/queue.c **** 				#endif /* configUSE_QUEUE_SETS */
1090:Middlewares/Third_Party/FreeRTOS/Source/queue.c **** 			}
1091:Middlewares/Third_Party/FreeRTOS/Source/queue.c **** 			else
1092:Middlewares/Third_Party/FreeRTOS/Source/queue.c **** 			{
1093:Middlewares/Third_Party/FreeRTOS/Source/queue.c **** 				/* Increment the lock count so the task that unlocks the queue
1094:Middlewares/Third_Party/FreeRTOS/Source/queue.c **** 				knows that data was posted while it was locked. */
1095:Middlewares/Third_Party/FreeRTOS/Source/queue.c **** 				pxQueue->cTxLock = ( int8_t ) ( cTxLock + 1 );
 2008              		.loc 1 1095 45
 2009 0106 97F83330 		ldrb	r3, [r7, #51]	@ zero_extendqisi2
 2010 010a 0133     		adds	r3, r3, #1
 2011 010c DBB2     		uxtb	r3, r3
 2012              		.loc 1 1095 24
 2013 010e 5AB2     		sxtb	r2, r3
 2014              		.loc 1 1095 22
 2015 0110 BB6B     		ldr	r3, [r7, #56]
 2016 0112 83F84520 		strb	r2, [r3, #69]
 2017              	.L130:
1096:Middlewares/Third_Party/FreeRTOS/Source/queue.c **** 			}
1097:Middlewares/Third_Party/FreeRTOS/Source/queue.c **** 
1098:Middlewares/Third_Party/FreeRTOS/Source/queue.c **** 			xReturn = pdPASS;
 2018              		.loc 1 1098 12
 2019 0116 0123     		movs	r3, #1
 2020 0118 FB63     		str	r3, [r7, #60]
 2021              	.LBE163:
 984:Middlewares/Third_Party/FreeRTOS/Source/queue.c **** 			const int8_t cTxLock = pxQueue->cTxLock;
 2022              		.loc 1 984 3
 2023 011a 01E0     		b	.L131
 2024              	.L128:
1099:Middlewares/Third_Party/FreeRTOS/Source/queue.c **** 		}
1100:Middlewares/Third_Party/FreeRTOS/Source/queue.c **** 		else
1101:Middlewares/Third_Party/FreeRTOS/Source/queue.c **** 		{
1102:Middlewares/Third_Party/FreeRTOS/Source/queue.c **** 			traceQUEUE_SEND_FROM_ISR_FAILED( pxQueue );
1103:Middlewares/Third_Party/FreeRTOS/Source/queue.c **** 			xReturn = errQUEUE_FULL;
 2025              		.loc 1 1103 12
 2026 011c 0023     		movs	r3, #0
 2027 011e FB63     		str	r3, [r7, #60]
 2028              	.L131:
 2029 0120 7B6B     		ldr	r3, [r7, #52]
 2030 0122 7B61     		str	r3, [r7, #20]
 2031              	.LBB164:
 2032              	.LBB165:
 224:Middlewares/Third_Party/FreeRTOS/Source/portable/GCC/ARM_CM4F/portmacro.h **** }
 225:Middlewares/Third_Party/FreeRTOS/Source/portable/GCC/ARM_CM4F/portmacro.h **** /*-----------------------------------------------------------*/
 226:Middlewares/Third_Party/FreeRTOS/Source/portable/GCC/ARM_CM4F/portmacro.h **** 
 227:Middlewares/Third_Party/FreeRTOS/Source/portable/GCC/ARM_CM4F/portmacro.h **** portFORCE_INLINE static void vPortSetBASEPRI( uint32_t ulNewMaskValue )
 228:Middlewares/Third_Party/FreeRTOS/Source/portable/GCC/ARM_CM4F/portmacro.h **** {
 229:Middlewares/Third_Party/FreeRTOS/Source/portable/GCC/ARM_CM4F/portmacro.h **** 	__asm volatile
 2033              		.loc 2 229 2
 2034 0124 7B69     		ldr	r3, [r7, #20]
 2035              		.syntax unified
 2036              	@ 229 "Middlewares/Third_Party/FreeRTOS/Source/portable/GCC/ARM_CM4F/portmacro.h" 1
 2037 0126 83F31188 			msr basepri, r3	
ARM GAS  C:\Users\EI\AppData\Local\Temp\cc6xPaa5.s 			page 60


 2038              	@ 0 "" 2
 230:Middlewares/Third_Party/FreeRTOS/Source/portable/GCC/ARM_CM4F/portmacro.h **** 	(
 231:Middlewares/Third_Party/FreeRTOS/Source/portable/GCC/ARM_CM4F/portmacro.h **** 		"	msr basepri, %0	" :: "r" ( ulNewMaskValue ) : "memory"
 232:Middlewares/Third_Party/FreeRTOS/Source/portable/GCC/ARM_CM4F/portmacro.h **** 	);
 233:Middlewares/Third_Party/FreeRTOS/Source/portable/GCC/ARM_CM4F/portmacro.h **** }
 2039              		.loc 2 233 1
 2040              		.thumb
 2041              		.syntax unified
 2042 012a 00BF     		nop
 2043              	.LBE165:
 2044              	.LBE164:
1104:Middlewares/Third_Party/FreeRTOS/Source/queue.c **** 		}
1105:Middlewares/Third_Party/FreeRTOS/Source/queue.c **** 	}
1106:Middlewares/Third_Party/FreeRTOS/Source/queue.c **** 	portCLEAR_INTERRUPT_MASK_FROM_ISR( uxSavedInterruptStatus );
1107:Middlewares/Third_Party/FreeRTOS/Source/queue.c **** 
1108:Middlewares/Third_Party/FreeRTOS/Source/queue.c **** 	return xReturn;
 2045              		.loc 1 1108 9
 2046 012c FB6B     		ldr	r3, [r7, #60]
1109:Middlewares/Third_Party/FreeRTOS/Source/queue.c **** }
 2047              		.loc 1 1109 1
 2048 012e 1846     		mov	r0, r3
 2049 0130 4037     		adds	r7, r7, #64
 2050              	.LCFI74:
 2051              		.cfi_def_cfa_offset 8
 2052 0132 BD46     		mov	sp, r7
 2053              	.LCFI75:
 2054              		.cfi_def_cfa_register 13
 2055              		@ sp needed
 2056 0134 80BD     		pop	{r7, pc}
 2057              		.cfi_endproc
 2058              	.LFE18:
 2060              		.section	.text.xQueueGiveFromISR,"ax",%progbits
 2061              		.align	1
 2062              		.global	xQueueGiveFromISR
 2063              		.syntax unified
 2064              		.thumb
 2065              		.thumb_func
 2066              		.fpu fpv4-sp-d16
 2068              	xQueueGiveFromISR:
 2069              	.LFB19:
1110:Middlewares/Third_Party/FreeRTOS/Source/queue.c **** /*-----------------------------------------------------------*/
1111:Middlewares/Third_Party/FreeRTOS/Source/queue.c **** 
1112:Middlewares/Third_Party/FreeRTOS/Source/queue.c **** BaseType_t xQueueGiveFromISR( QueueHandle_t xQueue, BaseType_t * const pxHigherPriorityTaskWoken )
1113:Middlewares/Third_Party/FreeRTOS/Source/queue.c **** {
 2070              		.loc 1 1113 1
 2071              		.cfi_startproc
 2072              		@ args = 0, pretend = 0, frame = 56
 2073              		@ frame_needed = 1, uses_anonymous_args = 0
 2074 0000 80B5     		push	{r7, lr}
 2075              	.LCFI76:
 2076              		.cfi_def_cfa_offset 8
 2077              		.cfi_offset 7, -8
 2078              		.cfi_offset 14, -4
 2079 0002 8EB0     		sub	sp, sp, #56
 2080              	.LCFI77:
 2081              		.cfi_def_cfa_offset 64
 2082 0004 00AF     		add	r7, sp, #0
ARM GAS  C:\Users\EI\AppData\Local\Temp\cc6xPaa5.s 			page 61


 2083              	.LCFI78:
 2084              		.cfi_def_cfa_register 7
 2085 0006 7860     		str	r0, [r7, #4]
 2086 0008 3960     		str	r1, [r7]
1114:Middlewares/Third_Party/FreeRTOS/Source/queue.c **** BaseType_t xReturn;
1115:Middlewares/Third_Party/FreeRTOS/Source/queue.c **** UBaseType_t uxSavedInterruptStatus;
1116:Middlewares/Third_Party/FreeRTOS/Source/queue.c **** Queue_t * const pxQueue = xQueue;
 2087              		.loc 1 1116 17
 2088 000a 7B68     		ldr	r3, [r7, #4]
 2089 000c 3B63     		str	r3, [r7, #48]
1117:Middlewares/Third_Party/FreeRTOS/Source/queue.c **** 
1118:Middlewares/Third_Party/FreeRTOS/Source/queue.c **** 	/* Similar to xQueueGenericSendFromISR() but used with semaphores where the
1119:Middlewares/Third_Party/FreeRTOS/Source/queue.c **** 	item size is 0.  Don't directly wake a task that was blocked on a queue
1120:Middlewares/Third_Party/FreeRTOS/Source/queue.c **** 	read, instead return a flag to say whether a context switch is required or
1121:Middlewares/Third_Party/FreeRTOS/Source/queue.c **** 	not (i.e. has a task with a higher priority than us been woken by this
1122:Middlewares/Third_Party/FreeRTOS/Source/queue.c **** 	post). */
1123:Middlewares/Third_Party/FreeRTOS/Source/queue.c **** 
1124:Middlewares/Third_Party/FreeRTOS/Source/queue.c **** 	configASSERT( pxQueue );
 2090              		.loc 1 1124 2
 2091 000e 3B6B     		ldr	r3, [r7, #48]
 2092 0010 002B     		cmp	r3, #0
 2093 0012 0AD1     		bne	.L134
 2094              	.LBB166:
 2095              	.LBB167:
 195:Middlewares/Third_Party/FreeRTOS/Source/portable/GCC/ARM_CM4F/portmacro.h **** 	(
 2096              		.loc 2 195 2
 2097              		.syntax unified
 2098              	@ 195 "Middlewares/Third_Party/FreeRTOS/Source/portable/GCC/ARM_CM4F/portmacro.h" 1
 2099 0014 4FF05003 			mov r3, #80												
 2100 0018 83F31188 		msr basepri, r3											
 2101 001c BFF36F8F 		isb														
 2102 0020 BFF34F8F 		dsb														
 2103              	
 2104              	@ 0 "" 2
 2105              		.thumb
 2106              		.syntax unified
 2107 0024 3B62     		str	r3, [r7, #32]
 203:Middlewares/Third_Party/FreeRTOS/Source/portable/GCC/ARM_CM4F/portmacro.h **** 
 2108              		.loc 2 203 1
 2109 0026 00BF     		nop
 2110              	.L135:
 2111              	.LBE167:
 2112              	.LBE166:
 2113              		.loc 1 1124 2 discriminator 1
 2114 0028 FEE7     		b	.L135
 2115              	.L134:
1125:Middlewares/Third_Party/FreeRTOS/Source/queue.c **** 
1126:Middlewares/Third_Party/FreeRTOS/Source/queue.c **** 	/* xQueueGenericSendFromISR() should be used instead of xQueueGiveFromISR()
1127:Middlewares/Third_Party/FreeRTOS/Source/queue.c **** 	if the item size is not 0. */
1128:Middlewares/Third_Party/FreeRTOS/Source/queue.c **** 	configASSERT( pxQueue->uxItemSize == 0 );
 2116              		.loc 1 1128 2
 2117 002a 3B6B     		ldr	r3, [r7, #48]
 2118 002c 1B6C     		ldr	r3, [r3, #64]
 2119 002e 002B     		cmp	r3, #0
 2120 0030 0AD0     		beq	.L136
 2121              	.LBB168:
 2122              	.LBB169:
ARM GAS  C:\Users\EI\AppData\Local\Temp\cc6xPaa5.s 			page 62


 195:Middlewares/Third_Party/FreeRTOS/Source/portable/GCC/ARM_CM4F/portmacro.h **** 	(
 2123              		.loc 2 195 2
 2124              		.syntax unified
 2125              	@ 195 "Middlewares/Third_Party/FreeRTOS/Source/portable/GCC/ARM_CM4F/portmacro.h" 1
 2126 0032 4FF05003 			mov r3, #80												
 2127 0036 83F31188 		msr basepri, r3											
 2128 003a BFF36F8F 		isb														
 2129 003e BFF34F8F 		dsb														
 2130              	
 2131              	@ 0 "" 2
 2132              		.thumb
 2133              		.syntax unified
 2134 0042 FB61     		str	r3, [r7, #28]
 203:Middlewares/Third_Party/FreeRTOS/Source/portable/GCC/ARM_CM4F/portmacro.h **** 
 2135              		.loc 2 203 1
 2136 0044 00BF     		nop
 2137              	.L137:
 2138              	.LBE169:
 2139              	.LBE168:
 2140              		.loc 1 1128 2 discriminator 2
 2141 0046 FEE7     		b	.L137
 2142              	.L136:
1129:Middlewares/Third_Party/FreeRTOS/Source/queue.c **** 
1130:Middlewares/Third_Party/FreeRTOS/Source/queue.c **** 	/* Normally a mutex would not be given from an interrupt, especially if
1131:Middlewares/Third_Party/FreeRTOS/Source/queue.c **** 	there is a mutex holder, as priority inheritance makes no sense for an
1132:Middlewares/Third_Party/FreeRTOS/Source/queue.c **** 	interrupts, only tasks. */
1133:Middlewares/Third_Party/FreeRTOS/Source/queue.c **** 	configASSERT( !( ( pxQueue->uxQueueType == queueQUEUE_IS_MUTEX ) && ( pxQueue->u.xSemaphore.xMutex
 2143              		.loc 1 1133 2
 2144 0048 3B6B     		ldr	r3, [r7, #48]
 2145 004a 1B68     		ldr	r3, [r3]
 2146 004c 002B     		cmp	r3, #0
 2147 004e 03D1     		bne	.L138
 2148              		.loc 1 1133 2 is_stmt 0 discriminator 2
 2149 0050 3B6B     		ldr	r3, [r7, #48]
 2150 0052 9B68     		ldr	r3, [r3, #8]
 2151 0054 002B     		cmp	r3, #0
 2152 0056 01D1     		bne	.L139
 2153              	.L138:
 2154              		.loc 1 1133 2 discriminator 3
 2155 0058 0123     		movs	r3, #1
 2156 005a 00E0     		b	.L140
 2157              	.L139:
 2158              		.loc 1 1133 2 discriminator 4
 2159 005c 0023     		movs	r3, #0
 2160              	.L140:
 2161              		.loc 1 1133 2 discriminator 6
 2162 005e 002B     		cmp	r3, #0
 2163 0060 0AD1     		bne	.L141
 2164              	.LBB170:
 2165              	.LBB171:
 195:Middlewares/Third_Party/FreeRTOS/Source/portable/GCC/ARM_CM4F/portmacro.h **** 	(
 2166              		.loc 2 195 2 is_stmt 1
 2167              		.syntax unified
 2168              	@ 195 "Middlewares/Third_Party/FreeRTOS/Source/portable/GCC/ARM_CM4F/portmacro.h" 1
 2169 0062 4FF05003 			mov r3, #80												
 2170 0066 83F31188 		msr basepri, r3											
 2171 006a BFF36F8F 		isb														
ARM GAS  C:\Users\EI\AppData\Local\Temp\cc6xPaa5.s 			page 63


 2172 006e BFF34F8F 		dsb														
 2173              	
 2174              	@ 0 "" 2
 2175              		.thumb
 2176              		.syntax unified
 2177 0072 BB61     		str	r3, [r7, #24]
 203:Middlewares/Third_Party/FreeRTOS/Source/portable/GCC/ARM_CM4F/portmacro.h **** 
 2178              		.loc 2 203 1
 2179 0074 00BF     		nop
 2180              	.L142:
 2181              	.LBE171:
 2182              	.LBE170:
 2183              		.loc 1 1133 2 discriminator 3
 2184 0076 FEE7     		b	.L142
 2185              	.L141:
1134:Middlewares/Third_Party/FreeRTOS/Source/queue.c **** 
1135:Middlewares/Third_Party/FreeRTOS/Source/queue.c **** 	/* RTOS ports that support interrupt nesting have the concept of a maximum
1136:Middlewares/Third_Party/FreeRTOS/Source/queue.c **** 	system call (or maximum API call) interrupt priority.  Interrupts that are
1137:Middlewares/Third_Party/FreeRTOS/Source/queue.c **** 	above the maximum system call priority are kept permanently enabled, even
1138:Middlewares/Third_Party/FreeRTOS/Source/queue.c **** 	when the RTOS kernel is in a critical section, but cannot make any calls to
1139:Middlewares/Third_Party/FreeRTOS/Source/queue.c **** 	FreeRTOS API functions.  If configASSERT() is defined in FreeRTOSConfig.h
1140:Middlewares/Third_Party/FreeRTOS/Source/queue.c **** 	then portASSERT_IF_INTERRUPT_PRIORITY_INVALID() will result in an assertion
1141:Middlewares/Third_Party/FreeRTOS/Source/queue.c **** 	failure if a FreeRTOS API function is called from an interrupt that has been
1142:Middlewares/Third_Party/FreeRTOS/Source/queue.c **** 	assigned a priority above the configured maximum system call priority.
1143:Middlewares/Third_Party/FreeRTOS/Source/queue.c **** 	Only FreeRTOS functions that end in FromISR can be called from interrupts
1144:Middlewares/Third_Party/FreeRTOS/Source/queue.c **** 	that have been assigned a priority at or (logically) below the maximum
1145:Middlewares/Third_Party/FreeRTOS/Source/queue.c **** 	system call	interrupt priority.  FreeRTOS maintains a separate interrupt
1146:Middlewares/Third_Party/FreeRTOS/Source/queue.c **** 	safe API to ensure interrupt entry is as fast and as simple as possible.
1147:Middlewares/Third_Party/FreeRTOS/Source/queue.c **** 	More information (albeit Cortex-M specific) is provided on the following
1148:Middlewares/Third_Party/FreeRTOS/Source/queue.c **** 	link: http://www.freertos.org/RTOS-Cortex-M3-M4.html */
1149:Middlewares/Third_Party/FreeRTOS/Source/queue.c **** 	portASSERT_IF_INTERRUPT_PRIORITY_INVALID();
 2186              		.loc 1 1149 2
 2187 0078 FFF7FEFF 		bl	vPortValidateInterruptPriority
 2188              	.LBB172:
 2189              	.LBB173:
 211:Middlewares/Third_Party/FreeRTOS/Source/portable/GCC/ARM_CM4F/portmacro.h **** 	(
 2190              		.loc 2 211 2
 2191              		.syntax unified
 2192              	@ 211 "Middlewares/Third_Party/FreeRTOS/Source/portable/GCC/ARM_CM4F/portmacro.h" 1
 2193 007c EFF31182 			mrs r2, basepri											
 2194 0080 4FF05003 		mov r3, #80												
 2195 0084 83F31188 		msr basepri, r3											
 2196 0088 BFF36F8F 		isb														
 2197 008c BFF34F8F 		dsb														
 2198              	
 2199              	@ 0 "" 2
 2200              		.thumb
 2201              		.syntax unified
 2202 0090 7A61     		str	r2, [r7, #20]
 2203 0092 3B61     		str	r3, [r7, #16]
 223:Middlewares/Third_Party/FreeRTOS/Source/portable/GCC/ARM_CM4F/portmacro.h **** }
 2204              		.loc 2 223 9
 2205 0094 7B69     		ldr	r3, [r7, #20]
 2206              	.LBE173:
 2207              	.LBE172:
1150:Middlewares/Third_Party/FreeRTOS/Source/queue.c **** 
1151:Middlewares/Third_Party/FreeRTOS/Source/queue.c **** 	uxSavedInterruptStatus = portSET_INTERRUPT_MASK_FROM_ISR();
ARM GAS  C:\Users\EI\AppData\Local\Temp\cc6xPaa5.s 			page 64


 2208              		.loc 1 1151 27
 2209 0096 FB62     		str	r3, [r7, #44]
 2210              	.LBB174:
1152:Middlewares/Third_Party/FreeRTOS/Source/queue.c **** 	{
1153:Middlewares/Third_Party/FreeRTOS/Source/queue.c **** 		const UBaseType_t uxMessagesWaiting = pxQueue->uxMessagesWaiting;
 2211              		.loc 1 1153 21
 2212 0098 3B6B     		ldr	r3, [r7, #48]
 2213 009a 9B6B     		ldr	r3, [r3, #56]
 2214 009c BB62     		str	r3, [r7, #40]
1154:Middlewares/Third_Party/FreeRTOS/Source/queue.c **** 
1155:Middlewares/Third_Party/FreeRTOS/Source/queue.c **** 		/* When the queue is used to implement a semaphore no data is ever
1156:Middlewares/Third_Party/FreeRTOS/Source/queue.c **** 		moved through the queue but it is still valid to see if the queue 'has
1157:Middlewares/Third_Party/FreeRTOS/Source/queue.c **** 		space'. */
1158:Middlewares/Third_Party/FreeRTOS/Source/queue.c **** 		if( uxMessagesWaiting < pxQueue->uxLength )
 2215              		.loc 1 1158 34
 2216 009e 3B6B     		ldr	r3, [r7, #48]
 2217 00a0 DB6B     		ldr	r3, [r3, #60]
 2218              		.loc 1 1158 5
 2219 00a2 BA6A     		ldr	r2, [r7, #40]
 2220 00a4 9A42     		cmp	r2, r3
 2221 00a6 2BD2     		bcs	.L144
 2222              	.LBB175:
1159:Middlewares/Third_Party/FreeRTOS/Source/queue.c **** 		{
1160:Middlewares/Third_Party/FreeRTOS/Source/queue.c **** 			const int8_t cTxLock = pxQueue->cTxLock;
 2223              		.loc 1 1160 17
 2224 00a8 3B6B     		ldr	r3, [r7, #48]
 2225 00aa 93F84530 		ldrb	r3, [r3, #69]
 2226 00ae 87F82730 		strb	r3, [r7, #39]
1161:Middlewares/Third_Party/FreeRTOS/Source/queue.c **** 
1162:Middlewares/Third_Party/FreeRTOS/Source/queue.c **** 			traceQUEUE_SEND_FROM_ISR( pxQueue );
1163:Middlewares/Third_Party/FreeRTOS/Source/queue.c **** 
1164:Middlewares/Third_Party/FreeRTOS/Source/queue.c **** 			/* A task can only have an inherited priority if it is a mutex
1165:Middlewares/Third_Party/FreeRTOS/Source/queue.c **** 			holder - and if there is a mutex holder then the mutex cannot be
1166:Middlewares/Third_Party/FreeRTOS/Source/queue.c **** 			given from an ISR.  As this is the ISR version of the function it
1167:Middlewares/Third_Party/FreeRTOS/Source/queue.c **** 			can be assumed there is no mutex holder and no need to determine if
1168:Middlewares/Third_Party/FreeRTOS/Source/queue.c **** 			priority disinheritance is needed.  Simply increase the count of
1169:Middlewares/Third_Party/FreeRTOS/Source/queue.c **** 			messages (semaphores) available. */
1170:Middlewares/Third_Party/FreeRTOS/Source/queue.c **** 			pxQueue->uxMessagesWaiting = uxMessagesWaiting + ( UBaseType_t ) 1;
 2227              		.loc 1 1170 51
 2228 00b2 BB6A     		ldr	r3, [r7, #40]
 2229 00b4 5A1C     		adds	r2, r3, #1
 2230              		.loc 1 1170 31
 2231 00b6 3B6B     		ldr	r3, [r7, #48]
 2232 00b8 9A63     		str	r2, [r3, #56]
1171:Middlewares/Third_Party/FreeRTOS/Source/queue.c **** 
1172:Middlewares/Third_Party/FreeRTOS/Source/queue.c **** 			/* The event list is not altered if the queue is locked.  This will
1173:Middlewares/Third_Party/FreeRTOS/Source/queue.c **** 			be done when the queue is unlocked later. */
1174:Middlewares/Third_Party/FreeRTOS/Source/queue.c **** 			if( cTxLock == queueUNLOCKED )
 2233              		.loc 1 1174 6
 2234 00ba 97F92730 		ldrsb	r3, [r7, #39]
 2235 00be B3F1FF3F 		cmp	r3, #-1
 2236 00c2 12D1     		bne	.L145
1175:Middlewares/Third_Party/FreeRTOS/Source/queue.c **** 			{
1176:Middlewares/Third_Party/FreeRTOS/Source/queue.c **** 				#if ( configUSE_QUEUE_SETS == 1 )
1177:Middlewares/Third_Party/FreeRTOS/Source/queue.c **** 				{
1178:Middlewares/Third_Party/FreeRTOS/Source/queue.c **** 					if( pxQueue->pxQueueSetContainer != NULL )
1179:Middlewares/Third_Party/FreeRTOS/Source/queue.c **** 					{
ARM GAS  C:\Users\EI\AppData\Local\Temp\cc6xPaa5.s 			page 65


1180:Middlewares/Third_Party/FreeRTOS/Source/queue.c **** 						if( prvNotifyQueueSetContainer( pxQueue ) != pdFALSE )
1181:Middlewares/Third_Party/FreeRTOS/Source/queue.c **** 						{
1182:Middlewares/Third_Party/FreeRTOS/Source/queue.c **** 							/* The semaphore is a member of a queue set, and
1183:Middlewares/Third_Party/FreeRTOS/Source/queue.c **** 							posting	to the queue set caused a higher priority
1184:Middlewares/Third_Party/FreeRTOS/Source/queue.c **** 							task to	unblock.  A context switch is required. */
1185:Middlewares/Third_Party/FreeRTOS/Source/queue.c **** 							if( pxHigherPriorityTaskWoken != NULL )
1186:Middlewares/Third_Party/FreeRTOS/Source/queue.c **** 							{
1187:Middlewares/Third_Party/FreeRTOS/Source/queue.c **** 								*pxHigherPriorityTaskWoken = pdTRUE;
1188:Middlewares/Third_Party/FreeRTOS/Source/queue.c **** 							}
1189:Middlewares/Third_Party/FreeRTOS/Source/queue.c **** 							else
1190:Middlewares/Third_Party/FreeRTOS/Source/queue.c **** 							{
1191:Middlewares/Third_Party/FreeRTOS/Source/queue.c **** 								mtCOVERAGE_TEST_MARKER();
1192:Middlewares/Third_Party/FreeRTOS/Source/queue.c **** 							}
1193:Middlewares/Third_Party/FreeRTOS/Source/queue.c **** 						}
1194:Middlewares/Third_Party/FreeRTOS/Source/queue.c **** 						else
1195:Middlewares/Third_Party/FreeRTOS/Source/queue.c **** 						{
1196:Middlewares/Third_Party/FreeRTOS/Source/queue.c **** 							mtCOVERAGE_TEST_MARKER();
1197:Middlewares/Third_Party/FreeRTOS/Source/queue.c **** 						}
1198:Middlewares/Third_Party/FreeRTOS/Source/queue.c **** 					}
1199:Middlewares/Third_Party/FreeRTOS/Source/queue.c **** 					else
1200:Middlewares/Third_Party/FreeRTOS/Source/queue.c **** 					{
1201:Middlewares/Third_Party/FreeRTOS/Source/queue.c **** 						if( listLIST_IS_EMPTY( &( pxQueue->xTasksWaitingToReceive ) ) == pdFALSE )
1202:Middlewares/Third_Party/FreeRTOS/Source/queue.c **** 						{
1203:Middlewares/Third_Party/FreeRTOS/Source/queue.c **** 							if( xTaskRemoveFromEventList( &( pxQueue->xTasksWaitingToReceive ) ) != pdFALSE )
1204:Middlewares/Third_Party/FreeRTOS/Source/queue.c **** 							{
1205:Middlewares/Third_Party/FreeRTOS/Source/queue.c **** 								/* The task waiting has a higher priority so
1206:Middlewares/Third_Party/FreeRTOS/Source/queue.c **** 								record that a context switch is required. */
1207:Middlewares/Third_Party/FreeRTOS/Source/queue.c **** 								if( pxHigherPriorityTaskWoken != NULL )
1208:Middlewares/Third_Party/FreeRTOS/Source/queue.c **** 								{
1209:Middlewares/Third_Party/FreeRTOS/Source/queue.c **** 									*pxHigherPriorityTaskWoken = pdTRUE;
1210:Middlewares/Third_Party/FreeRTOS/Source/queue.c **** 								}
1211:Middlewares/Third_Party/FreeRTOS/Source/queue.c **** 								else
1212:Middlewares/Third_Party/FreeRTOS/Source/queue.c **** 								{
1213:Middlewares/Third_Party/FreeRTOS/Source/queue.c **** 									mtCOVERAGE_TEST_MARKER();
1214:Middlewares/Third_Party/FreeRTOS/Source/queue.c **** 								}
1215:Middlewares/Third_Party/FreeRTOS/Source/queue.c **** 							}
1216:Middlewares/Third_Party/FreeRTOS/Source/queue.c **** 							else
1217:Middlewares/Third_Party/FreeRTOS/Source/queue.c **** 							{
1218:Middlewares/Third_Party/FreeRTOS/Source/queue.c **** 								mtCOVERAGE_TEST_MARKER();
1219:Middlewares/Third_Party/FreeRTOS/Source/queue.c **** 							}
1220:Middlewares/Third_Party/FreeRTOS/Source/queue.c **** 						}
1221:Middlewares/Third_Party/FreeRTOS/Source/queue.c **** 						else
1222:Middlewares/Third_Party/FreeRTOS/Source/queue.c **** 						{
1223:Middlewares/Third_Party/FreeRTOS/Source/queue.c **** 							mtCOVERAGE_TEST_MARKER();
1224:Middlewares/Third_Party/FreeRTOS/Source/queue.c **** 						}
1225:Middlewares/Third_Party/FreeRTOS/Source/queue.c **** 					}
1226:Middlewares/Third_Party/FreeRTOS/Source/queue.c **** 				}
1227:Middlewares/Third_Party/FreeRTOS/Source/queue.c **** 				#else /* configUSE_QUEUE_SETS */
1228:Middlewares/Third_Party/FreeRTOS/Source/queue.c **** 				{
1229:Middlewares/Third_Party/FreeRTOS/Source/queue.c **** 					if( listLIST_IS_EMPTY( &( pxQueue->xTasksWaitingToReceive ) ) == pdFALSE )
 2237              		.loc 1 1229 10
 2238 00c4 3B6B     		ldr	r3, [r7, #48]
 2239 00c6 5B6A     		ldr	r3, [r3, #36]
 2240              		.loc 1 1229 8
 2241 00c8 002B     		cmp	r3, #0
 2242 00ca 16D0     		beq	.L146
1230:Middlewares/Third_Party/FreeRTOS/Source/queue.c **** 					{
ARM GAS  C:\Users\EI\AppData\Local\Temp\cc6xPaa5.s 			page 66


1231:Middlewares/Third_Party/FreeRTOS/Source/queue.c **** 						if( xTaskRemoveFromEventList( &( pxQueue->xTasksWaitingToReceive ) ) != pdFALSE )
 2243              		.loc 1 1231 37
 2244 00cc 3B6B     		ldr	r3, [r7, #48]
 2245 00ce 2433     		adds	r3, r3, #36
 2246              		.loc 1 1231 11
 2247 00d0 1846     		mov	r0, r3
 2248 00d2 FFF7FEFF 		bl	xTaskRemoveFromEventList
 2249 00d6 0346     		mov	r3, r0
 2250              		.loc 1 1231 9
 2251 00d8 002B     		cmp	r3, #0
 2252 00da 0ED0     		beq	.L146
1232:Middlewares/Third_Party/FreeRTOS/Source/queue.c **** 						{
1233:Middlewares/Third_Party/FreeRTOS/Source/queue.c **** 							/* The task waiting has a higher priority so record that a
1234:Middlewares/Third_Party/FreeRTOS/Source/queue.c **** 							context	switch is required. */
1235:Middlewares/Third_Party/FreeRTOS/Source/queue.c **** 							if( pxHigherPriorityTaskWoken != NULL )
 2253              		.loc 1 1235 10
 2254 00dc 3B68     		ldr	r3, [r7]
 2255 00de 002B     		cmp	r3, #0
 2256 00e0 0BD0     		beq	.L146
1236:Middlewares/Third_Party/FreeRTOS/Source/queue.c **** 							{
1237:Middlewares/Third_Party/FreeRTOS/Source/queue.c **** 								*pxHigherPriorityTaskWoken = pdTRUE;
 2257              		.loc 1 1237 36
 2258 00e2 3B68     		ldr	r3, [r7]
 2259 00e4 0122     		movs	r2, #1
 2260 00e6 1A60     		str	r2, [r3]
 2261 00e8 07E0     		b	.L146
 2262              	.L145:
1238:Middlewares/Third_Party/FreeRTOS/Source/queue.c **** 							}
1239:Middlewares/Third_Party/FreeRTOS/Source/queue.c **** 							else
1240:Middlewares/Third_Party/FreeRTOS/Source/queue.c **** 							{
1241:Middlewares/Third_Party/FreeRTOS/Source/queue.c **** 								mtCOVERAGE_TEST_MARKER();
1242:Middlewares/Third_Party/FreeRTOS/Source/queue.c **** 							}
1243:Middlewares/Third_Party/FreeRTOS/Source/queue.c **** 						}
1244:Middlewares/Third_Party/FreeRTOS/Source/queue.c **** 						else
1245:Middlewares/Third_Party/FreeRTOS/Source/queue.c **** 						{
1246:Middlewares/Third_Party/FreeRTOS/Source/queue.c **** 							mtCOVERAGE_TEST_MARKER();
1247:Middlewares/Third_Party/FreeRTOS/Source/queue.c **** 						}
1248:Middlewares/Third_Party/FreeRTOS/Source/queue.c **** 					}
1249:Middlewares/Third_Party/FreeRTOS/Source/queue.c **** 					else
1250:Middlewares/Third_Party/FreeRTOS/Source/queue.c **** 					{
1251:Middlewares/Third_Party/FreeRTOS/Source/queue.c **** 						mtCOVERAGE_TEST_MARKER();
1252:Middlewares/Third_Party/FreeRTOS/Source/queue.c **** 					}
1253:Middlewares/Third_Party/FreeRTOS/Source/queue.c **** 				}
1254:Middlewares/Third_Party/FreeRTOS/Source/queue.c **** 				#endif /* configUSE_QUEUE_SETS */
1255:Middlewares/Third_Party/FreeRTOS/Source/queue.c **** 			}
1256:Middlewares/Third_Party/FreeRTOS/Source/queue.c **** 			else
1257:Middlewares/Third_Party/FreeRTOS/Source/queue.c **** 			{
1258:Middlewares/Third_Party/FreeRTOS/Source/queue.c **** 				/* Increment the lock count so the task that unlocks the queue
1259:Middlewares/Third_Party/FreeRTOS/Source/queue.c **** 				knows that data was posted while it was locked. */
1260:Middlewares/Third_Party/FreeRTOS/Source/queue.c **** 				pxQueue->cTxLock = ( int8_t ) ( cTxLock + 1 );
 2263              		.loc 1 1260 45
 2264 00ea 97F82730 		ldrb	r3, [r7, #39]	@ zero_extendqisi2
 2265 00ee 0133     		adds	r3, r3, #1
 2266 00f0 DBB2     		uxtb	r3, r3
 2267              		.loc 1 1260 24
 2268 00f2 5AB2     		sxtb	r2, r3
 2269              		.loc 1 1260 22
ARM GAS  C:\Users\EI\AppData\Local\Temp\cc6xPaa5.s 			page 67


 2270 00f4 3B6B     		ldr	r3, [r7, #48]
 2271 00f6 83F84520 		strb	r2, [r3, #69]
 2272              	.L146:
1261:Middlewares/Third_Party/FreeRTOS/Source/queue.c **** 			}
1262:Middlewares/Third_Party/FreeRTOS/Source/queue.c **** 
1263:Middlewares/Third_Party/FreeRTOS/Source/queue.c **** 			xReturn = pdPASS;
 2273              		.loc 1 1263 12
 2274 00fa 0123     		movs	r3, #1
 2275 00fc 7B63     		str	r3, [r7, #52]
 2276              	.LBE175:
 2277 00fe 01E0     		b	.L147
 2278              	.L144:
1264:Middlewares/Third_Party/FreeRTOS/Source/queue.c **** 		}
1265:Middlewares/Third_Party/FreeRTOS/Source/queue.c **** 		else
1266:Middlewares/Third_Party/FreeRTOS/Source/queue.c **** 		{
1267:Middlewares/Third_Party/FreeRTOS/Source/queue.c **** 			traceQUEUE_SEND_FROM_ISR_FAILED( pxQueue );
1268:Middlewares/Third_Party/FreeRTOS/Source/queue.c **** 			xReturn = errQUEUE_FULL;
 2279              		.loc 1 1268 12
 2280 0100 0023     		movs	r3, #0
 2281 0102 7B63     		str	r3, [r7, #52]
 2282              	.L147:
 2283 0104 FB6A     		ldr	r3, [r7, #44]
 2284 0106 FB60     		str	r3, [r7, #12]
 2285              	.LBE174:
 2286              	.LBB176:
 2287              	.LBB177:
 229:Middlewares/Third_Party/FreeRTOS/Source/portable/GCC/ARM_CM4F/portmacro.h **** 	(
 2288              		.loc 2 229 2
 2289 0108 FB68     		ldr	r3, [r7, #12]
 2290              		.syntax unified
 2291              	@ 229 "Middlewares/Third_Party/FreeRTOS/Source/portable/GCC/ARM_CM4F/portmacro.h" 1
 2292 010a 83F31188 			msr basepri, r3	
 2293              	@ 0 "" 2
 2294              		.loc 2 233 1
 2295              		.thumb
 2296              		.syntax unified
 2297 010e 00BF     		nop
 2298              	.LBE177:
 2299              	.LBE176:
1269:Middlewares/Third_Party/FreeRTOS/Source/queue.c **** 		}
1270:Middlewares/Third_Party/FreeRTOS/Source/queue.c **** 	}
1271:Middlewares/Third_Party/FreeRTOS/Source/queue.c **** 	portCLEAR_INTERRUPT_MASK_FROM_ISR( uxSavedInterruptStatus );
1272:Middlewares/Third_Party/FreeRTOS/Source/queue.c **** 
1273:Middlewares/Third_Party/FreeRTOS/Source/queue.c **** 	return xReturn;
 2300              		.loc 1 1273 9
 2301 0110 7B6B     		ldr	r3, [r7, #52]
1274:Middlewares/Third_Party/FreeRTOS/Source/queue.c **** }
 2302              		.loc 1 1274 1
 2303 0112 1846     		mov	r0, r3
 2304 0114 3837     		adds	r7, r7, #56
 2305              	.LCFI79:
 2306              		.cfi_def_cfa_offset 8
 2307 0116 BD46     		mov	sp, r7
 2308              	.LCFI80:
 2309              		.cfi_def_cfa_register 13
 2310              		@ sp needed
 2311 0118 80BD     		pop	{r7, pc}
ARM GAS  C:\Users\EI\AppData\Local\Temp\cc6xPaa5.s 			page 68


 2312              		.cfi_endproc
 2313              	.LFE19:
 2315              		.section	.text.xQueueReceive,"ax",%progbits
 2316              		.align	1
 2317              		.global	xQueueReceive
 2318              		.syntax unified
 2319              		.thumb
 2320              		.thumb_func
 2321              		.fpu fpv4-sp-d16
 2323              	xQueueReceive:
 2324              	.LFB20:
1275:Middlewares/Third_Party/FreeRTOS/Source/queue.c **** /*-----------------------------------------------------------*/
1276:Middlewares/Third_Party/FreeRTOS/Source/queue.c **** 
1277:Middlewares/Third_Party/FreeRTOS/Source/queue.c **** BaseType_t xQueueReceive( QueueHandle_t xQueue, void * const pvBuffer, TickType_t xTicksToWait )
1278:Middlewares/Third_Party/FreeRTOS/Source/queue.c **** {
 2325              		.loc 1 1278 1
 2326              		.cfi_startproc
 2327              		@ args = 0, pretend = 0, frame = 48
 2328              		@ frame_needed = 1, uses_anonymous_args = 0
 2329 0000 80B5     		push	{r7, lr}
 2330              	.LCFI81:
 2331              		.cfi_def_cfa_offset 8
 2332              		.cfi_offset 7, -8
 2333              		.cfi_offset 14, -4
 2334 0002 8CB0     		sub	sp, sp, #48
 2335              	.LCFI82:
 2336              		.cfi_def_cfa_offset 56
 2337 0004 00AF     		add	r7, sp, #0
 2338              	.LCFI83:
 2339              		.cfi_def_cfa_register 7
 2340 0006 F860     		str	r0, [r7, #12]
 2341 0008 B960     		str	r1, [r7, #8]
 2342 000a 7A60     		str	r2, [r7, #4]
1279:Middlewares/Third_Party/FreeRTOS/Source/queue.c **** BaseType_t xEntryTimeSet = pdFALSE;
 2343              		.loc 1 1279 12
 2344 000c 0023     		movs	r3, #0
 2345 000e FB62     		str	r3, [r7, #44]
1280:Middlewares/Third_Party/FreeRTOS/Source/queue.c **** TimeOut_t xTimeOut;
1281:Middlewares/Third_Party/FreeRTOS/Source/queue.c **** Queue_t * const pxQueue = xQueue;
 2346              		.loc 1 1281 17
 2347 0010 FB68     		ldr	r3, [r7, #12]
 2348 0012 BB62     		str	r3, [r7, #40]
1282:Middlewares/Third_Party/FreeRTOS/Source/queue.c **** 
1283:Middlewares/Third_Party/FreeRTOS/Source/queue.c **** 	/* Check the pointer is not NULL. */
1284:Middlewares/Third_Party/FreeRTOS/Source/queue.c **** 	configASSERT( ( pxQueue ) );
 2349              		.loc 1 1284 2
 2350 0014 BB6A     		ldr	r3, [r7, #40]
 2351 0016 002B     		cmp	r3, #0
 2352 0018 0AD1     		bne	.L150
 2353              	.LBB178:
 2354              	.LBB179:
 195:Middlewares/Third_Party/FreeRTOS/Source/portable/GCC/ARM_CM4F/portmacro.h **** 	(
 2355              		.loc 2 195 2
 2356              		.syntax unified
 2357              	@ 195 "Middlewares/Third_Party/FreeRTOS/Source/portable/GCC/ARM_CM4F/portmacro.h" 1
 2358 001a 4FF05003 			mov r3, #80												
 2359 001e 83F31188 		msr basepri, r3											
ARM GAS  C:\Users\EI\AppData\Local\Temp\cc6xPaa5.s 			page 69


 2360 0022 BFF36F8F 		isb														
 2361 0026 BFF34F8F 		dsb														
 2362              	
 2363              	@ 0 "" 2
 2364              		.thumb
 2365              		.syntax unified
 2366 002a 3B62     		str	r3, [r7, #32]
 203:Middlewares/Third_Party/FreeRTOS/Source/portable/GCC/ARM_CM4F/portmacro.h **** 
 2367              		.loc 2 203 1
 2368 002c 00BF     		nop
 2369              	.L151:
 2370              	.LBE179:
 2371              	.LBE178:
 2372              		.loc 1 1284 2 discriminator 1
 2373 002e FEE7     		b	.L151
 2374              	.L150:
1285:Middlewares/Third_Party/FreeRTOS/Source/queue.c **** 
1286:Middlewares/Third_Party/FreeRTOS/Source/queue.c **** 	/* The buffer into which data is received can only be NULL if the data size
1287:Middlewares/Third_Party/FreeRTOS/Source/queue.c **** 	is zero (so no data is copied into the buffer. */
1288:Middlewares/Third_Party/FreeRTOS/Source/queue.c **** 	configASSERT( !( ( ( pvBuffer ) == NULL ) && ( ( pxQueue )->uxItemSize != ( UBaseType_t ) 0U ) ) )
 2375              		.loc 1 1288 2
 2376 0030 BB68     		ldr	r3, [r7, #8]
 2377 0032 002B     		cmp	r3, #0
 2378 0034 03D1     		bne	.L152
 2379              		.loc 1 1288 2 is_stmt 0 discriminator 2
 2380 0036 BB6A     		ldr	r3, [r7, #40]
 2381 0038 1B6C     		ldr	r3, [r3, #64]
 2382 003a 002B     		cmp	r3, #0
 2383 003c 01D1     		bne	.L153
 2384              	.L152:
 2385              		.loc 1 1288 2 discriminator 3
 2386 003e 0123     		movs	r3, #1
 2387 0040 00E0     		b	.L154
 2388              	.L153:
 2389              		.loc 1 1288 2 discriminator 4
 2390 0042 0023     		movs	r3, #0
 2391              	.L154:
 2392              		.loc 1 1288 2 discriminator 6
 2393 0044 002B     		cmp	r3, #0
 2394 0046 0AD1     		bne	.L155
 2395              	.LBB180:
 2396              	.LBB181:
 195:Middlewares/Third_Party/FreeRTOS/Source/portable/GCC/ARM_CM4F/portmacro.h **** 	(
 2397              		.loc 2 195 2 is_stmt 1
 2398              		.syntax unified
 2399              	@ 195 "Middlewares/Third_Party/FreeRTOS/Source/portable/GCC/ARM_CM4F/portmacro.h" 1
 2400 0048 4FF05003 			mov r3, #80												
 2401 004c 83F31188 		msr basepri, r3											
 2402 0050 BFF36F8F 		isb														
 2403 0054 BFF34F8F 		dsb														
 2404              	
 2405              	@ 0 "" 2
 2406              		.thumb
 2407              		.syntax unified
 2408 0058 FB61     		str	r3, [r7, #28]
 203:Middlewares/Third_Party/FreeRTOS/Source/portable/GCC/ARM_CM4F/portmacro.h **** 
 2409              		.loc 2 203 1
ARM GAS  C:\Users\EI\AppData\Local\Temp\cc6xPaa5.s 			page 70


 2410 005a 00BF     		nop
 2411              	.L156:
 2412              	.LBE181:
 2413              	.LBE180:
 2414              		.loc 1 1288 2 discriminator 2
 2415 005c FEE7     		b	.L156
 2416              	.L155:
1289:Middlewares/Third_Party/FreeRTOS/Source/queue.c **** 
1290:Middlewares/Third_Party/FreeRTOS/Source/queue.c **** 	/* Cannot block if the scheduler is suspended. */
1291:Middlewares/Third_Party/FreeRTOS/Source/queue.c **** 	#if ( ( INCLUDE_xTaskGetSchedulerState == 1 ) || ( configUSE_TIMERS == 1 ) )
1292:Middlewares/Third_Party/FreeRTOS/Source/queue.c **** 	{
1293:Middlewares/Third_Party/FreeRTOS/Source/queue.c **** 		configASSERT( !( ( xTaskGetSchedulerState() == taskSCHEDULER_SUSPENDED ) && ( xTicksToWait != 0 )
 2417              		.loc 1 1293 3
 2418 005e FFF7FEFF 		bl	xTaskGetSchedulerState
 2419 0062 0346     		mov	r3, r0
 2420 0064 002B     		cmp	r3, #0
 2421 0066 02D1     		bne	.L157
 2422              		.loc 1 1293 3 is_stmt 0 discriminator 2
 2423 0068 7B68     		ldr	r3, [r7, #4]
 2424 006a 002B     		cmp	r3, #0
 2425 006c 01D1     		bne	.L158
 2426              	.L157:
 2427              		.loc 1 1293 3 discriminator 3
 2428 006e 0123     		movs	r3, #1
 2429 0070 00E0     		b	.L159
 2430              	.L158:
 2431              		.loc 1 1293 3 discriminator 4
 2432 0072 0023     		movs	r3, #0
 2433              	.L159:
 2434              		.loc 1 1293 3 discriminator 6
 2435 0074 002B     		cmp	r3, #0
 2436 0076 0AD1     		bne	.L160
 2437              	.LBB182:
 2438              	.LBB183:
 195:Middlewares/Third_Party/FreeRTOS/Source/portable/GCC/ARM_CM4F/portmacro.h **** 	(
 2439              		.loc 2 195 2 is_stmt 1
 2440              		.syntax unified
 2441              	@ 195 "Middlewares/Third_Party/FreeRTOS/Source/portable/GCC/ARM_CM4F/portmacro.h" 1
 2442 0078 4FF05003 			mov r3, #80												
 2443 007c 83F31188 		msr basepri, r3											
 2444 0080 BFF36F8F 		isb														
 2445 0084 BFF34F8F 		dsb														
 2446              	
 2447              	@ 0 "" 2
 2448              		.thumb
 2449              		.syntax unified
 2450 0088 BB61     		str	r3, [r7, #24]
 203:Middlewares/Third_Party/FreeRTOS/Source/portable/GCC/ARM_CM4F/portmacro.h **** 
 2451              		.loc 2 203 1
 2452 008a 00BF     		nop
 2453              	.L161:
 2454              	.LBE183:
 2455              	.LBE182:
 2456              		.loc 1 1293 3 discriminator 3
 2457 008c FEE7     		b	.L161
 2458              	.L160:
1294:Middlewares/Third_Party/FreeRTOS/Source/queue.c **** 	}
ARM GAS  C:\Users\EI\AppData\Local\Temp\cc6xPaa5.s 			page 71


1295:Middlewares/Third_Party/FreeRTOS/Source/queue.c **** 	#endif
1296:Middlewares/Third_Party/FreeRTOS/Source/queue.c **** 
1297:Middlewares/Third_Party/FreeRTOS/Source/queue.c **** 
1298:Middlewares/Third_Party/FreeRTOS/Source/queue.c **** 	/*lint -save -e904  This function relaxes the coding standard somewhat to
1299:Middlewares/Third_Party/FreeRTOS/Source/queue.c **** 	allow return statements within the function itself.  This is done in the
1300:Middlewares/Third_Party/FreeRTOS/Source/queue.c **** 	interest of execution time efficiency. */
1301:Middlewares/Third_Party/FreeRTOS/Source/queue.c **** 	for( ;; )
1302:Middlewares/Third_Party/FreeRTOS/Source/queue.c **** 	{
1303:Middlewares/Third_Party/FreeRTOS/Source/queue.c **** 		taskENTER_CRITICAL();
 2459              		.loc 1 1303 3
 2460 008e FFF7FEFF 		bl	vPortEnterCritical
 2461              	.LBB184:
1304:Middlewares/Third_Party/FreeRTOS/Source/queue.c **** 		{
1305:Middlewares/Third_Party/FreeRTOS/Source/queue.c **** 			const UBaseType_t uxMessagesWaiting = pxQueue->uxMessagesWaiting;
 2462              		.loc 1 1305 22
 2463 0092 BB6A     		ldr	r3, [r7, #40]
 2464 0094 9B6B     		ldr	r3, [r3, #56]
 2465 0096 7B62     		str	r3, [r7, #36]
1306:Middlewares/Third_Party/FreeRTOS/Source/queue.c **** 
1307:Middlewares/Third_Party/FreeRTOS/Source/queue.c **** 			/* Is there data in the queue now?  To be running the calling task
1308:Middlewares/Third_Party/FreeRTOS/Source/queue.c **** 			must be the highest priority task wanting to access the queue. */
1309:Middlewares/Third_Party/FreeRTOS/Source/queue.c **** 			if( uxMessagesWaiting > ( UBaseType_t ) 0 )
 2466              		.loc 1 1309 6
 2467 0098 7B6A     		ldr	r3, [r7, #36]
 2468 009a 002B     		cmp	r3, #0
 2469 009c 1FD0     		beq	.L162
1310:Middlewares/Third_Party/FreeRTOS/Source/queue.c **** 			{
1311:Middlewares/Third_Party/FreeRTOS/Source/queue.c **** 				/* Data available, remove one item. */
1312:Middlewares/Third_Party/FreeRTOS/Source/queue.c **** 				prvCopyDataFromQueue( pxQueue, pvBuffer );
 2470              		.loc 1 1312 5
 2471 009e B968     		ldr	r1, [r7, #8]
 2472 00a0 B86A     		ldr	r0, [r7, #40]
 2473 00a2 FFF7FEFF 		bl	prvCopyDataFromQueue
1313:Middlewares/Third_Party/FreeRTOS/Source/queue.c **** 				traceQUEUE_RECEIVE( pxQueue );
1314:Middlewares/Third_Party/FreeRTOS/Source/queue.c **** 				pxQueue->uxMessagesWaiting = uxMessagesWaiting - ( UBaseType_t ) 1;
 2474              		.loc 1 1314 52
 2475 00a6 7B6A     		ldr	r3, [r7, #36]
 2476 00a8 5A1E     		subs	r2, r3, #1
 2477              		.loc 1 1314 32
 2478 00aa BB6A     		ldr	r3, [r7, #40]
 2479 00ac 9A63     		str	r2, [r3, #56]
1315:Middlewares/Third_Party/FreeRTOS/Source/queue.c **** 
1316:Middlewares/Third_Party/FreeRTOS/Source/queue.c **** 				/* There is now space in the queue, were any tasks waiting to
1317:Middlewares/Third_Party/FreeRTOS/Source/queue.c **** 				post to the queue?  If so, unblock the highest priority waiting
1318:Middlewares/Third_Party/FreeRTOS/Source/queue.c **** 				task. */
1319:Middlewares/Third_Party/FreeRTOS/Source/queue.c **** 				if( listLIST_IS_EMPTY( &( pxQueue->xTasksWaitingToSend ) ) == pdFALSE )
 2480              		.loc 1 1319 9
 2481 00ae BB6A     		ldr	r3, [r7, #40]
 2482 00b0 1B69     		ldr	r3, [r3, #16]
 2483              		.loc 1 1319 7
 2484 00b2 002B     		cmp	r3, #0
 2485 00b4 0FD0     		beq	.L163
1320:Middlewares/Third_Party/FreeRTOS/Source/queue.c **** 				{
1321:Middlewares/Third_Party/FreeRTOS/Source/queue.c **** 					if( xTaskRemoveFromEventList( &( pxQueue->xTasksWaitingToSend ) ) != pdFALSE )
 2486              		.loc 1 1321 36
 2487 00b6 BB6A     		ldr	r3, [r7, #40]
 2488 00b8 1033     		adds	r3, r3, #16
ARM GAS  C:\Users\EI\AppData\Local\Temp\cc6xPaa5.s 			page 72


 2489              		.loc 1 1321 10
 2490 00ba 1846     		mov	r0, r3
 2491 00bc FFF7FEFF 		bl	xTaskRemoveFromEventList
 2492 00c0 0346     		mov	r3, r0
 2493              		.loc 1 1321 8
 2494 00c2 002B     		cmp	r3, #0
 2495 00c4 07D0     		beq	.L163
1322:Middlewares/Third_Party/FreeRTOS/Source/queue.c **** 					{
1323:Middlewares/Third_Party/FreeRTOS/Source/queue.c **** 						queueYIELD_IF_USING_PREEMPTION();
 2496              		.loc 1 1323 7
 2497 00c6 3D4B     		ldr	r3, .L173
 2498 00c8 4FF08052 		mov	r2, #268435456
 2499 00cc 1A60     		str	r2, [r3]
 2500              		.syntax unified
 2501              	@ 1323 "Middlewares/Third_Party/FreeRTOS/Source/queue.c" 1
 2502 00ce BFF34F8F 		dsb
 2503              	@ 0 "" 2
 2504              	@ 1323 "Middlewares/Third_Party/FreeRTOS/Source/queue.c" 1
 2505 00d2 BFF36F8F 		isb
 2506              	@ 0 "" 2
 2507              		.thumb
 2508              		.syntax unified
 2509              	.L163:
1324:Middlewares/Third_Party/FreeRTOS/Source/queue.c **** 					}
1325:Middlewares/Third_Party/FreeRTOS/Source/queue.c **** 					else
1326:Middlewares/Third_Party/FreeRTOS/Source/queue.c **** 					{
1327:Middlewares/Third_Party/FreeRTOS/Source/queue.c **** 						mtCOVERAGE_TEST_MARKER();
1328:Middlewares/Third_Party/FreeRTOS/Source/queue.c **** 					}
1329:Middlewares/Third_Party/FreeRTOS/Source/queue.c **** 				}
1330:Middlewares/Third_Party/FreeRTOS/Source/queue.c **** 				else
1331:Middlewares/Third_Party/FreeRTOS/Source/queue.c **** 				{
1332:Middlewares/Third_Party/FreeRTOS/Source/queue.c **** 					mtCOVERAGE_TEST_MARKER();
1333:Middlewares/Third_Party/FreeRTOS/Source/queue.c **** 				}
1334:Middlewares/Third_Party/FreeRTOS/Source/queue.c **** 
1335:Middlewares/Third_Party/FreeRTOS/Source/queue.c **** 				taskEXIT_CRITICAL();
 2510              		.loc 1 1335 5
 2511 00d6 FFF7FEFF 		bl	vPortExitCritical
1336:Middlewares/Third_Party/FreeRTOS/Source/queue.c **** 				return pdPASS;
 2512              		.loc 1 1336 12
 2513 00da 0123     		movs	r3, #1
 2514 00dc 69E0     		b	.L172
 2515              	.L162:
1337:Middlewares/Third_Party/FreeRTOS/Source/queue.c **** 			}
1338:Middlewares/Third_Party/FreeRTOS/Source/queue.c **** 			else
1339:Middlewares/Third_Party/FreeRTOS/Source/queue.c **** 			{
1340:Middlewares/Third_Party/FreeRTOS/Source/queue.c **** 				if( xTicksToWait == ( TickType_t ) 0 )
 2516              		.loc 1 1340 22
 2517 00de 7B68     		ldr	r3, [r7, #4]
 2518              		.loc 1 1340 7
 2519 00e0 002B     		cmp	r3, #0
 2520 00e2 03D1     		bne	.L165
1341:Middlewares/Third_Party/FreeRTOS/Source/queue.c **** 				{
1342:Middlewares/Third_Party/FreeRTOS/Source/queue.c **** 					/* The queue was empty and no block time is specified (or
1343:Middlewares/Third_Party/FreeRTOS/Source/queue.c **** 					the block time has expired) so leave now. */
1344:Middlewares/Third_Party/FreeRTOS/Source/queue.c **** 					taskEXIT_CRITICAL();
 2521              		.loc 1 1344 6
 2522 00e4 FFF7FEFF 		bl	vPortExitCritical
ARM GAS  C:\Users\EI\AppData\Local\Temp\cc6xPaa5.s 			page 73


1345:Middlewares/Third_Party/FreeRTOS/Source/queue.c **** 					traceQUEUE_RECEIVE_FAILED( pxQueue );
1346:Middlewares/Third_Party/FreeRTOS/Source/queue.c **** 					return errQUEUE_EMPTY;
 2523              		.loc 1 1346 13
 2524 00e8 0023     		movs	r3, #0
 2525 00ea 62E0     		b	.L172
 2526              	.L165:
1347:Middlewares/Third_Party/FreeRTOS/Source/queue.c **** 				}
1348:Middlewares/Third_Party/FreeRTOS/Source/queue.c **** 				else if( xEntryTimeSet == pdFALSE )
 2527              		.loc 1 1348 12
 2528 00ec FB6A     		ldr	r3, [r7, #44]
 2529 00ee 002B     		cmp	r3, #0
 2530 00f0 06D1     		bne	.L166
1349:Middlewares/Third_Party/FreeRTOS/Source/queue.c **** 				{
1350:Middlewares/Third_Party/FreeRTOS/Source/queue.c **** 					/* The queue was empty and a block time was specified so
1351:Middlewares/Third_Party/FreeRTOS/Source/queue.c **** 					configure the timeout structure. */
1352:Middlewares/Third_Party/FreeRTOS/Source/queue.c **** 					vTaskInternalSetTimeOutState( &xTimeOut );
 2531              		.loc 1 1352 6
 2532 00f2 07F11003 		add	r3, r7, #16
 2533 00f6 1846     		mov	r0, r3
 2534 00f8 FFF7FEFF 		bl	vTaskInternalSetTimeOutState
1353:Middlewares/Third_Party/FreeRTOS/Source/queue.c **** 					xEntryTimeSet = pdTRUE;
 2535              		.loc 1 1353 20
 2536 00fc 0123     		movs	r3, #1
 2537 00fe FB62     		str	r3, [r7, #44]
 2538              	.L166:
 2539              	.LBE184:
1354:Middlewares/Third_Party/FreeRTOS/Source/queue.c **** 				}
1355:Middlewares/Third_Party/FreeRTOS/Source/queue.c **** 				else
1356:Middlewares/Third_Party/FreeRTOS/Source/queue.c **** 				{
1357:Middlewares/Third_Party/FreeRTOS/Source/queue.c **** 					/* Entry time was already set. */
1358:Middlewares/Third_Party/FreeRTOS/Source/queue.c **** 					mtCOVERAGE_TEST_MARKER();
1359:Middlewares/Third_Party/FreeRTOS/Source/queue.c **** 				}
1360:Middlewares/Third_Party/FreeRTOS/Source/queue.c **** 			}
1361:Middlewares/Third_Party/FreeRTOS/Source/queue.c **** 		}
1362:Middlewares/Third_Party/FreeRTOS/Source/queue.c **** 		taskEXIT_CRITICAL();
 2540              		.loc 1 1362 3
 2541 0100 FFF7FEFF 		bl	vPortExitCritical
1363:Middlewares/Third_Party/FreeRTOS/Source/queue.c **** 
1364:Middlewares/Third_Party/FreeRTOS/Source/queue.c **** 		/* Interrupts and other tasks can send to and receive from the queue
1365:Middlewares/Third_Party/FreeRTOS/Source/queue.c **** 		now the critical section has been exited. */
1366:Middlewares/Third_Party/FreeRTOS/Source/queue.c **** 
1367:Middlewares/Third_Party/FreeRTOS/Source/queue.c **** 		vTaskSuspendAll();
 2542              		.loc 1 1367 3
 2543 0104 FFF7FEFF 		bl	vTaskSuspendAll
1368:Middlewares/Third_Party/FreeRTOS/Source/queue.c **** 		prvLockQueue( pxQueue );
 2544              		.loc 1 1368 3
 2545 0108 FFF7FEFF 		bl	vPortEnterCritical
 2546 010c BB6A     		ldr	r3, [r7, #40]
 2547 010e 93F84430 		ldrb	r3, [r3, #68]
 2548 0112 5BB2     		sxtb	r3, r3
 2549 0114 B3F1FF3F 		cmp	r3, #-1
 2550 0118 03D1     		bne	.L167
 2551              		.loc 1 1368 3 is_stmt 0 discriminator 1
 2552 011a BB6A     		ldr	r3, [r7, #40]
 2553 011c 0022     		movs	r2, #0
 2554 011e 83F84420 		strb	r2, [r3, #68]
 2555              	.L167:
ARM GAS  C:\Users\EI\AppData\Local\Temp\cc6xPaa5.s 			page 74


 2556              		.loc 1 1368 3 discriminator 3
 2557 0122 BB6A     		ldr	r3, [r7, #40]
 2558 0124 93F84530 		ldrb	r3, [r3, #69]
 2559 0128 5BB2     		sxtb	r3, r3
 2560 012a B3F1FF3F 		cmp	r3, #-1
 2561 012e 03D1     		bne	.L168
 2562              		.loc 1 1368 3 discriminator 4
 2563 0130 BB6A     		ldr	r3, [r7, #40]
 2564 0132 0022     		movs	r2, #0
 2565 0134 83F84520 		strb	r2, [r3, #69]
 2566              	.L168:
 2567              		.loc 1 1368 3 discriminator 6
 2568 0138 FFF7FEFF 		bl	vPortExitCritical
1369:Middlewares/Third_Party/FreeRTOS/Source/queue.c **** 
1370:Middlewares/Third_Party/FreeRTOS/Source/queue.c **** 		/* Update the timeout state to see if it has expired yet. */
1371:Middlewares/Third_Party/FreeRTOS/Source/queue.c **** 		if( xTaskCheckForTimeOut( &xTimeOut, &xTicksToWait ) == pdFALSE )
 2569              		.loc 1 1371 7 is_stmt 1 discriminator 6
 2570 013c 3A1D     		adds	r2, r7, #4
 2571 013e 07F11003 		add	r3, r7, #16
 2572 0142 1146     		mov	r1, r2
 2573 0144 1846     		mov	r0, r3
 2574 0146 FFF7FEFF 		bl	xTaskCheckForTimeOut
 2575 014a 0346     		mov	r3, r0
 2576              		.loc 1 1371 5 discriminator 6
 2577 014c 002B     		cmp	r3, #0
 2578 014e 23D1     		bne	.L169
1372:Middlewares/Third_Party/FreeRTOS/Source/queue.c **** 		{
1373:Middlewares/Third_Party/FreeRTOS/Source/queue.c **** 			/* The timeout has not expired.  If the queue is still empty place
1374:Middlewares/Third_Party/FreeRTOS/Source/queue.c **** 			the task on the list of tasks waiting to receive from the queue. */
1375:Middlewares/Third_Party/FreeRTOS/Source/queue.c **** 			if( prvIsQueueEmpty( pxQueue ) != pdFALSE )
 2579              		.loc 1 1375 8
 2580 0150 B86A     		ldr	r0, [r7, #40]
 2581 0152 FFF7FEFF 		bl	prvIsQueueEmpty
 2582 0156 0346     		mov	r3, r0
 2583              		.loc 1 1375 6
 2584 0158 002B     		cmp	r3, #0
 2585 015a 17D0     		beq	.L170
1376:Middlewares/Third_Party/FreeRTOS/Source/queue.c **** 			{
1377:Middlewares/Third_Party/FreeRTOS/Source/queue.c **** 				traceBLOCKING_ON_QUEUE_RECEIVE( pxQueue );
1378:Middlewares/Third_Party/FreeRTOS/Source/queue.c **** 				vTaskPlaceOnEventList( &( pxQueue->xTasksWaitingToReceive ), xTicksToWait );
 2586              		.loc 1 1378 5
 2587 015c BB6A     		ldr	r3, [r7, #40]
 2588 015e 2433     		adds	r3, r3, #36
 2589 0160 7A68     		ldr	r2, [r7, #4]
 2590 0162 1146     		mov	r1, r2
 2591 0164 1846     		mov	r0, r3
 2592 0166 FFF7FEFF 		bl	vTaskPlaceOnEventList
1379:Middlewares/Third_Party/FreeRTOS/Source/queue.c **** 				prvUnlockQueue( pxQueue );
 2593              		.loc 1 1379 5
 2594 016a B86A     		ldr	r0, [r7, #40]
 2595 016c FFF7FEFF 		bl	prvUnlockQueue
1380:Middlewares/Third_Party/FreeRTOS/Source/queue.c **** 				if( xTaskResumeAll() == pdFALSE )
 2596              		.loc 1 1380 9
 2597 0170 FFF7FEFF 		bl	xTaskResumeAll
 2598 0174 0346     		mov	r3, r0
 2599              		.loc 1 1380 7
 2600 0176 002B     		cmp	r3, #0
ARM GAS  C:\Users\EI\AppData\Local\Temp\cc6xPaa5.s 			page 75


 2601 0178 89D1     		bne	.L160
1381:Middlewares/Third_Party/FreeRTOS/Source/queue.c **** 				{
1382:Middlewares/Third_Party/FreeRTOS/Source/queue.c **** 					portYIELD_WITHIN_API();
 2602              		.loc 1 1382 6
 2603 017a 104B     		ldr	r3, .L173
 2604 017c 4FF08052 		mov	r2, #268435456
 2605 0180 1A60     		str	r2, [r3]
 2606              		.syntax unified
 2607              	@ 1382 "Middlewares/Third_Party/FreeRTOS/Source/queue.c" 1
 2608 0182 BFF34F8F 		dsb
 2609              	@ 0 "" 2
 2610              	@ 1382 "Middlewares/Third_Party/FreeRTOS/Source/queue.c" 1
 2611 0186 BFF36F8F 		isb
 2612              	@ 0 "" 2
 2613              		.thumb
 2614              		.syntax unified
 2615 018a 80E7     		b	.L160
 2616              	.L170:
1383:Middlewares/Third_Party/FreeRTOS/Source/queue.c **** 				}
1384:Middlewares/Third_Party/FreeRTOS/Source/queue.c **** 				else
1385:Middlewares/Third_Party/FreeRTOS/Source/queue.c **** 				{
1386:Middlewares/Third_Party/FreeRTOS/Source/queue.c **** 					mtCOVERAGE_TEST_MARKER();
1387:Middlewares/Third_Party/FreeRTOS/Source/queue.c **** 				}
1388:Middlewares/Third_Party/FreeRTOS/Source/queue.c **** 			}
1389:Middlewares/Third_Party/FreeRTOS/Source/queue.c **** 			else
1390:Middlewares/Third_Party/FreeRTOS/Source/queue.c **** 			{
1391:Middlewares/Third_Party/FreeRTOS/Source/queue.c **** 				/* The queue contains data again.  Loop back to try and read the
1392:Middlewares/Third_Party/FreeRTOS/Source/queue.c **** 				data. */
1393:Middlewares/Third_Party/FreeRTOS/Source/queue.c **** 				prvUnlockQueue( pxQueue );
 2617              		.loc 1 1393 5
 2618 018c B86A     		ldr	r0, [r7, #40]
 2619 018e FFF7FEFF 		bl	prvUnlockQueue
1394:Middlewares/Third_Party/FreeRTOS/Source/queue.c **** 				( void ) xTaskResumeAll();
 2620              		.loc 1 1394 14
 2621 0192 FFF7FEFF 		bl	xTaskResumeAll
 2622 0196 7AE7     		b	.L160
 2623              	.L169:
1395:Middlewares/Third_Party/FreeRTOS/Source/queue.c **** 			}
1396:Middlewares/Third_Party/FreeRTOS/Source/queue.c **** 		}
1397:Middlewares/Third_Party/FreeRTOS/Source/queue.c **** 		else
1398:Middlewares/Third_Party/FreeRTOS/Source/queue.c **** 		{
1399:Middlewares/Third_Party/FreeRTOS/Source/queue.c **** 			/* Timed out.  If there is no data in the queue exit, otherwise loop
1400:Middlewares/Third_Party/FreeRTOS/Source/queue.c **** 			back and attempt to read the data. */
1401:Middlewares/Third_Party/FreeRTOS/Source/queue.c **** 			prvUnlockQueue( pxQueue );
 2624              		.loc 1 1401 4
 2625 0198 B86A     		ldr	r0, [r7, #40]
 2626 019a FFF7FEFF 		bl	prvUnlockQueue
1402:Middlewares/Third_Party/FreeRTOS/Source/queue.c **** 			( void ) xTaskResumeAll();
 2627              		.loc 1 1402 13
 2628 019e FFF7FEFF 		bl	xTaskResumeAll
1403:Middlewares/Third_Party/FreeRTOS/Source/queue.c **** 
1404:Middlewares/Third_Party/FreeRTOS/Source/queue.c **** 			if( prvIsQueueEmpty( pxQueue ) != pdFALSE )
 2629              		.loc 1 1404 8
 2630 01a2 B86A     		ldr	r0, [r7, #40]
 2631 01a4 FFF7FEFF 		bl	prvIsQueueEmpty
 2632 01a8 0346     		mov	r3, r0
 2633              		.loc 1 1404 6
ARM GAS  C:\Users\EI\AppData\Local\Temp\cc6xPaa5.s 			page 76


 2634 01aa 002B     		cmp	r3, #0
 2635 01ac 3FF46FAF 		beq	.L160
1405:Middlewares/Third_Party/FreeRTOS/Source/queue.c **** 			{
1406:Middlewares/Third_Party/FreeRTOS/Source/queue.c **** 				traceQUEUE_RECEIVE_FAILED( pxQueue );
1407:Middlewares/Third_Party/FreeRTOS/Source/queue.c **** 				return errQUEUE_EMPTY;
 2636              		.loc 1 1407 12
 2637 01b0 0023     		movs	r3, #0
 2638              	.L172:
1408:Middlewares/Third_Party/FreeRTOS/Source/queue.c **** 			}
1409:Middlewares/Third_Party/FreeRTOS/Source/queue.c **** 			else
1410:Middlewares/Third_Party/FreeRTOS/Source/queue.c **** 			{
1411:Middlewares/Third_Party/FreeRTOS/Source/queue.c **** 				mtCOVERAGE_TEST_MARKER();
1412:Middlewares/Third_Party/FreeRTOS/Source/queue.c **** 			}
1413:Middlewares/Third_Party/FreeRTOS/Source/queue.c **** 		}
1414:Middlewares/Third_Party/FreeRTOS/Source/queue.c **** 	} /*lint -restore */
1415:Middlewares/Third_Party/FreeRTOS/Source/queue.c **** }
 2639              		.loc 1 1415 1 discriminator 6
 2640 01b2 1846     		mov	r0, r3
 2641 01b4 3037     		adds	r7, r7, #48
 2642              	.LCFI84:
 2643              		.cfi_def_cfa_offset 8
 2644 01b6 BD46     		mov	sp, r7
 2645              	.LCFI85:
 2646              		.cfi_def_cfa_register 13
 2647              		@ sp needed
 2648 01b8 80BD     		pop	{r7, pc}
 2649              	.L174:
 2650 01ba 00BF     		.align	2
 2651              	.L173:
 2652 01bc 04ED00E0 		.word	-536810236
 2653              		.cfi_endproc
 2654              	.LFE20:
 2656              		.section	.text.xQueueSemaphoreTake,"ax",%progbits
 2657              		.align	1
 2658              		.global	xQueueSemaphoreTake
 2659              		.syntax unified
 2660              		.thumb
 2661              		.thumb_func
 2662              		.fpu fpv4-sp-d16
 2664              	xQueueSemaphoreTake:
 2665              	.LFB21:
1416:Middlewares/Third_Party/FreeRTOS/Source/queue.c **** /*-----------------------------------------------------------*/
1417:Middlewares/Third_Party/FreeRTOS/Source/queue.c **** 
1418:Middlewares/Third_Party/FreeRTOS/Source/queue.c **** BaseType_t xQueueSemaphoreTake( QueueHandle_t xQueue, TickType_t xTicksToWait )
1419:Middlewares/Third_Party/FreeRTOS/Source/queue.c **** {
 2666              		.loc 1 1419 1
 2667              		.cfi_startproc
 2668              		@ args = 0, pretend = 0, frame = 56
 2669              		@ frame_needed = 1, uses_anonymous_args = 0
 2670 0000 80B5     		push	{r7, lr}
 2671              	.LCFI86:
 2672              		.cfi_def_cfa_offset 8
 2673              		.cfi_offset 7, -8
 2674              		.cfi_offset 14, -4
 2675 0002 8EB0     		sub	sp, sp, #56
 2676              	.LCFI87:
 2677              		.cfi_def_cfa_offset 64
ARM GAS  C:\Users\EI\AppData\Local\Temp\cc6xPaa5.s 			page 77


 2678 0004 00AF     		add	r7, sp, #0
 2679              	.LCFI88:
 2680              		.cfi_def_cfa_register 7
 2681 0006 7860     		str	r0, [r7, #4]
 2682 0008 3960     		str	r1, [r7]
1420:Middlewares/Third_Party/FreeRTOS/Source/queue.c **** BaseType_t xEntryTimeSet = pdFALSE;
 2683              		.loc 1 1420 12
 2684 000a 0023     		movs	r3, #0
 2685 000c 7B63     		str	r3, [r7, #52]
1421:Middlewares/Third_Party/FreeRTOS/Source/queue.c **** TimeOut_t xTimeOut;
1422:Middlewares/Third_Party/FreeRTOS/Source/queue.c **** Queue_t * const pxQueue = xQueue;
 2686              		.loc 1 1422 17
 2687 000e 7B68     		ldr	r3, [r7, #4]
 2688 0010 FB62     		str	r3, [r7, #44]
1423:Middlewares/Third_Party/FreeRTOS/Source/queue.c **** 
1424:Middlewares/Third_Party/FreeRTOS/Source/queue.c **** #if( configUSE_MUTEXES == 1 )
1425:Middlewares/Third_Party/FreeRTOS/Source/queue.c **** 	BaseType_t xInheritanceOccurred = pdFALSE;
 2689              		.loc 1 1425 13
 2690 0012 0023     		movs	r3, #0
 2691 0014 3B63     		str	r3, [r7, #48]
1426:Middlewares/Third_Party/FreeRTOS/Source/queue.c **** #endif
1427:Middlewares/Third_Party/FreeRTOS/Source/queue.c **** 
1428:Middlewares/Third_Party/FreeRTOS/Source/queue.c **** 	/* Check the queue pointer is not NULL. */
1429:Middlewares/Third_Party/FreeRTOS/Source/queue.c **** 	configASSERT( ( pxQueue ) );
 2692              		.loc 1 1429 2
 2693 0016 FB6A     		ldr	r3, [r7, #44]
 2694 0018 002B     		cmp	r3, #0
 2695 001a 0AD1     		bne	.L176
 2696              	.LBB185:
 2697              	.LBB186:
 195:Middlewares/Third_Party/FreeRTOS/Source/portable/GCC/ARM_CM4F/portmacro.h **** 	(
 2698              		.loc 2 195 2
 2699              		.syntax unified
 2700              	@ 195 "Middlewares/Third_Party/FreeRTOS/Source/portable/GCC/ARM_CM4F/portmacro.h" 1
 2701 001c 4FF05003 			mov r3, #80												
 2702 0020 83F31188 		msr basepri, r3											
 2703 0024 BFF36F8F 		isb														
 2704 0028 BFF34F8F 		dsb														
 2705              	
 2706              	@ 0 "" 2
 2707              		.thumb
 2708              		.syntax unified
 2709 002c 3B62     		str	r3, [r7, #32]
 203:Middlewares/Third_Party/FreeRTOS/Source/portable/GCC/ARM_CM4F/portmacro.h **** 
 2710              		.loc 2 203 1
 2711 002e 00BF     		nop
 2712              	.L177:
 2713              	.LBE186:
 2714              	.LBE185:
 2715              		.loc 1 1429 2 discriminator 1
 2716 0030 FEE7     		b	.L177
 2717              	.L176:
1430:Middlewares/Third_Party/FreeRTOS/Source/queue.c **** 
1431:Middlewares/Third_Party/FreeRTOS/Source/queue.c **** 	/* Check this really is a semaphore, in which case the item size will be
1432:Middlewares/Third_Party/FreeRTOS/Source/queue.c **** 	0. */
1433:Middlewares/Third_Party/FreeRTOS/Source/queue.c **** 	configASSERT( pxQueue->uxItemSize == 0 );
 2718              		.loc 1 1433 2
ARM GAS  C:\Users\EI\AppData\Local\Temp\cc6xPaa5.s 			page 78


 2719 0032 FB6A     		ldr	r3, [r7, #44]
 2720 0034 1B6C     		ldr	r3, [r3, #64]
 2721 0036 002B     		cmp	r3, #0
 2722 0038 0AD0     		beq	.L178
 2723              	.LBB187:
 2724              	.LBB188:
 195:Middlewares/Third_Party/FreeRTOS/Source/portable/GCC/ARM_CM4F/portmacro.h **** 	(
 2725              		.loc 2 195 2
 2726              		.syntax unified
 2727              	@ 195 "Middlewares/Third_Party/FreeRTOS/Source/portable/GCC/ARM_CM4F/portmacro.h" 1
 2728 003a 4FF05003 			mov r3, #80												
 2729 003e 83F31188 		msr basepri, r3											
 2730 0042 BFF36F8F 		isb														
 2731 0046 BFF34F8F 		dsb														
 2732              	
 2733              	@ 0 "" 2
 2734              		.thumb
 2735              		.syntax unified
 2736 004a FB61     		str	r3, [r7, #28]
 203:Middlewares/Third_Party/FreeRTOS/Source/portable/GCC/ARM_CM4F/portmacro.h **** 
 2737              		.loc 2 203 1
 2738 004c 00BF     		nop
 2739              	.L179:
 2740              	.LBE188:
 2741              	.LBE187:
 2742              		.loc 1 1433 2 discriminator 2
 2743 004e FEE7     		b	.L179
 2744              	.L178:
1434:Middlewares/Third_Party/FreeRTOS/Source/queue.c **** 
1435:Middlewares/Third_Party/FreeRTOS/Source/queue.c **** 	/* Cannot block if the scheduler is suspended. */
1436:Middlewares/Third_Party/FreeRTOS/Source/queue.c **** 	#if ( ( INCLUDE_xTaskGetSchedulerState == 1 ) || ( configUSE_TIMERS == 1 ) )
1437:Middlewares/Third_Party/FreeRTOS/Source/queue.c **** 	{
1438:Middlewares/Third_Party/FreeRTOS/Source/queue.c **** 		configASSERT( !( ( xTaskGetSchedulerState() == taskSCHEDULER_SUSPENDED ) && ( xTicksToWait != 0 )
 2745              		.loc 1 1438 3
 2746 0050 FFF7FEFF 		bl	xTaskGetSchedulerState
 2747 0054 0346     		mov	r3, r0
 2748 0056 002B     		cmp	r3, #0
 2749 0058 02D1     		bne	.L180
 2750              		.loc 1 1438 3 is_stmt 0 discriminator 2
 2751 005a 3B68     		ldr	r3, [r7]
 2752 005c 002B     		cmp	r3, #0
 2753 005e 01D1     		bne	.L181
 2754              	.L180:
 2755              		.loc 1 1438 3 discriminator 3
 2756 0060 0123     		movs	r3, #1
 2757 0062 00E0     		b	.L182
 2758              	.L181:
 2759              		.loc 1 1438 3 discriminator 4
 2760 0064 0023     		movs	r3, #0
 2761              	.L182:
 2762              		.loc 1 1438 3 discriminator 6
 2763 0066 002B     		cmp	r3, #0
 2764 0068 0AD1     		bne	.L183
 2765              	.LBB189:
 2766              	.LBB190:
 195:Middlewares/Third_Party/FreeRTOS/Source/portable/GCC/ARM_CM4F/portmacro.h **** 	(
 2767              		.loc 2 195 2 is_stmt 1
ARM GAS  C:\Users\EI\AppData\Local\Temp\cc6xPaa5.s 			page 79


 2768              		.syntax unified
 2769              	@ 195 "Middlewares/Third_Party/FreeRTOS/Source/portable/GCC/ARM_CM4F/portmacro.h" 1
 2770 006a 4FF05003 			mov r3, #80												
 2771 006e 83F31188 		msr basepri, r3											
 2772 0072 BFF36F8F 		isb														
 2773 0076 BFF34F8F 		dsb														
 2774              	
 2775              	@ 0 "" 2
 2776              		.thumb
 2777              		.syntax unified
 2778 007a BB61     		str	r3, [r7, #24]
 203:Middlewares/Third_Party/FreeRTOS/Source/portable/GCC/ARM_CM4F/portmacro.h **** 
 2779              		.loc 2 203 1
 2780 007c 00BF     		nop
 2781              	.L184:
 2782              	.LBE190:
 2783              	.LBE189:
 2784              		.loc 1 1438 3 discriminator 3
 2785 007e FEE7     		b	.L184
 2786              	.L183:
1439:Middlewares/Third_Party/FreeRTOS/Source/queue.c **** 	}
1440:Middlewares/Third_Party/FreeRTOS/Source/queue.c **** 	#endif
1441:Middlewares/Third_Party/FreeRTOS/Source/queue.c **** 
1442:Middlewares/Third_Party/FreeRTOS/Source/queue.c **** 
1443:Middlewares/Third_Party/FreeRTOS/Source/queue.c **** 	/*lint -save -e904 This function relaxes the coding standard somewhat to allow return
1444:Middlewares/Third_Party/FreeRTOS/Source/queue.c **** 	statements within the function itself.  This is done in the interest
1445:Middlewares/Third_Party/FreeRTOS/Source/queue.c **** 	of execution time efficiency. */
1446:Middlewares/Third_Party/FreeRTOS/Source/queue.c **** 	for( ;; )
1447:Middlewares/Third_Party/FreeRTOS/Source/queue.c **** 	{
1448:Middlewares/Third_Party/FreeRTOS/Source/queue.c **** 		taskENTER_CRITICAL();
 2787              		.loc 1 1448 3
 2788 0080 FFF7FEFF 		bl	vPortEnterCritical
 2789              	.LBB191:
1449:Middlewares/Third_Party/FreeRTOS/Source/queue.c **** 		{
1450:Middlewares/Third_Party/FreeRTOS/Source/queue.c **** 			/* Semaphores are queues with an item size of 0, and where the
1451:Middlewares/Third_Party/FreeRTOS/Source/queue.c **** 			number of messages in the queue is the semaphore's count value. */
1452:Middlewares/Third_Party/FreeRTOS/Source/queue.c **** 			const UBaseType_t uxSemaphoreCount = pxQueue->uxMessagesWaiting;
 2790              		.loc 1 1452 22
 2791 0084 FB6A     		ldr	r3, [r7, #44]
 2792 0086 9B6B     		ldr	r3, [r3, #56]
 2793 0088 BB62     		str	r3, [r7, #40]
1453:Middlewares/Third_Party/FreeRTOS/Source/queue.c **** 
1454:Middlewares/Third_Party/FreeRTOS/Source/queue.c **** 			/* Is there data in the queue now?  To be running the calling task
1455:Middlewares/Third_Party/FreeRTOS/Source/queue.c **** 			must be the highest priority task wanting to access the queue. */
1456:Middlewares/Third_Party/FreeRTOS/Source/queue.c **** 			if( uxSemaphoreCount > ( UBaseType_t ) 0 )
 2794              		.loc 1 1456 6
 2795 008a BB6A     		ldr	r3, [r7, #40]
 2796 008c 002B     		cmp	r3, #0
 2797 008e 24D0     		beq	.L185
1457:Middlewares/Third_Party/FreeRTOS/Source/queue.c **** 			{
1458:Middlewares/Third_Party/FreeRTOS/Source/queue.c **** 				traceQUEUE_RECEIVE( pxQueue );
1459:Middlewares/Third_Party/FreeRTOS/Source/queue.c **** 
1460:Middlewares/Third_Party/FreeRTOS/Source/queue.c **** 				/* Semaphores are queues with a data size of zero and where the
1461:Middlewares/Third_Party/FreeRTOS/Source/queue.c **** 				messages waiting is the semaphore's count.  Reduce the count. */
1462:Middlewares/Third_Party/FreeRTOS/Source/queue.c **** 				pxQueue->uxMessagesWaiting = uxSemaphoreCount - ( UBaseType_t ) 1;
 2798              		.loc 1 1462 51
 2799 0090 BB6A     		ldr	r3, [r7, #40]
ARM GAS  C:\Users\EI\AppData\Local\Temp\cc6xPaa5.s 			page 80


 2800 0092 5A1E     		subs	r2, r3, #1
 2801              		.loc 1 1462 32
 2802 0094 FB6A     		ldr	r3, [r7, #44]
 2803 0096 9A63     		str	r2, [r3, #56]
1463:Middlewares/Third_Party/FreeRTOS/Source/queue.c **** 
1464:Middlewares/Third_Party/FreeRTOS/Source/queue.c **** 				#if ( configUSE_MUTEXES == 1 )
1465:Middlewares/Third_Party/FreeRTOS/Source/queue.c **** 				{
1466:Middlewares/Third_Party/FreeRTOS/Source/queue.c **** 					if( pxQueue->uxQueueType == queueQUEUE_IS_MUTEX )
 2804              		.loc 1 1466 17
 2805 0098 FB6A     		ldr	r3, [r7, #44]
 2806 009a 1B68     		ldr	r3, [r3]
 2807              		.loc 1 1466 8
 2808 009c 002B     		cmp	r3, #0
 2809 009e 04D1     		bne	.L186
1467:Middlewares/Third_Party/FreeRTOS/Source/queue.c **** 					{
1468:Middlewares/Third_Party/FreeRTOS/Source/queue.c **** 						/* Record the information required to implement
1469:Middlewares/Third_Party/FreeRTOS/Source/queue.c **** 						priority inheritance should it become necessary. */
1470:Middlewares/Third_Party/FreeRTOS/Source/queue.c **** 						pxQueue->u.xSemaphore.xMutexHolder = pvTaskIncrementMutexHeldCount();
 2810              		.loc 1 1470 44
 2811 00a0 FFF7FEFF 		bl	pvTaskIncrementMutexHeldCount
 2812 00a4 0246     		mov	r2, r0
 2813              		.loc 1 1470 42
 2814 00a6 FB6A     		ldr	r3, [r7, #44]
 2815 00a8 9A60     		str	r2, [r3, #8]
 2816              	.L186:
1471:Middlewares/Third_Party/FreeRTOS/Source/queue.c **** 					}
1472:Middlewares/Third_Party/FreeRTOS/Source/queue.c **** 					else
1473:Middlewares/Third_Party/FreeRTOS/Source/queue.c **** 					{
1474:Middlewares/Third_Party/FreeRTOS/Source/queue.c **** 						mtCOVERAGE_TEST_MARKER();
1475:Middlewares/Third_Party/FreeRTOS/Source/queue.c **** 					}
1476:Middlewares/Third_Party/FreeRTOS/Source/queue.c **** 				}
1477:Middlewares/Third_Party/FreeRTOS/Source/queue.c **** 				#endif /* configUSE_MUTEXES */
1478:Middlewares/Third_Party/FreeRTOS/Source/queue.c **** 
1479:Middlewares/Third_Party/FreeRTOS/Source/queue.c **** 				/* Check to see if other tasks are blocked waiting to give the
1480:Middlewares/Third_Party/FreeRTOS/Source/queue.c **** 				semaphore, and if so, unblock the highest priority such task. */
1481:Middlewares/Third_Party/FreeRTOS/Source/queue.c **** 				if( listLIST_IS_EMPTY( &( pxQueue->xTasksWaitingToSend ) ) == pdFALSE )
 2817              		.loc 1 1481 9
 2818 00aa FB6A     		ldr	r3, [r7, #44]
 2819 00ac 1B69     		ldr	r3, [r3, #16]
 2820              		.loc 1 1481 7
 2821 00ae 002B     		cmp	r3, #0
 2822 00b0 0FD0     		beq	.L187
1482:Middlewares/Third_Party/FreeRTOS/Source/queue.c **** 				{
1483:Middlewares/Third_Party/FreeRTOS/Source/queue.c **** 					if( xTaskRemoveFromEventList( &( pxQueue->xTasksWaitingToSend ) ) != pdFALSE )
 2823              		.loc 1 1483 36
 2824 00b2 FB6A     		ldr	r3, [r7, #44]
 2825 00b4 1033     		adds	r3, r3, #16
 2826              		.loc 1 1483 10
 2827 00b6 1846     		mov	r0, r3
 2828 00b8 FFF7FEFF 		bl	xTaskRemoveFromEventList
 2829 00bc 0346     		mov	r3, r0
 2830              		.loc 1 1483 8
 2831 00be 002B     		cmp	r3, #0
 2832 00c0 07D0     		beq	.L187
1484:Middlewares/Third_Party/FreeRTOS/Source/queue.c **** 					{
1485:Middlewares/Third_Party/FreeRTOS/Source/queue.c **** 						queueYIELD_IF_USING_PREEMPTION();
 2833              		.loc 1 1485 7
ARM GAS  C:\Users\EI\AppData\Local\Temp\cc6xPaa5.s 			page 81


 2834 00c2 544B     		ldr	r3, .L201
 2835 00c4 4FF08052 		mov	r2, #268435456
 2836 00c8 1A60     		str	r2, [r3]
 2837              		.syntax unified
 2838              	@ 1485 "Middlewares/Third_Party/FreeRTOS/Source/queue.c" 1
 2839 00ca BFF34F8F 		dsb
 2840              	@ 0 "" 2
 2841              	@ 1485 "Middlewares/Third_Party/FreeRTOS/Source/queue.c" 1
 2842 00ce BFF36F8F 		isb
 2843              	@ 0 "" 2
 2844              		.thumb
 2845              		.syntax unified
 2846              	.L187:
1486:Middlewares/Third_Party/FreeRTOS/Source/queue.c **** 					}
1487:Middlewares/Third_Party/FreeRTOS/Source/queue.c **** 					else
1488:Middlewares/Third_Party/FreeRTOS/Source/queue.c **** 					{
1489:Middlewares/Third_Party/FreeRTOS/Source/queue.c **** 						mtCOVERAGE_TEST_MARKER();
1490:Middlewares/Third_Party/FreeRTOS/Source/queue.c **** 					}
1491:Middlewares/Third_Party/FreeRTOS/Source/queue.c **** 				}
1492:Middlewares/Third_Party/FreeRTOS/Source/queue.c **** 				else
1493:Middlewares/Third_Party/FreeRTOS/Source/queue.c **** 				{
1494:Middlewares/Third_Party/FreeRTOS/Source/queue.c **** 					mtCOVERAGE_TEST_MARKER();
1495:Middlewares/Third_Party/FreeRTOS/Source/queue.c **** 				}
1496:Middlewares/Third_Party/FreeRTOS/Source/queue.c **** 
1497:Middlewares/Third_Party/FreeRTOS/Source/queue.c **** 				taskEXIT_CRITICAL();
 2847              		.loc 1 1497 5
 2848 00d2 FFF7FEFF 		bl	vPortExitCritical
1498:Middlewares/Third_Party/FreeRTOS/Source/queue.c **** 				return pdPASS;
 2849              		.loc 1 1498 12
 2850 00d6 0123     		movs	r3, #1
 2851 00d8 97E0     		b	.L200
 2852              	.L185:
1499:Middlewares/Third_Party/FreeRTOS/Source/queue.c **** 			}
1500:Middlewares/Third_Party/FreeRTOS/Source/queue.c **** 			else
1501:Middlewares/Third_Party/FreeRTOS/Source/queue.c **** 			{
1502:Middlewares/Third_Party/FreeRTOS/Source/queue.c **** 				if( xTicksToWait == ( TickType_t ) 0 )
 2853              		.loc 1 1502 22
 2854 00da 3B68     		ldr	r3, [r7]
 2855              		.loc 1 1502 7
 2856 00dc 002B     		cmp	r3, #0
 2857 00de 11D1     		bne	.L189
1503:Middlewares/Third_Party/FreeRTOS/Source/queue.c **** 				{
1504:Middlewares/Third_Party/FreeRTOS/Source/queue.c **** 					/* For inheritance to have occurred there must have been an
1505:Middlewares/Third_Party/FreeRTOS/Source/queue.c **** 					initial timeout, and an adjusted timeout cannot become 0, as
1506:Middlewares/Third_Party/FreeRTOS/Source/queue.c **** 					if it were 0 the function would have exited. */
1507:Middlewares/Third_Party/FreeRTOS/Source/queue.c **** 					#if( configUSE_MUTEXES == 1 )
1508:Middlewares/Third_Party/FreeRTOS/Source/queue.c **** 					{
1509:Middlewares/Third_Party/FreeRTOS/Source/queue.c **** 						configASSERT( xInheritanceOccurred == pdFALSE );
 2858              		.loc 1 1509 7
 2859 00e0 3B6B     		ldr	r3, [r7, #48]
 2860 00e2 002B     		cmp	r3, #0
 2861 00e4 0AD0     		beq	.L190
 2862              	.LBB192:
 2863              	.LBB193:
 195:Middlewares/Third_Party/FreeRTOS/Source/portable/GCC/ARM_CM4F/portmacro.h **** 	(
 2864              		.loc 2 195 2
 2865              		.syntax unified
ARM GAS  C:\Users\EI\AppData\Local\Temp\cc6xPaa5.s 			page 82


 2866              	@ 195 "Middlewares/Third_Party/FreeRTOS/Source/portable/GCC/ARM_CM4F/portmacro.h" 1
 2867 00e6 4FF05003 			mov r3, #80												
 2868 00ea 83F31188 		msr basepri, r3											
 2869 00ee BFF36F8F 		isb														
 2870 00f2 BFF34F8F 		dsb														
 2871              	
 2872              	@ 0 "" 2
 2873              		.thumb
 2874              		.syntax unified
 2875 00f6 7B61     		str	r3, [r7, #20]
 203:Middlewares/Third_Party/FreeRTOS/Source/portable/GCC/ARM_CM4F/portmacro.h **** 
 2876              		.loc 2 203 1
 2877 00f8 00BF     		nop
 2878              	.L191:
 2879              	.LBE193:
 2880              	.LBE192:
 2881              		.loc 1 1509 7 discriminator 4
 2882 00fa FEE7     		b	.L191
 2883              	.L190:
1510:Middlewares/Third_Party/FreeRTOS/Source/queue.c **** 					}
1511:Middlewares/Third_Party/FreeRTOS/Source/queue.c **** 					#endif /* configUSE_MUTEXES */
1512:Middlewares/Third_Party/FreeRTOS/Source/queue.c **** 
1513:Middlewares/Third_Party/FreeRTOS/Source/queue.c **** 					/* The semaphore count was 0 and no block time is specified
1514:Middlewares/Third_Party/FreeRTOS/Source/queue.c **** 					(or the block time has expired) so exit now. */
1515:Middlewares/Third_Party/FreeRTOS/Source/queue.c **** 					taskEXIT_CRITICAL();
 2884              		.loc 1 1515 6
 2885 00fc FFF7FEFF 		bl	vPortExitCritical
1516:Middlewares/Third_Party/FreeRTOS/Source/queue.c **** 					traceQUEUE_RECEIVE_FAILED( pxQueue );
1517:Middlewares/Third_Party/FreeRTOS/Source/queue.c **** 					return errQUEUE_EMPTY;
 2886              		.loc 1 1517 13
 2887 0100 0023     		movs	r3, #0
 2888 0102 82E0     		b	.L200
 2889              	.L189:
1518:Middlewares/Third_Party/FreeRTOS/Source/queue.c **** 				}
1519:Middlewares/Third_Party/FreeRTOS/Source/queue.c **** 				else if( xEntryTimeSet == pdFALSE )
 2890              		.loc 1 1519 12
 2891 0104 7B6B     		ldr	r3, [r7, #52]
 2892 0106 002B     		cmp	r3, #0
 2893 0108 06D1     		bne	.L192
1520:Middlewares/Third_Party/FreeRTOS/Source/queue.c **** 				{
1521:Middlewares/Third_Party/FreeRTOS/Source/queue.c **** 					/* The semaphore count was 0 and a block time was specified
1522:Middlewares/Third_Party/FreeRTOS/Source/queue.c **** 					so configure the timeout structure ready to block. */
1523:Middlewares/Third_Party/FreeRTOS/Source/queue.c **** 					vTaskInternalSetTimeOutState( &xTimeOut );
 2894              		.loc 1 1523 6
 2895 010a 07F10C03 		add	r3, r7, #12
 2896 010e 1846     		mov	r0, r3
 2897 0110 FFF7FEFF 		bl	vTaskInternalSetTimeOutState
1524:Middlewares/Third_Party/FreeRTOS/Source/queue.c **** 					xEntryTimeSet = pdTRUE;
 2898              		.loc 1 1524 20
 2899 0114 0123     		movs	r3, #1
 2900 0116 7B63     		str	r3, [r7, #52]
 2901              	.L192:
 2902              	.LBE191:
1525:Middlewares/Third_Party/FreeRTOS/Source/queue.c **** 				}
1526:Middlewares/Third_Party/FreeRTOS/Source/queue.c **** 				else
1527:Middlewares/Third_Party/FreeRTOS/Source/queue.c **** 				{
1528:Middlewares/Third_Party/FreeRTOS/Source/queue.c **** 					/* Entry time was already set. */
ARM GAS  C:\Users\EI\AppData\Local\Temp\cc6xPaa5.s 			page 83


1529:Middlewares/Third_Party/FreeRTOS/Source/queue.c **** 					mtCOVERAGE_TEST_MARKER();
1530:Middlewares/Third_Party/FreeRTOS/Source/queue.c **** 				}
1531:Middlewares/Third_Party/FreeRTOS/Source/queue.c **** 			}
1532:Middlewares/Third_Party/FreeRTOS/Source/queue.c **** 		}
1533:Middlewares/Third_Party/FreeRTOS/Source/queue.c **** 		taskEXIT_CRITICAL();
 2903              		.loc 1 1533 3
 2904 0118 FFF7FEFF 		bl	vPortExitCritical
1534:Middlewares/Third_Party/FreeRTOS/Source/queue.c **** 
1535:Middlewares/Third_Party/FreeRTOS/Source/queue.c **** 		/* Interrupts and other tasks can give to and take from the semaphore
1536:Middlewares/Third_Party/FreeRTOS/Source/queue.c **** 		now the critical section has been exited. */
1537:Middlewares/Third_Party/FreeRTOS/Source/queue.c **** 
1538:Middlewares/Third_Party/FreeRTOS/Source/queue.c **** 		vTaskSuspendAll();
 2905              		.loc 1 1538 3
 2906 011c FFF7FEFF 		bl	vTaskSuspendAll
1539:Middlewares/Third_Party/FreeRTOS/Source/queue.c **** 		prvLockQueue( pxQueue );
 2907              		.loc 1 1539 3
 2908 0120 FFF7FEFF 		bl	vPortEnterCritical
 2909 0124 FB6A     		ldr	r3, [r7, #44]
 2910 0126 93F84430 		ldrb	r3, [r3, #68]
 2911 012a 5BB2     		sxtb	r3, r3
 2912 012c B3F1FF3F 		cmp	r3, #-1
 2913 0130 03D1     		bne	.L193
 2914              		.loc 1 1539 3 is_stmt 0 discriminator 1
 2915 0132 FB6A     		ldr	r3, [r7, #44]
 2916 0134 0022     		movs	r2, #0
 2917 0136 83F84420 		strb	r2, [r3, #68]
 2918              	.L193:
 2919              		.loc 1 1539 3 discriminator 3
 2920 013a FB6A     		ldr	r3, [r7, #44]
 2921 013c 93F84530 		ldrb	r3, [r3, #69]
 2922 0140 5BB2     		sxtb	r3, r3
 2923 0142 B3F1FF3F 		cmp	r3, #-1
 2924 0146 03D1     		bne	.L194
 2925              		.loc 1 1539 3 discriminator 4
 2926 0148 FB6A     		ldr	r3, [r7, #44]
 2927 014a 0022     		movs	r2, #0
 2928 014c 83F84520 		strb	r2, [r3, #69]
 2929              	.L194:
 2930              		.loc 1 1539 3 discriminator 6
 2931 0150 FFF7FEFF 		bl	vPortExitCritical
1540:Middlewares/Third_Party/FreeRTOS/Source/queue.c **** 
1541:Middlewares/Third_Party/FreeRTOS/Source/queue.c **** 		/* Update the timeout state to see if it has expired yet. */
1542:Middlewares/Third_Party/FreeRTOS/Source/queue.c **** 		if( xTaskCheckForTimeOut( &xTimeOut, &xTicksToWait ) == pdFALSE )
 2932              		.loc 1 1542 7 is_stmt 1 discriminator 6
 2933 0154 3A46     		mov	r2, r7
 2934 0156 07F10C03 		add	r3, r7, #12
 2935 015a 1146     		mov	r1, r2
 2936 015c 1846     		mov	r0, r3
 2937 015e FFF7FEFF 		bl	xTaskCheckForTimeOut
 2938 0162 0346     		mov	r3, r0
 2939              		.loc 1 1542 5 discriminator 6
 2940 0164 002B     		cmp	r3, #0
 2941 0166 32D1     		bne	.L195
1543:Middlewares/Third_Party/FreeRTOS/Source/queue.c **** 		{
1544:Middlewares/Third_Party/FreeRTOS/Source/queue.c **** 			/* A block time is specified and not expired.  If the semaphore
1545:Middlewares/Third_Party/FreeRTOS/Source/queue.c **** 			count is 0 then enter the Blocked state to wait for a semaphore to
1546:Middlewares/Third_Party/FreeRTOS/Source/queue.c **** 			become available.  As semaphores are implemented with queues the
ARM GAS  C:\Users\EI\AppData\Local\Temp\cc6xPaa5.s 			page 84


1547:Middlewares/Third_Party/FreeRTOS/Source/queue.c **** 			queue being empty is equivalent to the semaphore count being 0. */
1548:Middlewares/Third_Party/FreeRTOS/Source/queue.c **** 			if( prvIsQueueEmpty( pxQueue ) != pdFALSE )
 2942              		.loc 1 1548 8
 2943 0168 F86A     		ldr	r0, [r7, #44]
 2944 016a FFF7FEFF 		bl	prvIsQueueEmpty
 2945 016e 0346     		mov	r3, r0
 2946              		.loc 1 1548 6
 2947 0170 002B     		cmp	r3, #0
 2948 0172 26D0     		beq	.L196
1549:Middlewares/Third_Party/FreeRTOS/Source/queue.c **** 			{
1550:Middlewares/Third_Party/FreeRTOS/Source/queue.c **** 				traceBLOCKING_ON_QUEUE_RECEIVE( pxQueue );
1551:Middlewares/Third_Party/FreeRTOS/Source/queue.c **** 
1552:Middlewares/Third_Party/FreeRTOS/Source/queue.c **** 				#if ( configUSE_MUTEXES == 1 )
1553:Middlewares/Third_Party/FreeRTOS/Source/queue.c **** 				{
1554:Middlewares/Third_Party/FreeRTOS/Source/queue.c **** 					if( pxQueue->uxQueueType == queueQUEUE_IS_MUTEX )
 2949              		.loc 1 1554 17
 2950 0174 FB6A     		ldr	r3, [r7, #44]
 2951 0176 1B68     		ldr	r3, [r3]
 2952              		.loc 1 1554 8
 2953 0178 002B     		cmp	r3, #0
 2954 017a 09D1     		bne	.L197
1555:Middlewares/Third_Party/FreeRTOS/Source/queue.c **** 					{
1556:Middlewares/Third_Party/FreeRTOS/Source/queue.c **** 						taskENTER_CRITICAL();
 2955              		.loc 1 1556 7
 2956 017c FFF7FEFF 		bl	vPortEnterCritical
1557:Middlewares/Third_Party/FreeRTOS/Source/queue.c **** 						{
1558:Middlewares/Third_Party/FreeRTOS/Source/queue.c **** 							xInheritanceOccurred = xTaskPriorityInherit( pxQueue->u.xSemaphore.xMutexHolder );
 2957              		.loc 1 1558 31
 2958 0180 FB6A     		ldr	r3, [r7, #44]
 2959 0182 9B68     		ldr	r3, [r3, #8]
 2960 0184 1846     		mov	r0, r3
 2961 0186 FFF7FEFF 		bl	xTaskPriorityInherit
 2962 018a 3863     		str	r0, [r7, #48]
1559:Middlewares/Third_Party/FreeRTOS/Source/queue.c **** 						}
1560:Middlewares/Third_Party/FreeRTOS/Source/queue.c **** 						taskEXIT_CRITICAL();
 2963              		.loc 1 1560 7
 2964 018c FFF7FEFF 		bl	vPortExitCritical
 2965              	.L197:
1561:Middlewares/Third_Party/FreeRTOS/Source/queue.c **** 					}
1562:Middlewares/Third_Party/FreeRTOS/Source/queue.c **** 					else
1563:Middlewares/Third_Party/FreeRTOS/Source/queue.c **** 					{
1564:Middlewares/Third_Party/FreeRTOS/Source/queue.c **** 						mtCOVERAGE_TEST_MARKER();
1565:Middlewares/Third_Party/FreeRTOS/Source/queue.c **** 					}
1566:Middlewares/Third_Party/FreeRTOS/Source/queue.c **** 				}
1567:Middlewares/Third_Party/FreeRTOS/Source/queue.c **** 				#endif
1568:Middlewares/Third_Party/FreeRTOS/Source/queue.c **** 
1569:Middlewares/Third_Party/FreeRTOS/Source/queue.c **** 				vTaskPlaceOnEventList( &( pxQueue->xTasksWaitingToReceive ), xTicksToWait );
 2966              		.loc 1 1569 5
 2967 0190 FB6A     		ldr	r3, [r7, #44]
 2968 0192 2433     		adds	r3, r3, #36
 2969 0194 3A68     		ldr	r2, [r7]
 2970 0196 1146     		mov	r1, r2
 2971 0198 1846     		mov	r0, r3
 2972 019a FFF7FEFF 		bl	vTaskPlaceOnEventList
1570:Middlewares/Third_Party/FreeRTOS/Source/queue.c **** 				prvUnlockQueue( pxQueue );
 2973              		.loc 1 1570 5
 2974 019e F86A     		ldr	r0, [r7, #44]
ARM GAS  C:\Users\EI\AppData\Local\Temp\cc6xPaa5.s 			page 85


 2975 01a0 FFF7FEFF 		bl	prvUnlockQueue
1571:Middlewares/Third_Party/FreeRTOS/Source/queue.c **** 				if( xTaskResumeAll() == pdFALSE )
 2976              		.loc 1 1571 9
 2977 01a4 FFF7FEFF 		bl	xTaskResumeAll
 2978 01a8 0346     		mov	r3, r0
 2979              		.loc 1 1571 7
 2980 01aa 002B     		cmp	r3, #0
 2981 01ac 7FF468AF 		bne	.L183
1572:Middlewares/Third_Party/FreeRTOS/Source/queue.c **** 				{
1573:Middlewares/Third_Party/FreeRTOS/Source/queue.c **** 					portYIELD_WITHIN_API();
 2982              		.loc 1 1573 6
 2983 01b0 184B     		ldr	r3, .L201
 2984 01b2 4FF08052 		mov	r2, #268435456
 2985 01b6 1A60     		str	r2, [r3]
 2986              		.syntax unified
 2987              	@ 1573 "Middlewares/Third_Party/FreeRTOS/Source/queue.c" 1
 2988 01b8 BFF34F8F 		dsb
 2989              	@ 0 "" 2
 2990              	@ 1573 "Middlewares/Third_Party/FreeRTOS/Source/queue.c" 1
 2991 01bc BFF36F8F 		isb
 2992              	@ 0 "" 2
 2993              		.thumb
 2994              		.syntax unified
 2995 01c0 5EE7     		b	.L183
 2996              	.L196:
1574:Middlewares/Third_Party/FreeRTOS/Source/queue.c **** 				}
1575:Middlewares/Third_Party/FreeRTOS/Source/queue.c **** 				else
1576:Middlewares/Third_Party/FreeRTOS/Source/queue.c **** 				{
1577:Middlewares/Third_Party/FreeRTOS/Source/queue.c **** 					mtCOVERAGE_TEST_MARKER();
1578:Middlewares/Third_Party/FreeRTOS/Source/queue.c **** 				}
1579:Middlewares/Third_Party/FreeRTOS/Source/queue.c **** 			}
1580:Middlewares/Third_Party/FreeRTOS/Source/queue.c **** 			else
1581:Middlewares/Third_Party/FreeRTOS/Source/queue.c **** 			{
1582:Middlewares/Third_Party/FreeRTOS/Source/queue.c **** 				/* There was no timeout and the semaphore count was not 0, so
1583:Middlewares/Third_Party/FreeRTOS/Source/queue.c **** 				attempt to take the semaphore again. */
1584:Middlewares/Third_Party/FreeRTOS/Source/queue.c **** 				prvUnlockQueue( pxQueue );
 2997              		.loc 1 1584 5
 2998 01c2 F86A     		ldr	r0, [r7, #44]
 2999 01c4 FFF7FEFF 		bl	prvUnlockQueue
1585:Middlewares/Third_Party/FreeRTOS/Source/queue.c **** 				( void ) xTaskResumeAll();
 3000              		.loc 1 1585 14
 3001 01c8 FFF7FEFF 		bl	xTaskResumeAll
 3002 01cc 58E7     		b	.L183
 3003              	.L195:
1586:Middlewares/Third_Party/FreeRTOS/Source/queue.c **** 			}
1587:Middlewares/Third_Party/FreeRTOS/Source/queue.c **** 		}
1588:Middlewares/Third_Party/FreeRTOS/Source/queue.c **** 		else
1589:Middlewares/Third_Party/FreeRTOS/Source/queue.c **** 		{
1590:Middlewares/Third_Party/FreeRTOS/Source/queue.c **** 			/* Timed out. */
1591:Middlewares/Third_Party/FreeRTOS/Source/queue.c **** 			prvUnlockQueue( pxQueue );
 3004              		.loc 1 1591 4
 3005 01ce F86A     		ldr	r0, [r7, #44]
 3006 01d0 FFF7FEFF 		bl	prvUnlockQueue
1592:Middlewares/Third_Party/FreeRTOS/Source/queue.c **** 			( void ) xTaskResumeAll();
 3007              		.loc 1 1592 13
 3008 01d4 FFF7FEFF 		bl	xTaskResumeAll
1593:Middlewares/Third_Party/FreeRTOS/Source/queue.c **** 
ARM GAS  C:\Users\EI\AppData\Local\Temp\cc6xPaa5.s 			page 86


1594:Middlewares/Third_Party/FreeRTOS/Source/queue.c **** 			/* If the semaphore count is 0 exit now as the timeout has
1595:Middlewares/Third_Party/FreeRTOS/Source/queue.c **** 			expired.  Otherwise return to attempt to take the semaphore that is
1596:Middlewares/Third_Party/FreeRTOS/Source/queue.c **** 			known to be available.  As semaphores are implemented by queues the
1597:Middlewares/Third_Party/FreeRTOS/Source/queue.c **** 			queue being empty is equivalent to the semaphore count being 0. */
1598:Middlewares/Third_Party/FreeRTOS/Source/queue.c **** 			if( prvIsQueueEmpty( pxQueue ) != pdFALSE )
 3009              		.loc 1 1598 8
 3010 01d8 F86A     		ldr	r0, [r7, #44]
 3011 01da FFF7FEFF 		bl	prvIsQueueEmpty
 3012 01de 0346     		mov	r3, r0
 3013              		.loc 1 1598 6
 3014 01e0 002B     		cmp	r3, #0
 3015 01e2 3FF44DAF 		beq	.L183
1599:Middlewares/Third_Party/FreeRTOS/Source/queue.c **** 			{
1600:Middlewares/Third_Party/FreeRTOS/Source/queue.c **** 				#if ( configUSE_MUTEXES == 1 )
1601:Middlewares/Third_Party/FreeRTOS/Source/queue.c **** 				{
1602:Middlewares/Third_Party/FreeRTOS/Source/queue.c **** 					/* xInheritanceOccurred could only have be set if
1603:Middlewares/Third_Party/FreeRTOS/Source/queue.c **** 					pxQueue->uxQueueType == queueQUEUE_IS_MUTEX so no need to
1604:Middlewares/Third_Party/FreeRTOS/Source/queue.c **** 					test the mutex type again to check it is actually a mutex. */
1605:Middlewares/Third_Party/FreeRTOS/Source/queue.c **** 					if( xInheritanceOccurred != pdFALSE )
 3016              		.loc 1 1605 8
 3017 01e6 3B6B     		ldr	r3, [r7, #48]
 3018 01e8 002B     		cmp	r3, #0
 3019 01ea 0DD0     		beq	.L199
1606:Middlewares/Third_Party/FreeRTOS/Source/queue.c **** 					{
1607:Middlewares/Third_Party/FreeRTOS/Source/queue.c **** 						taskENTER_CRITICAL();
 3020              		.loc 1 1607 7
 3021 01ec FFF7FEFF 		bl	vPortEnterCritical
 3022              	.LBB194:
1608:Middlewares/Third_Party/FreeRTOS/Source/queue.c **** 						{
1609:Middlewares/Third_Party/FreeRTOS/Source/queue.c **** 							UBaseType_t uxHighestWaitingPriority;
1610:Middlewares/Third_Party/FreeRTOS/Source/queue.c **** 
1611:Middlewares/Third_Party/FreeRTOS/Source/queue.c **** 							/* This task blocking on the mutex caused another
1612:Middlewares/Third_Party/FreeRTOS/Source/queue.c **** 							task to inherit this task's priority.  Now this task
1613:Middlewares/Third_Party/FreeRTOS/Source/queue.c **** 							has timed out the priority should be disinherited
1614:Middlewares/Third_Party/FreeRTOS/Source/queue.c **** 							again, but only as low as the next highest priority
1615:Middlewares/Third_Party/FreeRTOS/Source/queue.c **** 							task that is waiting for the same mutex. */
1616:Middlewares/Third_Party/FreeRTOS/Source/queue.c **** 							uxHighestWaitingPriority = prvGetDisinheritPriorityAfterTimeout( pxQueue );
 3023              		.loc 1 1616 35
 3024 01f0 F86A     		ldr	r0, [r7, #44]
 3025 01f2 FFF7FEFF 		bl	prvGetDisinheritPriorityAfterTimeout
 3026 01f6 7862     		str	r0, [r7, #36]
1617:Middlewares/Third_Party/FreeRTOS/Source/queue.c **** 							vTaskPriorityDisinheritAfterTimeout( pxQueue->u.xSemaphore.xMutexHolder, uxHighestWaitingPri
 3027              		.loc 1 1617 8
 3028 01f8 FB6A     		ldr	r3, [r7, #44]
 3029 01fa 9B68     		ldr	r3, [r3, #8]
 3030 01fc 796A     		ldr	r1, [r7, #36]
 3031 01fe 1846     		mov	r0, r3
 3032 0200 FFF7FEFF 		bl	vTaskPriorityDisinheritAfterTimeout
 3033              	.LBE194:
1618:Middlewares/Third_Party/FreeRTOS/Source/queue.c **** 						}
1619:Middlewares/Third_Party/FreeRTOS/Source/queue.c **** 						taskEXIT_CRITICAL();
 3034              		.loc 1 1619 7
 3035 0204 FFF7FEFF 		bl	vPortExitCritical
 3036              	.L199:
1620:Middlewares/Third_Party/FreeRTOS/Source/queue.c **** 					}
1621:Middlewares/Third_Party/FreeRTOS/Source/queue.c **** 				}
1622:Middlewares/Third_Party/FreeRTOS/Source/queue.c **** 				#endif /* configUSE_MUTEXES */
ARM GAS  C:\Users\EI\AppData\Local\Temp\cc6xPaa5.s 			page 87


1623:Middlewares/Third_Party/FreeRTOS/Source/queue.c **** 
1624:Middlewares/Third_Party/FreeRTOS/Source/queue.c **** 				traceQUEUE_RECEIVE_FAILED( pxQueue );
1625:Middlewares/Third_Party/FreeRTOS/Source/queue.c **** 				return errQUEUE_EMPTY;
 3037              		.loc 1 1625 12
 3038 0208 0023     		movs	r3, #0
 3039              	.L200:
1626:Middlewares/Third_Party/FreeRTOS/Source/queue.c **** 			}
1627:Middlewares/Third_Party/FreeRTOS/Source/queue.c **** 			else
1628:Middlewares/Third_Party/FreeRTOS/Source/queue.c **** 			{
1629:Middlewares/Third_Party/FreeRTOS/Source/queue.c **** 				mtCOVERAGE_TEST_MARKER();
1630:Middlewares/Third_Party/FreeRTOS/Source/queue.c **** 			}
1631:Middlewares/Third_Party/FreeRTOS/Source/queue.c **** 		}
1632:Middlewares/Third_Party/FreeRTOS/Source/queue.c **** 	} /*lint -restore */
1633:Middlewares/Third_Party/FreeRTOS/Source/queue.c **** }
 3040              		.loc 1 1633 1 discriminator 7
 3041 020a 1846     		mov	r0, r3
 3042 020c 3837     		adds	r7, r7, #56
 3043              	.LCFI89:
 3044              		.cfi_def_cfa_offset 8
 3045 020e BD46     		mov	sp, r7
 3046              	.LCFI90:
 3047              		.cfi_def_cfa_register 13
 3048              		@ sp needed
 3049 0210 80BD     		pop	{r7, pc}
 3050              	.L202:
 3051 0212 00BF     		.align	2
 3052              	.L201:
 3053 0214 04ED00E0 		.word	-536810236
 3054              		.cfi_endproc
 3055              	.LFE21:
 3057              		.section	.text.xQueuePeek,"ax",%progbits
 3058              		.align	1
 3059              		.global	xQueuePeek
 3060              		.syntax unified
 3061              		.thumb
 3062              		.thumb_func
 3063              		.fpu fpv4-sp-d16
 3065              	xQueuePeek:
 3066              	.LFB22:
1634:Middlewares/Third_Party/FreeRTOS/Source/queue.c **** /*-----------------------------------------------------------*/
1635:Middlewares/Third_Party/FreeRTOS/Source/queue.c **** 
1636:Middlewares/Third_Party/FreeRTOS/Source/queue.c **** BaseType_t xQueuePeek( QueueHandle_t xQueue, void * const pvBuffer, TickType_t xTicksToWait )
1637:Middlewares/Third_Party/FreeRTOS/Source/queue.c **** {
 3067              		.loc 1 1637 1
 3068              		.cfi_startproc
 3069              		@ args = 0, pretend = 0, frame = 56
 3070              		@ frame_needed = 1, uses_anonymous_args = 0
 3071 0000 80B5     		push	{r7, lr}
 3072              	.LCFI91:
 3073              		.cfi_def_cfa_offset 8
 3074              		.cfi_offset 7, -8
 3075              		.cfi_offset 14, -4
 3076 0002 8EB0     		sub	sp, sp, #56
 3077              	.LCFI92:
 3078              		.cfi_def_cfa_offset 64
 3079 0004 00AF     		add	r7, sp, #0
 3080              	.LCFI93:
ARM GAS  C:\Users\EI\AppData\Local\Temp\cc6xPaa5.s 			page 88


 3081              		.cfi_def_cfa_register 7
 3082 0006 F860     		str	r0, [r7, #12]
 3083 0008 B960     		str	r1, [r7, #8]
 3084 000a 7A60     		str	r2, [r7, #4]
1638:Middlewares/Third_Party/FreeRTOS/Source/queue.c **** BaseType_t xEntryTimeSet = pdFALSE;
 3085              		.loc 1 1638 12
 3086 000c 0023     		movs	r3, #0
 3087 000e 7B63     		str	r3, [r7, #52]
1639:Middlewares/Third_Party/FreeRTOS/Source/queue.c **** TimeOut_t xTimeOut;
1640:Middlewares/Third_Party/FreeRTOS/Source/queue.c **** int8_t *pcOriginalReadPosition;
1641:Middlewares/Third_Party/FreeRTOS/Source/queue.c **** Queue_t * const pxQueue = xQueue;
 3088              		.loc 1 1641 17
 3089 0010 FB68     		ldr	r3, [r7, #12]
 3090 0012 3B63     		str	r3, [r7, #48]
1642:Middlewares/Third_Party/FreeRTOS/Source/queue.c **** 
1643:Middlewares/Third_Party/FreeRTOS/Source/queue.c **** 	/* Check the pointer is not NULL. */
1644:Middlewares/Third_Party/FreeRTOS/Source/queue.c **** 	configASSERT( ( pxQueue ) );
 3091              		.loc 1 1644 2
 3092 0014 3B6B     		ldr	r3, [r7, #48]
 3093 0016 002B     		cmp	r3, #0
 3094 0018 0AD1     		bne	.L204
 3095              	.LBB195:
 3096              	.LBB196:
 195:Middlewares/Third_Party/FreeRTOS/Source/portable/GCC/ARM_CM4F/portmacro.h **** 	(
 3097              		.loc 2 195 2
 3098              		.syntax unified
 3099              	@ 195 "Middlewares/Third_Party/FreeRTOS/Source/portable/GCC/ARM_CM4F/portmacro.h" 1
 3100 001a 4FF05003 			mov r3, #80												
 3101 001e 83F31188 		msr basepri, r3											
 3102 0022 BFF36F8F 		isb														
 3103 0026 BFF34F8F 		dsb														
 3104              	
 3105              	@ 0 "" 2
 3106              		.thumb
 3107              		.syntax unified
 3108 002a 7B62     		str	r3, [r7, #36]
 203:Middlewares/Third_Party/FreeRTOS/Source/portable/GCC/ARM_CM4F/portmacro.h **** 
 3109              		.loc 2 203 1
 3110 002c 00BF     		nop
 3111              	.L205:
 3112              	.LBE196:
 3113              	.LBE195:
 3114              		.loc 1 1644 2 discriminator 1
 3115 002e FEE7     		b	.L205
 3116              	.L204:
1645:Middlewares/Third_Party/FreeRTOS/Source/queue.c **** 
1646:Middlewares/Third_Party/FreeRTOS/Source/queue.c **** 	/* The buffer into which data is received can only be NULL if the data size
1647:Middlewares/Third_Party/FreeRTOS/Source/queue.c **** 	is zero (so no data is copied into the buffer. */
1648:Middlewares/Third_Party/FreeRTOS/Source/queue.c **** 	configASSERT( !( ( ( pvBuffer ) == NULL ) && ( ( pxQueue )->uxItemSize != ( UBaseType_t ) 0U ) ) )
 3117              		.loc 1 1648 2
 3118 0030 BB68     		ldr	r3, [r7, #8]
 3119 0032 002B     		cmp	r3, #0
 3120 0034 03D1     		bne	.L206
 3121              		.loc 1 1648 2 is_stmt 0 discriminator 2
 3122 0036 3B6B     		ldr	r3, [r7, #48]
 3123 0038 1B6C     		ldr	r3, [r3, #64]
 3124 003a 002B     		cmp	r3, #0
ARM GAS  C:\Users\EI\AppData\Local\Temp\cc6xPaa5.s 			page 89


 3125 003c 01D1     		bne	.L207
 3126              	.L206:
 3127              		.loc 1 1648 2 discriminator 3
 3128 003e 0123     		movs	r3, #1
 3129 0040 00E0     		b	.L208
 3130              	.L207:
 3131              		.loc 1 1648 2 discriminator 4
 3132 0042 0023     		movs	r3, #0
 3133              	.L208:
 3134              		.loc 1 1648 2 discriminator 6
 3135 0044 002B     		cmp	r3, #0
 3136 0046 0AD1     		bne	.L209
 3137              	.LBB197:
 3138              	.LBB198:
 195:Middlewares/Third_Party/FreeRTOS/Source/portable/GCC/ARM_CM4F/portmacro.h **** 	(
 3139              		.loc 2 195 2 is_stmt 1
 3140              		.syntax unified
 3141              	@ 195 "Middlewares/Third_Party/FreeRTOS/Source/portable/GCC/ARM_CM4F/portmacro.h" 1
 3142 0048 4FF05003 			mov r3, #80												
 3143 004c 83F31188 		msr basepri, r3											
 3144 0050 BFF36F8F 		isb														
 3145 0054 BFF34F8F 		dsb														
 3146              	
 3147              	@ 0 "" 2
 3148              		.thumb
 3149              		.syntax unified
 3150 0058 3B62     		str	r3, [r7, #32]
 203:Middlewares/Third_Party/FreeRTOS/Source/portable/GCC/ARM_CM4F/portmacro.h **** 
 3151              		.loc 2 203 1
 3152 005a 00BF     		nop
 3153              	.L210:
 3154              	.LBE198:
 3155              	.LBE197:
 3156              		.loc 1 1648 2 discriminator 2
 3157 005c FEE7     		b	.L210
 3158              	.L209:
1649:Middlewares/Third_Party/FreeRTOS/Source/queue.c **** 
1650:Middlewares/Third_Party/FreeRTOS/Source/queue.c **** 	/* Cannot block if the scheduler is suspended. */
1651:Middlewares/Third_Party/FreeRTOS/Source/queue.c **** 	#if ( ( INCLUDE_xTaskGetSchedulerState == 1 ) || ( configUSE_TIMERS == 1 ) )
1652:Middlewares/Third_Party/FreeRTOS/Source/queue.c **** 	{
1653:Middlewares/Third_Party/FreeRTOS/Source/queue.c **** 		configASSERT( !( ( xTaskGetSchedulerState() == taskSCHEDULER_SUSPENDED ) && ( xTicksToWait != 0 )
 3159              		.loc 1 1653 3
 3160 005e FFF7FEFF 		bl	xTaskGetSchedulerState
 3161 0062 0346     		mov	r3, r0
 3162 0064 002B     		cmp	r3, #0
 3163 0066 02D1     		bne	.L211
 3164              		.loc 1 1653 3 is_stmt 0 discriminator 2
 3165 0068 7B68     		ldr	r3, [r7, #4]
 3166 006a 002B     		cmp	r3, #0
 3167 006c 01D1     		bne	.L212
 3168              	.L211:
 3169              		.loc 1 1653 3 discriminator 3
 3170 006e 0123     		movs	r3, #1
 3171 0070 00E0     		b	.L213
 3172              	.L212:
 3173              		.loc 1 1653 3 discriminator 4
 3174 0072 0023     		movs	r3, #0
ARM GAS  C:\Users\EI\AppData\Local\Temp\cc6xPaa5.s 			page 90


 3175              	.L213:
 3176              		.loc 1 1653 3 discriminator 6
 3177 0074 002B     		cmp	r3, #0
 3178 0076 0AD1     		bne	.L214
 3179              	.LBB199:
 3180              	.LBB200:
 195:Middlewares/Third_Party/FreeRTOS/Source/portable/GCC/ARM_CM4F/portmacro.h **** 	(
 3181              		.loc 2 195 2 is_stmt 1
 3182              		.syntax unified
 3183              	@ 195 "Middlewares/Third_Party/FreeRTOS/Source/portable/GCC/ARM_CM4F/portmacro.h" 1
 3184 0078 4FF05003 			mov r3, #80												
 3185 007c 83F31188 		msr basepri, r3											
 3186 0080 BFF36F8F 		isb														
 3187 0084 BFF34F8F 		dsb														
 3188              	
 3189              	@ 0 "" 2
 3190              		.thumb
 3191              		.syntax unified
 3192 0088 FB61     		str	r3, [r7, #28]
 203:Middlewares/Third_Party/FreeRTOS/Source/portable/GCC/ARM_CM4F/portmacro.h **** 
 3193              		.loc 2 203 1
 3194 008a 00BF     		nop
 3195              	.L215:
 3196              	.LBE200:
 3197              	.LBE199:
 3198              		.loc 1 1653 3 discriminator 3
 3199 008c FEE7     		b	.L215
 3200              	.L214:
1654:Middlewares/Third_Party/FreeRTOS/Source/queue.c **** 	}
1655:Middlewares/Third_Party/FreeRTOS/Source/queue.c **** 	#endif
1656:Middlewares/Third_Party/FreeRTOS/Source/queue.c **** 
1657:Middlewares/Third_Party/FreeRTOS/Source/queue.c **** 
1658:Middlewares/Third_Party/FreeRTOS/Source/queue.c **** 	/*lint -save -e904  This function relaxes the coding standard somewhat to
1659:Middlewares/Third_Party/FreeRTOS/Source/queue.c **** 	allow return statements within the function itself.  This is done in the
1660:Middlewares/Third_Party/FreeRTOS/Source/queue.c **** 	interest of execution time efficiency. */
1661:Middlewares/Third_Party/FreeRTOS/Source/queue.c **** 	for( ;; )
1662:Middlewares/Third_Party/FreeRTOS/Source/queue.c **** 	{
1663:Middlewares/Third_Party/FreeRTOS/Source/queue.c **** 		taskENTER_CRITICAL();
 3201              		.loc 1 1663 3
 3202 008e FFF7FEFF 		bl	vPortEnterCritical
 3203              	.LBB201:
1664:Middlewares/Third_Party/FreeRTOS/Source/queue.c **** 		{
1665:Middlewares/Third_Party/FreeRTOS/Source/queue.c **** 			const UBaseType_t uxMessagesWaiting = pxQueue->uxMessagesWaiting;
 3204              		.loc 1 1665 22
 3205 0092 3B6B     		ldr	r3, [r7, #48]
 3206 0094 9B6B     		ldr	r3, [r3, #56]
 3207 0096 FB62     		str	r3, [r7, #44]
1666:Middlewares/Third_Party/FreeRTOS/Source/queue.c **** 
1667:Middlewares/Third_Party/FreeRTOS/Source/queue.c **** 			/* Is there data in the queue now?  To be running the calling task
1668:Middlewares/Third_Party/FreeRTOS/Source/queue.c **** 			must be the highest priority task wanting to access the queue. */
1669:Middlewares/Third_Party/FreeRTOS/Source/queue.c **** 			if( uxMessagesWaiting > ( UBaseType_t ) 0 )
 3208              		.loc 1 1669 6
 3209 0098 FB6A     		ldr	r3, [r7, #44]
 3210 009a 002B     		cmp	r3, #0
 3211 009c 21D0     		beq	.L216
1670:Middlewares/Third_Party/FreeRTOS/Source/queue.c **** 			{
1671:Middlewares/Third_Party/FreeRTOS/Source/queue.c **** 				/* Remember the read position so it can be reset after the data
ARM GAS  C:\Users\EI\AppData\Local\Temp\cc6xPaa5.s 			page 91


1672:Middlewares/Third_Party/FreeRTOS/Source/queue.c **** 				is read from the queue as this function is only peeking the
1673:Middlewares/Third_Party/FreeRTOS/Source/queue.c **** 				data, not removing it. */
1674:Middlewares/Third_Party/FreeRTOS/Source/queue.c **** 				pcOriginalReadPosition = pxQueue->u.xQueue.pcReadFrom;
 3212              		.loc 1 1674 28
 3213 009e 3B6B     		ldr	r3, [r7, #48]
 3214 00a0 DB68     		ldr	r3, [r3, #12]
 3215 00a2 BB62     		str	r3, [r7, #40]
1675:Middlewares/Third_Party/FreeRTOS/Source/queue.c **** 
1676:Middlewares/Third_Party/FreeRTOS/Source/queue.c **** 				prvCopyDataFromQueue( pxQueue, pvBuffer );
 3216              		.loc 1 1676 5
 3217 00a4 B968     		ldr	r1, [r7, #8]
 3218 00a6 386B     		ldr	r0, [r7, #48]
 3219 00a8 FFF7FEFF 		bl	prvCopyDataFromQueue
1677:Middlewares/Third_Party/FreeRTOS/Source/queue.c **** 				traceQUEUE_PEEK( pxQueue );
1678:Middlewares/Third_Party/FreeRTOS/Source/queue.c **** 
1679:Middlewares/Third_Party/FreeRTOS/Source/queue.c **** 				/* The data is not being removed, so reset the read pointer. */
1680:Middlewares/Third_Party/FreeRTOS/Source/queue.c **** 				pxQueue->u.xQueue.pcReadFrom = pcOriginalReadPosition;
 3220              		.loc 1 1680 34
 3221 00ac 3B6B     		ldr	r3, [r7, #48]
 3222 00ae BA6A     		ldr	r2, [r7, #40]
 3223 00b0 DA60     		str	r2, [r3, #12]
1681:Middlewares/Third_Party/FreeRTOS/Source/queue.c **** 
1682:Middlewares/Third_Party/FreeRTOS/Source/queue.c **** 				/* The data is being left in the queue, so see if there are
1683:Middlewares/Third_Party/FreeRTOS/Source/queue.c **** 				any other tasks waiting for the data. */
1684:Middlewares/Third_Party/FreeRTOS/Source/queue.c **** 				if( listLIST_IS_EMPTY( &( pxQueue->xTasksWaitingToReceive ) ) == pdFALSE )
 3224              		.loc 1 1684 9
 3225 00b2 3B6B     		ldr	r3, [r7, #48]
 3226 00b4 5B6A     		ldr	r3, [r3, #36]
 3227              		.loc 1 1684 7
 3228 00b6 002B     		cmp	r3, #0
 3229 00b8 0FD0     		beq	.L217
1685:Middlewares/Third_Party/FreeRTOS/Source/queue.c **** 				{
1686:Middlewares/Third_Party/FreeRTOS/Source/queue.c **** 					if( xTaskRemoveFromEventList( &( pxQueue->xTasksWaitingToReceive ) ) != pdFALSE )
 3230              		.loc 1 1686 36
 3231 00ba 3B6B     		ldr	r3, [r7, #48]
 3232 00bc 2433     		adds	r3, r3, #36
 3233              		.loc 1 1686 10
 3234 00be 1846     		mov	r0, r3
 3235 00c0 FFF7FEFF 		bl	xTaskRemoveFromEventList
 3236 00c4 0346     		mov	r3, r0
 3237              		.loc 1 1686 8
 3238 00c6 002B     		cmp	r3, #0
 3239 00c8 07D0     		beq	.L217
1687:Middlewares/Third_Party/FreeRTOS/Source/queue.c **** 					{
1688:Middlewares/Third_Party/FreeRTOS/Source/queue.c **** 						/* The task waiting has a higher priority than this task. */
1689:Middlewares/Third_Party/FreeRTOS/Source/queue.c **** 						queueYIELD_IF_USING_PREEMPTION();
 3240              		.loc 1 1689 7
 3241 00ca 3D4B     		ldr	r3, .L227
 3242 00cc 4FF08052 		mov	r2, #268435456
 3243 00d0 1A60     		str	r2, [r3]
 3244              		.syntax unified
 3245              	@ 1689 "Middlewares/Third_Party/FreeRTOS/Source/queue.c" 1
 3246 00d2 BFF34F8F 		dsb
 3247              	@ 0 "" 2
 3248              	@ 1689 "Middlewares/Third_Party/FreeRTOS/Source/queue.c" 1
 3249 00d6 BFF36F8F 		isb
 3250              	@ 0 "" 2
ARM GAS  C:\Users\EI\AppData\Local\Temp\cc6xPaa5.s 			page 92


 3251              		.thumb
 3252              		.syntax unified
 3253              	.L217:
1690:Middlewares/Third_Party/FreeRTOS/Source/queue.c **** 					}
1691:Middlewares/Third_Party/FreeRTOS/Source/queue.c **** 					else
1692:Middlewares/Third_Party/FreeRTOS/Source/queue.c **** 					{
1693:Middlewares/Third_Party/FreeRTOS/Source/queue.c **** 						mtCOVERAGE_TEST_MARKER();
1694:Middlewares/Third_Party/FreeRTOS/Source/queue.c **** 					}
1695:Middlewares/Third_Party/FreeRTOS/Source/queue.c **** 				}
1696:Middlewares/Third_Party/FreeRTOS/Source/queue.c **** 				else
1697:Middlewares/Third_Party/FreeRTOS/Source/queue.c **** 				{
1698:Middlewares/Third_Party/FreeRTOS/Source/queue.c **** 					mtCOVERAGE_TEST_MARKER();
1699:Middlewares/Third_Party/FreeRTOS/Source/queue.c **** 				}
1700:Middlewares/Third_Party/FreeRTOS/Source/queue.c **** 
1701:Middlewares/Third_Party/FreeRTOS/Source/queue.c **** 				taskEXIT_CRITICAL();
 3254              		.loc 1 1701 5
 3255 00da FFF7FEFF 		bl	vPortExitCritical
1702:Middlewares/Third_Party/FreeRTOS/Source/queue.c **** 				return pdPASS;
 3256              		.loc 1 1702 12
 3257 00de 0123     		movs	r3, #1
 3258 00e0 69E0     		b	.L226
 3259              	.L216:
1703:Middlewares/Third_Party/FreeRTOS/Source/queue.c **** 			}
1704:Middlewares/Third_Party/FreeRTOS/Source/queue.c **** 			else
1705:Middlewares/Third_Party/FreeRTOS/Source/queue.c **** 			{
1706:Middlewares/Third_Party/FreeRTOS/Source/queue.c **** 				if( xTicksToWait == ( TickType_t ) 0 )
 3260              		.loc 1 1706 22
 3261 00e2 7B68     		ldr	r3, [r7, #4]
 3262              		.loc 1 1706 7
 3263 00e4 002B     		cmp	r3, #0
 3264 00e6 03D1     		bne	.L219
1707:Middlewares/Third_Party/FreeRTOS/Source/queue.c **** 				{
1708:Middlewares/Third_Party/FreeRTOS/Source/queue.c **** 					/* The queue was empty and no block time is specified (or
1709:Middlewares/Third_Party/FreeRTOS/Source/queue.c **** 					the block time has expired) so leave now. */
1710:Middlewares/Third_Party/FreeRTOS/Source/queue.c **** 					taskEXIT_CRITICAL();
 3265              		.loc 1 1710 6
 3266 00e8 FFF7FEFF 		bl	vPortExitCritical
1711:Middlewares/Third_Party/FreeRTOS/Source/queue.c **** 					traceQUEUE_PEEK_FAILED( pxQueue );
1712:Middlewares/Third_Party/FreeRTOS/Source/queue.c **** 					return errQUEUE_EMPTY;
 3267              		.loc 1 1712 13
 3268 00ec 0023     		movs	r3, #0
 3269 00ee 62E0     		b	.L226
 3270              	.L219:
1713:Middlewares/Third_Party/FreeRTOS/Source/queue.c **** 				}
1714:Middlewares/Third_Party/FreeRTOS/Source/queue.c **** 				else if( xEntryTimeSet == pdFALSE )
 3271              		.loc 1 1714 12
 3272 00f0 7B6B     		ldr	r3, [r7, #52]
 3273 00f2 002B     		cmp	r3, #0
 3274 00f4 06D1     		bne	.L220
1715:Middlewares/Third_Party/FreeRTOS/Source/queue.c **** 				{
1716:Middlewares/Third_Party/FreeRTOS/Source/queue.c **** 					/* The queue was empty and a block time was specified so
1717:Middlewares/Third_Party/FreeRTOS/Source/queue.c **** 					configure the timeout structure ready to enter the blocked
1718:Middlewares/Third_Party/FreeRTOS/Source/queue.c **** 					state. */
1719:Middlewares/Third_Party/FreeRTOS/Source/queue.c **** 					vTaskInternalSetTimeOutState( &xTimeOut );
 3275              		.loc 1 1719 6
 3276 00f6 07F11403 		add	r3, r7, #20
 3277 00fa 1846     		mov	r0, r3
ARM GAS  C:\Users\EI\AppData\Local\Temp\cc6xPaa5.s 			page 93


 3278 00fc FFF7FEFF 		bl	vTaskInternalSetTimeOutState
1720:Middlewares/Third_Party/FreeRTOS/Source/queue.c **** 					xEntryTimeSet = pdTRUE;
 3279              		.loc 1 1720 20
 3280 0100 0123     		movs	r3, #1
 3281 0102 7B63     		str	r3, [r7, #52]
 3282              	.L220:
 3283              	.LBE201:
1721:Middlewares/Third_Party/FreeRTOS/Source/queue.c **** 				}
1722:Middlewares/Third_Party/FreeRTOS/Source/queue.c **** 				else
1723:Middlewares/Third_Party/FreeRTOS/Source/queue.c **** 				{
1724:Middlewares/Third_Party/FreeRTOS/Source/queue.c **** 					/* Entry time was already set. */
1725:Middlewares/Third_Party/FreeRTOS/Source/queue.c **** 					mtCOVERAGE_TEST_MARKER();
1726:Middlewares/Third_Party/FreeRTOS/Source/queue.c **** 				}
1727:Middlewares/Third_Party/FreeRTOS/Source/queue.c **** 			}
1728:Middlewares/Third_Party/FreeRTOS/Source/queue.c **** 		}
1729:Middlewares/Third_Party/FreeRTOS/Source/queue.c **** 		taskEXIT_CRITICAL();
 3284              		.loc 1 1729 3
 3285 0104 FFF7FEFF 		bl	vPortExitCritical
1730:Middlewares/Third_Party/FreeRTOS/Source/queue.c **** 
1731:Middlewares/Third_Party/FreeRTOS/Source/queue.c **** 		/* Interrupts and other tasks can send to and receive from the queue
1732:Middlewares/Third_Party/FreeRTOS/Source/queue.c **** 		now the critical section has been exited. */
1733:Middlewares/Third_Party/FreeRTOS/Source/queue.c **** 
1734:Middlewares/Third_Party/FreeRTOS/Source/queue.c **** 		vTaskSuspendAll();
 3286              		.loc 1 1734 3
 3287 0108 FFF7FEFF 		bl	vTaskSuspendAll
1735:Middlewares/Third_Party/FreeRTOS/Source/queue.c **** 		prvLockQueue( pxQueue );
 3288              		.loc 1 1735 3
 3289 010c FFF7FEFF 		bl	vPortEnterCritical
 3290 0110 3B6B     		ldr	r3, [r7, #48]
 3291 0112 93F84430 		ldrb	r3, [r3, #68]
 3292 0116 5BB2     		sxtb	r3, r3
 3293 0118 B3F1FF3F 		cmp	r3, #-1
 3294 011c 03D1     		bne	.L221
 3295              		.loc 1 1735 3 is_stmt 0 discriminator 1
 3296 011e 3B6B     		ldr	r3, [r7, #48]
 3297 0120 0022     		movs	r2, #0
 3298 0122 83F84420 		strb	r2, [r3, #68]
 3299              	.L221:
 3300              		.loc 1 1735 3 discriminator 3
 3301 0126 3B6B     		ldr	r3, [r7, #48]
 3302 0128 93F84530 		ldrb	r3, [r3, #69]
 3303 012c 5BB2     		sxtb	r3, r3
 3304 012e B3F1FF3F 		cmp	r3, #-1
 3305 0132 03D1     		bne	.L222
 3306              		.loc 1 1735 3 discriminator 4
 3307 0134 3B6B     		ldr	r3, [r7, #48]
 3308 0136 0022     		movs	r2, #0
 3309 0138 83F84520 		strb	r2, [r3, #69]
 3310              	.L222:
 3311              		.loc 1 1735 3 discriminator 6
 3312 013c FFF7FEFF 		bl	vPortExitCritical
1736:Middlewares/Third_Party/FreeRTOS/Source/queue.c **** 
1737:Middlewares/Third_Party/FreeRTOS/Source/queue.c **** 		/* Update the timeout state to see if it has expired yet. */
1738:Middlewares/Third_Party/FreeRTOS/Source/queue.c **** 		if( xTaskCheckForTimeOut( &xTimeOut, &xTicksToWait ) == pdFALSE )
 3313              		.loc 1 1738 7 is_stmt 1 discriminator 6
 3314 0140 3A1D     		adds	r2, r7, #4
 3315 0142 07F11403 		add	r3, r7, #20
ARM GAS  C:\Users\EI\AppData\Local\Temp\cc6xPaa5.s 			page 94


 3316 0146 1146     		mov	r1, r2
 3317 0148 1846     		mov	r0, r3
 3318 014a FFF7FEFF 		bl	xTaskCheckForTimeOut
 3319 014e 0346     		mov	r3, r0
 3320              		.loc 1 1738 5 discriminator 6
 3321 0150 002B     		cmp	r3, #0
 3322 0152 23D1     		bne	.L223
1739:Middlewares/Third_Party/FreeRTOS/Source/queue.c **** 		{
1740:Middlewares/Third_Party/FreeRTOS/Source/queue.c **** 			/* Timeout has not expired yet, check to see if there is data in the
1741:Middlewares/Third_Party/FreeRTOS/Source/queue.c **** 			queue now, and if not enter the Blocked state to wait for data. */
1742:Middlewares/Third_Party/FreeRTOS/Source/queue.c **** 			if( prvIsQueueEmpty( pxQueue ) != pdFALSE )
 3323              		.loc 1 1742 8
 3324 0154 386B     		ldr	r0, [r7, #48]
 3325 0156 FFF7FEFF 		bl	prvIsQueueEmpty
 3326 015a 0346     		mov	r3, r0
 3327              		.loc 1 1742 6
 3328 015c 002B     		cmp	r3, #0
 3329 015e 17D0     		beq	.L224
1743:Middlewares/Third_Party/FreeRTOS/Source/queue.c **** 			{
1744:Middlewares/Third_Party/FreeRTOS/Source/queue.c **** 				traceBLOCKING_ON_QUEUE_PEEK( pxQueue );
1745:Middlewares/Third_Party/FreeRTOS/Source/queue.c **** 				vTaskPlaceOnEventList( &( pxQueue->xTasksWaitingToReceive ), xTicksToWait );
 3330              		.loc 1 1745 5
 3331 0160 3B6B     		ldr	r3, [r7, #48]
 3332 0162 2433     		adds	r3, r3, #36
 3333 0164 7A68     		ldr	r2, [r7, #4]
 3334 0166 1146     		mov	r1, r2
 3335 0168 1846     		mov	r0, r3
 3336 016a FFF7FEFF 		bl	vTaskPlaceOnEventList
1746:Middlewares/Third_Party/FreeRTOS/Source/queue.c **** 				prvUnlockQueue( pxQueue );
 3337              		.loc 1 1746 5
 3338 016e 386B     		ldr	r0, [r7, #48]
 3339 0170 FFF7FEFF 		bl	prvUnlockQueue
1747:Middlewares/Third_Party/FreeRTOS/Source/queue.c **** 				if( xTaskResumeAll() == pdFALSE )
 3340              		.loc 1 1747 9
 3341 0174 FFF7FEFF 		bl	xTaskResumeAll
 3342 0178 0346     		mov	r3, r0
 3343              		.loc 1 1747 7
 3344 017a 002B     		cmp	r3, #0
 3345 017c 87D1     		bne	.L214
1748:Middlewares/Third_Party/FreeRTOS/Source/queue.c **** 				{
1749:Middlewares/Third_Party/FreeRTOS/Source/queue.c **** 					portYIELD_WITHIN_API();
 3346              		.loc 1 1749 6
 3347 017e 104B     		ldr	r3, .L227
 3348 0180 4FF08052 		mov	r2, #268435456
 3349 0184 1A60     		str	r2, [r3]
 3350              		.syntax unified
 3351              	@ 1749 "Middlewares/Third_Party/FreeRTOS/Source/queue.c" 1
 3352 0186 BFF34F8F 		dsb
 3353              	@ 0 "" 2
 3354              	@ 1749 "Middlewares/Third_Party/FreeRTOS/Source/queue.c" 1
 3355 018a BFF36F8F 		isb
 3356              	@ 0 "" 2
 3357              		.thumb
 3358              		.syntax unified
 3359 018e 7EE7     		b	.L214
 3360              	.L224:
1750:Middlewares/Third_Party/FreeRTOS/Source/queue.c **** 				}
ARM GAS  C:\Users\EI\AppData\Local\Temp\cc6xPaa5.s 			page 95


1751:Middlewares/Third_Party/FreeRTOS/Source/queue.c **** 				else
1752:Middlewares/Third_Party/FreeRTOS/Source/queue.c **** 				{
1753:Middlewares/Third_Party/FreeRTOS/Source/queue.c **** 					mtCOVERAGE_TEST_MARKER();
1754:Middlewares/Third_Party/FreeRTOS/Source/queue.c **** 				}
1755:Middlewares/Third_Party/FreeRTOS/Source/queue.c **** 			}
1756:Middlewares/Third_Party/FreeRTOS/Source/queue.c **** 			else
1757:Middlewares/Third_Party/FreeRTOS/Source/queue.c **** 			{
1758:Middlewares/Third_Party/FreeRTOS/Source/queue.c **** 				/* There is data in the queue now, so don't enter the blocked
1759:Middlewares/Third_Party/FreeRTOS/Source/queue.c **** 				state, instead return to try and obtain the data. */
1760:Middlewares/Third_Party/FreeRTOS/Source/queue.c **** 				prvUnlockQueue( pxQueue );
 3361              		.loc 1 1760 5
 3362 0190 386B     		ldr	r0, [r7, #48]
 3363 0192 FFF7FEFF 		bl	prvUnlockQueue
1761:Middlewares/Third_Party/FreeRTOS/Source/queue.c **** 				( void ) xTaskResumeAll();
 3364              		.loc 1 1761 14
 3365 0196 FFF7FEFF 		bl	xTaskResumeAll
 3366 019a 78E7     		b	.L214
 3367              	.L223:
1762:Middlewares/Third_Party/FreeRTOS/Source/queue.c **** 			}
1763:Middlewares/Third_Party/FreeRTOS/Source/queue.c **** 		}
1764:Middlewares/Third_Party/FreeRTOS/Source/queue.c **** 		else
1765:Middlewares/Third_Party/FreeRTOS/Source/queue.c **** 		{
1766:Middlewares/Third_Party/FreeRTOS/Source/queue.c **** 			/* The timeout has expired.  If there is still no data in the queue
1767:Middlewares/Third_Party/FreeRTOS/Source/queue.c **** 			exit, otherwise go back and try to read the data again. */
1768:Middlewares/Third_Party/FreeRTOS/Source/queue.c **** 			prvUnlockQueue( pxQueue );
 3368              		.loc 1 1768 4
 3369 019c 386B     		ldr	r0, [r7, #48]
 3370 019e FFF7FEFF 		bl	prvUnlockQueue
1769:Middlewares/Third_Party/FreeRTOS/Source/queue.c **** 			( void ) xTaskResumeAll();
 3371              		.loc 1 1769 13
 3372 01a2 FFF7FEFF 		bl	xTaskResumeAll
1770:Middlewares/Third_Party/FreeRTOS/Source/queue.c **** 
1771:Middlewares/Third_Party/FreeRTOS/Source/queue.c **** 			if( prvIsQueueEmpty( pxQueue ) != pdFALSE )
 3373              		.loc 1 1771 8
 3374 01a6 386B     		ldr	r0, [r7, #48]
 3375 01a8 FFF7FEFF 		bl	prvIsQueueEmpty
 3376 01ac 0346     		mov	r3, r0
 3377              		.loc 1 1771 6
 3378 01ae 002B     		cmp	r3, #0
 3379 01b0 3FF46DAF 		beq	.L214
1772:Middlewares/Third_Party/FreeRTOS/Source/queue.c **** 			{
1773:Middlewares/Third_Party/FreeRTOS/Source/queue.c **** 				traceQUEUE_PEEK_FAILED( pxQueue );
1774:Middlewares/Third_Party/FreeRTOS/Source/queue.c **** 				return errQUEUE_EMPTY;
 3380              		.loc 1 1774 12
 3381 01b4 0023     		movs	r3, #0
 3382              	.L226:
1775:Middlewares/Third_Party/FreeRTOS/Source/queue.c **** 			}
1776:Middlewares/Third_Party/FreeRTOS/Source/queue.c **** 			else
1777:Middlewares/Third_Party/FreeRTOS/Source/queue.c **** 			{
1778:Middlewares/Third_Party/FreeRTOS/Source/queue.c **** 				mtCOVERAGE_TEST_MARKER();
1779:Middlewares/Third_Party/FreeRTOS/Source/queue.c **** 			}
1780:Middlewares/Third_Party/FreeRTOS/Source/queue.c **** 		}
1781:Middlewares/Third_Party/FreeRTOS/Source/queue.c **** 	} /*lint -restore */
1782:Middlewares/Third_Party/FreeRTOS/Source/queue.c **** }
 3383              		.loc 1 1782 1 discriminator 6
 3384 01b6 1846     		mov	r0, r3
 3385 01b8 3837     		adds	r7, r7, #56
ARM GAS  C:\Users\EI\AppData\Local\Temp\cc6xPaa5.s 			page 96


 3386              	.LCFI94:
 3387              		.cfi_def_cfa_offset 8
 3388 01ba BD46     		mov	sp, r7
 3389              	.LCFI95:
 3390              		.cfi_def_cfa_register 13
 3391              		@ sp needed
 3392 01bc 80BD     		pop	{r7, pc}
 3393              	.L228:
 3394 01be 00BF     		.align	2
 3395              	.L227:
 3396 01c0 04ED00E0 		.word	-536810236
 3397              		.cfi_endproc
 3398              	.LFE22:
 3400              		.section	.text.xQueueReceiveFromISR,"ax",%progbits
 3401              		.align	1
 3402              		.global	xQueueReceiveFromISR
 3403              		.syntax unified
 3404              		.thumb
 3405              		.thumb_func
 3406              		.fpu fpv4-sp-d16
 3408              	xQueueReceiveFromISR:
 3409              	.LFB23:
1783:Middlewares/Third_Party/FreeRTOS/Source/queue.c **** /*-----------------------------------------------------------*/
1784:Middlewares/Third_Party/FreeRTOS/Source/queue.c **** 
1785:Middlewares/Third_Party/FreeRTOS/Source/queue.c **** BaseType_t xQueueReceiveFromISR( QueueHandle_t xQueue, void * const pvBuffer, BaseType_t * const px
1786:Middlewares/Third_Party/FreeRTOS/Source/queue.c **** {
 3410              		.loc 1 1786 1
 3411              		.cfi_startproc
 3412              		@ args = 0, pretend = 0, frame = 56
 3413              		@ frame_needed = 1, uses_anonymous_args = 0
 3414 0000 80B5     		push	{r7, lr}
 3415              	.LCFI96:
 3416              		.cfi_def_cfa_offset 8
 3417              		.cfi_offset 7, -8
 3418              		.cfi_offset 14, -4
 3419 0002 8EB0     		sub	sp, sp, #56
 3420              	.LCFI97:
 3421              		.cfi_def_cfa_offset 64
 3422 0004 00AF     		add	r7, sp, #0
 3423              	.LCFI98:
 3424              		.cfi_def_cfa_register 7
 3425 0006 F860     		str	r0, [r7, #12]
 3426 0008 B960     		str	r1, [r7, #8]
 3427 000a 7A60     		str	r2, [r7, #4]
1787:Middlewares/Third_Party/FreeRTOS/Source/queue.c **** BaseType_t xReturn;
1788:Middlewares/Third_Party/FreeRTOS/Source/queue.c **** UBaseType_t uxSavedInterruptStatus;
1789:Middlewares/Third_Party/FreeRTOS/Source/queue.c **** Queue_t * const pxQueue = xQueue;
 3428              		.loc 1 1789 17
 3429 000c FB68     		ldr	r3, [r7, #12]
 3430 000e 3B63     		str	r3, [r7, #48]
1790:Middlewares/Third_Party/FreeRTOS/Source/queue.c **** 
1791:Middlewares/Third_Party/FreeRTOS/Source/queue.c **** 	configASSERT( pxQueue );
 3431              		.loc 1 1791 2
 3432 0010 3B6B     		ldr	r3, [r7, #48]
 3433 0012 002B     		cmp	r3, #0
 3434 0014 0AD1     		bne	.L230
 3435              	.LBB202:
ARM GAS  C:\Users\EI\AppData\Local\Temp\cc6xPaa5.s 			page 97


 3436              	.LBB203:
 195:Middlewares/Third_Party/FreeRTOS/Source/portable/GCC/ARM_CM4F/portmacro.h **** 	(
 3437              		.loc 2 195 2
 3438              		.syntax unified
 3439              	@ 195 "Middlewares/Third_Party/FreeRTOS/Source/portable/GCC/ARM_CM4F/portmacro.h" 1
 3440 0016 4FF05003 			mov r3, #80												
 3441 001a 83F31188 		msr basepri, r3											
 3442 001e BFF36F8F 		isb														
 3443 0022 BFF34F8F 		dsb														
 3444              	
 3445              	@ 0 "" 2
 3446              		.thumb
 3447              		.syntax unified
 3448 0026 3B62     		str	r3, [r7, #32]
 203:Middlewares/Third_Party/FreeRTOS/Source/portable/GCC/ARM_CM4F/portmacro.h **** 
 3449              		.loc 2 203 1
 3450 0028 00BF     		nop
 3451              	.L231:
 3452              	.LBE203:
 3453              	.LBE202:
 3454              		.loc 1 1791 2 discriminator 1
 3455 002a FEE7     		b	.L231
 3456              	.L230:
1792:Middlewares/Third_Party/FreeRTOS/Source/queue.c **** 	configASSERT( !( ( pvBuffer == NULL ) && ( pxQueue->uxItemSize != ( UBaseType_t ) 0U ) ) );
 3457              		.loc 1 1792 2
 3458 002c BB68     		ldr	r3, [r7, #8]
 3459 002e 002B     		cmp	r3, #0
 3460 0030 03D1     		bne	.L232
 3461              		.loc 1 1792 2 is_stmt 0 discriminator 2
 3462 0032 3B6B     		ldr	r3, [r7, #48]
 3463 0034 1B6C     		ldr	r3, [r3, #64]
 3464 0036 002B     		cmp	r3, #0
 3465 0038 01D1     		bne	.L233
 3466              	.L232:
 3467              		.loc 1 1792 2 discriminator 3
 3468 003a 0123     		movs	r3, #1
 3469 003c 00E0     		b	.L234
 3470              	.L233:
 3471              		.loc 1 1792 2 discriminator 4
 3472 003e 0023     		movs	r3, #0
 3473              	.L234:
 3474              		.loc 1 1792 2 discriminator 6
 3475 0040 002B     		cmp	r3, #0
 3476 0042 0AD1     		bne	.L235
 3477              	.LBB204:
 3478              	.LBB205:
 195:Middlewares/Third_Party/FreeRTOS/Source/portable/GCC/ARM_CM4F/portmacro.h **** 	(
 3479              		.loc 2 195 2 is_stmt 1
 3480              		.syntax unified
 3481              	@ 195 "Middlewares/Third_Party/FreeRTOS/Source/portable/GCC/ARM_CM4F/portmacro.h" 1
 3482 0044 4FF05003 			mov r3, #80												
 3483 0048 83F31188 		msr basepri, r3											
 3484 004c BFF36F8F 		isb														
 3485 0050 BFF34F8F 		dsb														
 3486              	
 3487              	@ 0 "" 2
 3488              		.thumb
ARM GAS  C:\Users\EI\AppData\Local\Temp\cc6xPaa5.s 			page 98


 3489              		.syntax unified
 3490 0054 FB61     		str	r3, [r7, #28]
 203:Middlewares/Third_Party/FreeRTOS/Source/portable/GCC/ARM_CM4F/portmacro.h **** 
 3491              		.loc 2 203 1
 3492 0056 00BF     		nop
 3493              	.L236:
 3494              	.LBE205:
 3495              	.LBE204:
 3496              		.loc 1 1792 2 discriminator 2
 3497 0058 FEE7     		b	.L236
 3498              	.L235:
1793:Middlewares/Third_Party/FreeRTOS/Source/queue.c **** 
1794:Middlewares/Third_Party/FreeRTOS/Source/queue.c **** 	/* RTOS ports that support interrupt nesting have the concept of a maximum
1795:Middlewares/Third_Party/FreeRTOS/Source/queue.c **** 	system call (or maximum API call) interrupt priority.  Interrupts that are
1796:Middlewares/Third_Party/FreeRTOS/Source/queue.c **** 	above the maximum system call priority are kept permanently enabled, even
1797:Middlewares/Third_Party/FreeRTOS/Source/queue.c **** 	when the RTOS kernel is in a critical section, but cannot make any calls to
1798:Middlewares/Third_Party/FreeRTOS/Source/queue.c **** 	FreeRTOS API functions.  If configASSERT() is defined in FreeRTOSConfig.h
1799:Middlewares/Third_Party/FreeRTOS/Source/queue.c **** 	then portASSERT_IF_INTERRUPT_PRIORITY_INVALID() will result in an assertion
1800:Middlewares/Third_Party/FreeRTOS/Source/queue.c **** 	failure if a FreeRTOS API function is called from an interrupt that has been
1801:Middlewares/Third_Party/FreeRTOS/Source/queue.c **** 	assigned a priority above the configured maximum system call priority.
1802:Middlewares/Third_Party/FreeRTOS/Source/queue.c **** 	Only FreeRTOS functions that end in FromISR can be called from interrupts
1803:Middlewares/Third_Party/FreeRTOS/Source/queue.c **** 	that have been assigned a priority at or (logically) below the maximum
1804:Middlewares/Third_Party/FreeRTOS/Source/queue.c **** 	system call	interrupt priority.  FreeRTOS maintains a separate interrupt
1805:Middlewares/Third_Party/FreeRTOS/Source/queue.c **** 	safe API to ensure interrupt entry is as fast and as simple as possible.
1806:Middlewares/Third_Party/FreeRTOS/Source/queue.c **** 	More information (albeit Cortex-M specific) is provided on the following
1807:Middlewares/Third_Party/FreeRTOS/Source/queue.c **** 	link: http://www.freertos.org/RTOS-Cortex-M3-M4.html */
1808:Middlewares/Third_Party/FreeRTOS/Source/queue.c **** 	portASSERT_IF_INTERRUPT_PRIORITY_INVALID();
 3499              		.loc 1 1808 2
 3500 005a FFF7FEFF 		bl	vPortValidateInterruptPriority
 3501              	.LBB206:
 3502              	.LBB207:
 211:Middlewares/Third_Party/FreeRTOS/Source/portable/GCC/ARM_CM4F/portmacro.h **** 	(
 3503              		.loc 2 211 2
 3504              		.syntax unified
 3505              	@ 211 "Middlewares/Third_Party/FreeRTOS/Source/portable/GCC/ARM_CM4F/portmacro.h" 1
 3506 005e EFF31182 			mrs r2, basepri											
 3507 0062 4FF05003 		mov r3, #80												
 3508 0066 83F31188 		msr basepri, r3											
 3509 006a BFF36F8F 		isb														
 3510 006e BFF34F8F 		dsb														
 3511              	
 3512              	@ 0 "" 2
 3513              		.thumb
 3514              		.syntax unified
 3515 0072 BA61     		str	r2, [r7, #24]
 3516 0074 7B61     		str	r3, [r7, #20]
 223:Middlewares/Third_Party/FreeRTOS/Source/portable/GCC/ARM_CM4F/portmacro.h **** }
 3517              		.loc 2 223 9
 3518 0076 BB69     		ldr	r3, [r7, #24]
 3519              	.LBE207:
 3520              	.LBE206:
1809:Middlewares/Third_Party/FreeRTOS/Source/queue.c **** 
1810:Middlewares/Third_Party/FreeRTOS/Source/queue.c **** 	uxSavedInterruptStatus = portSET_INTERRUPT_MASK_FROM_ISR();
 3521              		.loc 1 1810 27
 3522 0078 FB62     		str	r3, [r7, #44]
 3523              	.LBB208:
1811:Middlewares/Third_Party/FreeRTOS/Source/queue.c **** 	{
ARM GAS  C:\Users\EI\AppData\Local\Temp\cc6xPaa5.s 			page 99


1812:Middlewares/Third_Party/FreeRTOS/Source/queue.c **** 		const UBaseType_t uxMessagesWaiting = pxQueue->uxMessagesWaiting;
 3524              		.loc 1 1812 21
 3525 007a 3B6B     		ldr	r3, [r7, #48]
 3526 007c 9B6B     		ldr	r3, [r3, #56]
 3527 007e BB62     		str	r3, [r7, #40]
1813:Middlewares/Third_Party/FreeRTOS/Source/queue.c **** 
1814:Middlewares/Third_Party/FreeRTOS/Source/queue.c **** 		/* Cannot block in an ISR, so check there is data available. */
1815:Middlewares/Third_Party/FreeRTOS/Source/queue.c **** 		if( uxMessagesWaiting > ( UBaseType_t ) 0 )
 3528              		.loc 1 1815 5
 3529 0080 BB6A     		ldr	r3, [r7, #40]
 3530 0082 002B     		cmp	r3, #0
 3531 0084 2FD0     		beq	.L238
 3532              	.LBB209:
1816:Middlewares/Third_Party/FreeRTOS/Source/queue.c **** 		{
1817:Middlewares/Third_Party/FreeRTOS/Source/queue.c **** 			const int8_t cRxLock = pxQueue->cRxLock;
 3533              		.loc 1 1817 17
 3534 0086 3B6B     		ldr	r3, [r7, #48]
 3535 0088 93F84430 		ldrb	r3, [r3, #68]
 3536 008c 87F82730 		strb	r3, [r7, #39]
1818:Middlewares/Third_Party/FreeRTOS/Source/queue.c **** 
1819:Middlewares/Third_Party/FreeRTOS/Source/queue.c **** 			traceQUEUE_RECEIVE_FROM_ISR( pxQueue );
1820:Middlewares/Third_Party/FreeRTOS/Source/queue.c **** 
1821:Middlewares/Third_Party/FreeRTOS/Source/queue.c **** 			prvCopyDataFromQueue( pxQueue, pvBuffer );
 3537              		.loc 1 1821 4
 3538 0090 B968     		ldr	r1, [r7, #8]
 3539 0092 386B     		ldr	r0, [r7, #48]
 3540 0094 FFF7FEFF 		bl	prvCopyDataFromQueue
1822:Middlewares/Third_Party/FreeRTOS/Source/queue.c **** 			pxQueue->uxMessagesWaiting = uxMessagesWaiting - ( UBaseType_t ) 1;
 3541              		.loc 1 1822 51
 3542 0098 BB6A     		ldr	r3, [r7, #40]
 3543 009a 5A1E     		subs	r2, r3, #1
 3544              		.loc 1 1822 31
 3545 009c 3B6B     		ldr	r3, [r7, #48]
 3546 009e 9A63     		str	r2, [r3, #56]
1823:Middlewares/Third_Party/FreeRTOS/Source/queue.c **** 
1824:Middlewares/Third_Party/FreeRTOS/Source/queue.c **** 			/* If the queue is locked the event list will not be modified.
1825:Middlewares/Third_Party/FreeRTOS/Source/queue.c **** 			Instead update the lock count so the task that unlocks the queue
1826:Middlewares/Third_Party/FreeRTOS/Source/queue.c **** 			will know that an ISR has removed data while the queue was
1827:Middlewares/Third_Party/FreeRTOS/Source/queue.c **** 			locked. */
1828:Middlewares/Third_Party/FreeRTOS/Source/queue.c **** 			if( cRxLock == queueUNLOCKED )
 3547              		.loc 1 1828 6
 3548 00a0 97F92730 		ldrsb	r3, [r7, #39]
 3549 00a4 B3F1FF3F 		cmp	r3, #-1
 3550 00a8 12D1     		bne	.L239
1829:Middlewares/Third_Party/FreeRTOS/Source/queue.c **** 			{
1830:Middlewares/Third_Party/FreeRTOS/Source/queue.c **** 				if( listLIST_IS_EMPTY( &( pxQueue->xTasksWaitingToSend ) ) == pdFALSE )
 3551              		.loc 1 1830 9
 3552 00aa 3B6B     		ldr	r3, [r7, #48]
 3553 00ac 1B69     		ldr	r3, [r3, #16]
 3554              		.loc 1 1830 7
 3555 00ae 002B     		cmp	r3, #0
 3556 00b0 16D0     		beq	.L240
1831:Middlewares/Third_Party/FreeRTOS/Source/queue.c **** 				{
1832:Middlewares/Third_Party/FreeRTOS/Source/queue.c **** 					if( xTaskRemoveFromEventList( &( pxQueue->xTasksWaitingToSend ) ) != pdFALSE )
 3557              		.loc 1 1832 36
 3558 00b2 3B6B     		ldr	r3, [r7, #48]
 3559 00b4 1033     		adds	r3, r3, #16
ARM GAS  C:\Users\EI\AppData\Local\Temp\cc6xPaa5.s 			page 100


 3560              		.loc 1 1832 10
 3561 00b6 1846     		mov	r0, r3
 3562 00b8 FFF7FEFF 		bl	xTaskRemoveFromEventList
 3563 00bc 0346     		mov	r3, r0
 3564              		.loc 1 1832 8
 3565 00be 002B     		cmp	r3, #0
 3566 00c0 0ED0     		beq	.L240
1833:Middlewares/Third_Party/FreeRTOS/Source/queue.c **** 					{
1834:Middlewares/Third_Party/FreeRTOS/Source/queue.c **** 						/* The task waiting has a higher priority than us so
1835:Middlewares/Third_Party/FreeRTOS/Source/queue.c **** 						force a context switch. */
1836:Middlewares/Third_Party/FreeRTOS/Source/queue.c **** 						if( pxHigherPriorityTaskWoken != NULL )
 3567              		.loc 1 1836 9
 3568 00c2 7B68     		ldr	r3, [r7, #4]
 3569 00c4 002B     		cmp	r3, #0
 3570 00c6 0BD0     		beq	.L240
1837:Middlewares/Third_Party/FreeRTOS/Source/queue.c **** 						{
1838:Middlewares/Third_Party/FreeRTOS/Source/queue.c **** 							*pxHigherPriorityTaskWoken = pdTRUE;
 3571              		.loc 1 1838 35
 3572 00c8 7B68     		ldr	r3, [r7, #4]
 3573 00ca 0122     		movs	r2, #1
 3574 00cc 1A60     		str	r2, [r3]
 3575 00ce 07E0     		b	.L240
 3576              	.L239:
1839:Middlewares/Third_Party/FreeRTOS/Source/queue.c **** 						}
1840:Middlewares/Third_Party/FreeRTOS/Source/queue.c **** 						else
1841:Middlewares/Third_Party/FreeRTOS/Source/queue.c **** 						{
1842:Middlewares/Third_Party/FreeRTOS/Source/queue.c **** 							mtCOVERAGE_TEST_MARKER();
1843:Middlewares/Third_Party/FreeRTOS/Source/queue.c **** 						}
1844:Middlewares/Third_Party/FreeRTOS/Source/queue.c **** 					}
1845:Middlewares/Third_Party/FreeRTOS/Source/queue.c **** 					else
1846:Middlewares/Third_Party/FreeRTOS/Source/queue.c **** 					{
1847:Middlewares/Third_Party/FreeRTOS/Source/queue.c **** 						mtCOVERAGE_TEST_MARKER();
1848:Middlewares/Third_Party/FreeRTOS/Source/queue.c **** 					}
1849:Middlewares/Third_Party/FreeRTOS/Source/queue.c **** 				}
1850:Middlewares/Third_Party/FreeRTOS/Source/queue.c **** 				else
1851:Middlewares/Third_Party/FreeRTOS/Source/queue.c **** 				{
1852:Middlewares/Third_Party/FreeRTOS/Source/queue.c **** 					mtCOVERAGE_TEST_MARKER();
1853:Middlewares/Third_Party/FreeRTOS/Source/queue.c **** 				}
1854:Middlewares/Third_Party/FreeRTOS/Source/queue.c **** 			}
1855:Middlewares/Third_Party/FreeRTOS/Source/queue.c **** 			else
1856:Middlewares/Third_Party/FreeRTOS/Source/queue.c **** 			{
1857:Middlewares/Third_Party/FreeRTOS/Source/queue.c **** 				/* Increment the lock count so the task that unlocks the queue
1858:Middlewares/Third_Party/FreeRTOS/Source/queue.c **** 				knows that data was removed while it was locked. */
1859:Middlewares/Third_Party/FreeRTOS/Source/queue.c **** 				pxQueue->cRxLock = ( int8_t ) ( cRxLock + 1 );
 3577              		.loc 1 1859 45
 3578 00d0 97F82730 		ldrb	r3, [r7, #39]	@ zero_extendqisi2
 3579 00d4 0133     		adds	r3, r3, #1
 3580 00d6 DBB2     		uxtb	r3, r3
 3581              		.loc 1 1859 24
 3582 00d8 5AB2     		sxtb	r2, r3
 3583              		.loc 1 1859 22
 3584 00da 3B6B     		ldr	r3, [r7, #48]
 3585 00dc 83F84420 		strb	r2, [r3, #68]
 3586              	.L240:
1860:Middlewares/Third_Party/FreeRTOS/Source/queue.c **** 			}
1861:Middlewares/Third_Party/FreeRTOS/Source/queue.c **** 
1862:Middlewares/Third_Party/FreeRTOS/Source/queue.c **** 			xReturn = pdPASS;
ARM GAS  C:\Users\EI\AppData\Local\Temp\cc6xPaa5.s 			page 101


 3587              		.loc 1 1862 12
 3588 00e0 0123     		movs	r3, #1
 3589 00e2 7B63     		str	r3, [r7, #52]
 3590              	.LBE209:
 3591 00e4 01E0     		b	.L241
 3592              	.L238:
1863:Middlewares/Third_Party/FreeRTOS/Source/queue.c **** 		}
1864:Middlewares/Third_Party/FreeRTOS/Source/queue.c **** 		else
1865:Middlewares/Third_Party/FreeRTOS/Source/queue.c **** 		{
1866:Middlewares/Third_Party/FreeRTOS/Source/queue.c **** 			xReturn = pdFAIL;
 3593              		.loc 1 1866 12
 3594 00e6 0023     		movs	r3, #0
 3595 00e8 7B63     		str	r3, [r7, #52]
 3596              	.L241:
 3597 00ea FB6A     		ldr	r3, [r7, #44]
 3598 00ec 3B61     		str	r3, [r7, #16]
 3599              	.LBE208:
 3600              	.LBB210:
 3601              	.LBB211:
 229:Middlewares/Third_Party/FreeRTOS/Source/portable/GCC/ARM_CM4F/portmacro.h **** 	(
 3602              		.loc 2 229 2
 3603 00ee 3B69     		ldr	r3, [r7, #16]
 3604              		.syntax unified
 3605              	@ 229 "Middlewares/Third_Party/FreeRTOS/Source/portable/GCC/ARM_CM4F/portmacro.h" 1
 3606 00f0 83F31188 			msr basepri, r3	
 3607              	@ 0 "" 2
 3608              		.loc 2 233 1
 3609              		.thumb
 3610              		.syntax unified
 3611 00f4 00BF     		nop
 3612              	.LBE211:
 3613              	.LBE210:
1867:Middlewares/Third_Party/FreeRTOS/Source/queue.c **** 			traceQUEUE_RECEIVE_FROM_ISR_FAILED( pxQueue );
1868:Middlewares/Third_Party/FreeRTOS/Source/queue.c **** 		}
1869:Middlewares/Third_Party/FreeRTOS/Source/queue.c **** 	}
1870:Middlewares/Third_Party/FreeRTOS/Source/queue.c **** 	portCLEAR_INTERRUPT_MASK_FROM_ISR( uxSavedInterruptStatus );
1871:Middlewares/Third_Party/FreeRTOS/Source/queue.c **** 
1872:Middlewares/Third_Party/FreeRTOS/Source/queue.c **** 	return xReturn;
 3614              		.loc 1 1872 9
 3615 00f6 7B6B     		ldr	r3, [r7, #52]
1873:Middlewares/Third_Party/FreeRTOS/Source/queue.c **** }
 3616              		.loc 1 1873 1
 3617 00f8 1846     		mov	r0, r3
 3618 00fa 3837     		adds	r7, r7, #56
 3619              	.LCFI99:
 3620              		.cfi_def_cfa_offset 8
 3621 00fc BD46     		mov	sp, r7
 3622              	.LCFI100:
 3623              		.cfi_def_cfa_register 13
 3624              		@ sp needed
 3625 00fe 80BD     		pop	{r7, pc}
 3626              		.cfi_endproc
 3627              	.LFE23:
 3629              		.section	.text.xQueuePeekFromISR,"ax",%progbits
 3630              		.align	1
 3631              		.global	xQueuePeekFromISR
 3632              		.syntax unified
ARM GAS  C:\Users\EI\AppData\Local\Temp\cc6xPaa5.s 			page 102


 3633              		.thumb
 3634              		.thumb_func
 3635              		.fpu fpv4-sp-d16
 3637              	xQueuePeekFromISR:
 3638              	.LFB24:
1874:Middlewares/Third_Party/FreeRTOS/Source/queue.c **** /*-----------------------------------------------------------*/
1875:Middlewares/Third_Party/FreeRTOS/Source/queue.c **** 
1876:Middlewares/Third_Party/FreeRTOS/Source/queue.c **** BaseType_t xQueuePeekFromISR( QueueHandle_t xQueue,  void * const pvBuffer )
1877:Middlewares/Third_Party/FreeRTOS/Source/queue.c **** {
 3639              		.loc 1 1877 1
 3640              		.cfi_startproc
 3641              		@ args = 0, pretend = 0, frame = 48
 3642              		@ frame_needed = 1, uses_anonymous_args = 0
 3643 0000 80B5     		push	{r7, lr}
 3644              	.LCFI101:
 3645              		.cfi_def_cfa_offset 8
 3646              		.cfi_offset 7, -8
 3647              		.cfi_offset 14, -4
 3648 0002 8CB0     		sub	sp, sp, #48
 3649              	.LCFI102:
 3650              		.cfi_def_cfa_offset 56
 3651 0004 00AF     		add	r7, sp, #0
 3652              	.LCFI103:
 3653              		.cfi_def_cfa_register 7
 3654 0006 7860     		str	r0, [r7, #4]
 3655 0008 3960     		str	r1, [r7]
1878:Middlewares/Third_Party/FreeRTOS/Source/queue.c **** BaseType_t xReturn;
1879:Middlewares/Third_Party/FreeRTOS/Source/queue.c **** UBaseType_t uxSavedInterruptStatus;
1880:Middlewares/Third_Party/FreeRTOS/Source/queue.c **** int8_t *pcOriginalReadPosition;
1881:Middlewares/Third_Party/FreeRTOS/Source/queue.c **** Queue_t * const pxQueue = xQueue;
 3656              		.loc 1 1881 17
 3657 000a 7B68     		ldr	r3, [r7, #4]
 3658 000c BB62     		str	r3, [r7, #40]
1882:Middlewares/Third_Party/FreeRTOS/Source/queue.c **** 
1883:Middlewares/Third_Party/FreeRTOS/Source/queue.c **** 	configASSERT( pxQueue );
 3659              		.loc 1 1883 2
 3660 000e BB6A     		ldr	r3, [r7, #40]
 3661 0010 002B     		cmp	r3, #0
 3662 0012 0AD1     		bne	.L244
 3663              	.LBB212:
 3664              	.LBB213:
 195:Middlewares/Third_Party/FreeRTOS/Source/portable/GCC/ARM_CM4F/portmacro.h **** 	(
 3665              		.loc 2 195 2
 3666              		.syntax unified
 3667              	@ 195 "Middlewares/Third_Party/FreeRTOS/Source/portable/GCC/ARM_CM4F/portmacro.h" 1
 3668 0014 4FF05003 			mov r3, #80												
 3669 0018 83F31188 		msr basepri, r3											
 3670 001c BFF36F8F 		isb														
 3671 0020 BFF34F8F 		dsb														
 3672              	
 3673              	@ 0 "" 2
 3674              		.thumb
 3675              		.syntax unified
 3676 0024 FB61     		str	r3, [r7, #28]
 203:Middlewares/Third_Party/FreeRTOS/Source/portable/GCC/ARM_CM4F/portmacro.h **** 
 3677              		.loc 2 203 1
 3678 0026 00BF     		nop
ARM GAS  C:\Users\EI\AppData\Local\Temp\cc6xPaa5.s 			page 103


 3679              	.L245:
 3680              	.LBE213:
 3681              	.LBE212:
 3682              		.loc 1 1883 2 discriminator 1
 3683 0028 FEE7     		b	.L245
 3684              	.L244:
1884:Middlewares/Third_Party/FreeRTOS/Source/queue.c **** 	configASSERT( !( ( pvBuffer == NULL ) && ( pxQueue->uxItemSize != ( UBaseType_t ) 0U ) ) );
 3685              		.loc 1 1884 2
 3686 002a 3B68     		ldr	r3, [r7]
 3687 002c 002B     		cmp	r3, #0
 3688 002e 03D1     		bne	.L246
 3689              		.loc 1 1884 2 is_stmt 0 discriminator 2
 3690 0030 BB6A     		ldr	r3, [r7, #40]
 3691 0032 1B6C     		ldr	r3, [r3, #64]
 3692 0034 002B     		cmp	r3, #0
 3693 0036 01D1     		bne	.L247
 3694              	.L246:
 3695              		.loc 1 1884 2 discriminator 3
 3696 0038 0123     		movs	r3, #1
 3697 003a 00E0     		b	.L248
 3698              	.L247:
 3699              		.loc 1 1884 2 discriminator 4
 3700 003c 0023     		movs	r3, #0
 3701              	.L248:
 3702              		.loc 1 1884 2 discriminator 6
 3703 003e 002B     		cmp	r3, #0
 3704 0040 0AD1     		bne	.L249
 3705              	.LBB214:
 3706              	.LBB215:
 195:Middlewares/Third_Party/FreeRTOS/Source/portable/GCC/ARM_CM4F/portmacro.h **** 	(
 3707              		.loc 2 195 2 is_stmt 1
 3708              		.syntax unified
 3709              	@ 195 "Middlewares/Third_Party/FreeRTOS/Source/portable/GCC/ARM_CM4F/portmacro.h" 1
 3710 0042 4FF05003 			mov r3, #80												
 3711 0046 83F31188 		msr basepri, r3											
 3712 004a BFF36F8F 		isb														
 3713 004e BFF34F8F 		dsb														
 3714              	
 3715              	@ 0 "" 2
 3716              		.thumb
 3717              		.syntax unified
 3718 0052 BB61     		str	r3, [r7, #24]
 203:Middlewares/Third_Party/FreeRTOS/Source/portable/GCC/ARM_CM4F/portmacro.h **** 
 3719              		.loc 2 203 1
 3720 0054 00BF     		nop
 3721              	.L250:
 3722              	.LBE215:
 3723              	.LBE214:
 3724              		.loc 1 1884 2 discriminator 2
 3725 0056 FEE7     		b	.L250
 3726              	.L249:
1885:Middlewares/Third_Party/FreeRTOS/Source/queue.c **** 	configASSERT( pxQueue->uxItemSize != 0 ); /* Can't peek a semaphore. */
 3727              		.loc 1 1885 2
 3728 0058 BB6A     		ldr	r3, [r7, #40]
 3729 005a 1B6C     		ldr	r3, [r3, #64]
 3730 005c 002B     		cmp	r3, #0
 3731 005e 0AD1     		bne	.L251
ARM GAS  C:\Users\EI\AppData\Local\Temp\cc6xPaa5.s 			page 104


 3732              	.LBB216:
 3733              	.LBB217:
 195:Middlewares/Third_Party/FreeRTOS/Source/portable/GCC/ARM_CM4F/portmacro.h **** 	(
 3734              		.loc 2 195 2
 3735              		.syntax unified
 3736              	@ 195 "Middlewares/Third_Party/FreeRTOS/Source/portable/GCC/ARM_CM4F/portmacro.h" 1
 3737 0060 4FF05003 			mov r3, #80												
 3738 0064 83F31188 		msr basepri, r3											
 3739 0068 BFF36F8F 		isb														
 3740 006c BFF34F8F 		dsb														
 3741              	
 3742              	@ 0 "" 2
 3743              		.thumb
 3744              		.syntax unified
 3745 0070 7B61     		str	r3, [r7, #20]
 203:Middlewares/Third_Party/FreeRTOS/Source/portable/GCC/ARM_CM4F/portmacro.h **** 
 3746              		.loc 2 203 1
 3747 0072 00BF     		nop
 3748              	.L252:
 3749              	.LBE217:
 3750              	.LBE216:
 3751              		.loc 1 1885 2 discriminator 3
 3752 0074 FEE7     		b	.L252
 3753              	.L251:
1886:Middlewares/Third_Party/FreeRTOS/Source/queue.c **** 
1887:Middlewares/Third_Party/FreeRTOS/Source/queue.c **** 	/* RTOS ports that support interrupt nesting have the concept of a maximum
1888:Middlewares/Third_Party/FreeRTOS/Source/queue.c **** 	system call (or maximum API call) interrupt priority.  Interrupts that are
1889:Middlewares/Third_Party/FreeRTOS/Source/queue.c **** 	above the maximum system call priority are kept permanently enabled, even
1890:Middlewares/Third_Party/FreeRTOS/Source/queue.c **** 	when the RTOS kernel is in a critical section, but cannot make any calls to
1891:Middlewares/Third_Party/FreeRTOS/Source/queue.c **** 	FreeRTOS API functions.  If configASSERT() is defined in FreeRTOSConfig.h
1892:Middlewares/Third_Party/FreeRTOS/Source/queue.c **** 	then portASSERT_IF_INTERRUPT_PRIORITY_INVALID() will result in an assertion
1893:Middlewares/Third_Party/FreeRTOS/Source/queue.c **** 	failure if a FreeRTOS API function is called from an interrupt that has been
1894:Middlewares/Third_Party/FreeRTOS/Source/queue.c **** 	assigned a priority above the configured maximum system call priority.
1895:Middlewares/Third_Party/FreeRTOS/Source/queue.c **** 	Only FreeRTOS functions that end in FromISR can be called from interrupts
1896:Middlewares/Third_Party/FreeRTOS/Source/queue.c **** 	that have been assigned a priority at or (logically) below the maximum
1897:Middlewares/Third_Party/FreeRTOS/Source/queue.c **** 	system call	interrupt priority.  FreeRTOS maintains a separate interrupt
1898:Middlewares/Third_Party/FreeRTOS/Source/queue.c **** 	safe API to ensure interrupt entry is as fast and as simple as possible.
1899:Middlewares/Third_Party/FreeRTOS/Source/queue.c **** 	More information (albeit Cortex-M specific) is provided on the following
1900:Middlewares/Third_Party/FreeRTOS/Source/queue.c **** 	link: http://www.freertos.org/RTOS-Cortex-M3-M4.html */
1901:Middlewares/Third_Party/FreeRTOS/Source/queue.c **** 	portASSERT_IF_INTERRUPT_PRIORITY_INVALID();
 3754              		.loc 1 1901 2
 3755 0076 FFF7FEFF 		bl	vPortValidateInterruptPriority
 3756              	.LBB218:
 3757              	.LBB219:
 211:Middlewares/Third_Party/FreeRTOS/Source/portable/GCC/ARM_CM4F/portmacro.h **** 	(
 3758              		.loc 2 211 2
 3759              		.syntax unified
 3760              	@ 211 "Middlewares/Third_Party/FreeRTOS/Source/portable/GCC/ARM_CM4F/portmacro.h" 1
 3761 007a EFF31182 			mrs r2, basepri											
 3762 007e 4FF05003 		mov r3, #80												
 3763 0082 83F31188 		msr basepri, r3											
 3764 0086 BFF36F8F 		isb														
 3765 008a BFF34F8F 		dsb														
 3766              	
 3767              	@ 0 "" 2
 3768              		.thumb
 3769              		.syntax unified
ARM GAS  C:\Users\EI\AppData\Local\Temp\cc6xPaa5.s 			page 105


 3770 008e 3A61     		str	r2, [r7, #16]
 3771 0090 FB60     		str	r3, [r7, #12]
 223:Middlewares/Third_Party/FreeRTOS/Source/portable/GCC/ARM_CM4F/portmacro.h **** }
 3772              		.loc 2 223 9
 3773 0092 3B69     		ldr	r3, [r7, #16]
 3774              	.LBE219:
 3775              	.LBE218:
1902:Middlewares/Third_Party/FreeRTOS/Source/queue.c **** 
1903:Middlewares/Third_Party/FreeRTOS/Source/queue.c **** 	uxSavedInterruptStatus = portSET_INTERRUPT_MASK_FROM_ISR();
 3776              		.loc 1 1903 27
 3777 0094 7B62     		str	r3, [r7, #36]
1904:Middlewares/Third_Party/FreeRTOS/Source/queue.c **** 	{
1905:Middlewares/Third_Party/FreeRTOS/Source/queue.c **** 		/* Cannot block in an ISR, so check there is data available. */
1906:Middlewares/Third_Party/FreeRTOS/Source/queue.c **** 		if( pxQueue->uxMessagesWaiting > ( UBaseType_t ) 0 )
 3778              		.loc 1 1906 14
 3779 0096 BB6A     		ldr	r3, [r7, #40]
 3780 0098 9B6B     		ldr	r3, [r3, #56]
 3781              		.loc 1 1906 5
 3782 009a 002B     		cmp	r3, #0
 3783 009c 0CD0     		beq	.L254
1907:Middlewares/Third_Party/FreeRTOS/Source/queue.c **** 		{
1908:Middlewares/Third_Party/FreeRTOS/Source/queue.c **** 			traceQUEUE_PEEK_FROM_ISR( pxQueue );
1909:Middlewares/Third_Party/FreeRTOS/Source/queue.c **** 
1910:Middlewares/Third_Party/FreeRTOS/Source/queue.c **** 			/* Remember the read position so it can be reset as nothing is
1911:Middlewares/Third_Party/FreeRTOS/Source/queue.c **** 			actually being removed from the queue. */
1912:Middlewares/Third_Party/FreeRTOS/Source/queue.c **** 			pcOriginalReadPosition = pxQueue->u.xQueue.pcReadFrom;
 3784              		.loc 1 1912 27
 3785 009e BB6A     		ldr	r3, [r7, #40]
 3786 00a0 DB68     		ldr	r3, [r3, #12]
 3787 00a2 3B62     		str	r3, [r7, #32]
1913:Middlewares/Third_Party/FreeRTOS/Source/queue.c **** 			prvCopyDataFromQueue( pxQueue, pvBuffer );
 3788              		.loc 1 1913 4
 3789 00a4 3968     		ldr	r1, [r7]
 3790 00a6 B86A     		ldr	r0, [r7, #40]
 3791 00a8 FFF7FEFF 		bl	prvCopyDataFromQueue
1914:Middlewares/Third_Party/FreeRTOS/Source/queue.c **** 			pxQueue->u.xQueue.pcReadFrom = pcOriginalReadPosition;
 3792              		.loc 1 1914 33
 3793 00ac BB6A     		ldr	r3, [r7, #40]
 3794 00ae 3A6A     		ldr	r2, [r7, #32]
 3795 00b0 DA60     		str	r2, [r3, #12]
1915:Middlewares/Third_Party/FreeRTOS/Source/queue.c **** 
1916:Middlewares/Third_Party/FreeRTOS/Source/queue.c **** 			xReturn = pdPASS;
 3796              		.loc 1 1916 12
 3797 00b2 0123     		movs	r3, #1
 3798 00b4 FB62     		str	r3, [r7, #44]
 3799 00b6 01E0     		b	.L255
 3800              	.L254:
1917:Middlewares/Third_Party/FreeRTOS/Source/queue.c **** 		}
1918:Middlewares/Third_Party/FreeRTOS/Source/queue.c **** 		else
1919:Middlewares/Third_Party/FreeRTOS/Source/queue.c **** 		{
1920:Middlewares/Third_Party/FreeRTOS/Source/queue.c **** 			xReturn = pdFAIL;
 3801              		.loc 1 1920 12
 3802 00b8 0023     		movs	r3, #0
 3803 00ba FB62     		str	r3, [r7, #44]
 3804              	.L255:
 3805 00bc 7B6A     		ldr	r3, [r7, #36]
 3806 00be BB60     		str	r3, [r7, #8]
ARM GAS  C:\Users\EI\AppData\Local\Temp\cc6xPaa5.s 			page 106


 3807              	.LBB220:
 3808              	.LBB221:
 229:Middlewares/Third_Party/FreeRTOS/Source/portable/GCC/ARM_CM4F/portmacro.h **** 	(
 3809              		.loc 2 229 2
 3810 00c0 BB68     		ldr	r3, [r7, #8]
 3811              		.syntax unified
 3812              	@ 229 "Middlewares/Third_Party/FreeRTOS/Source/portable/GCC/ARM_CM4F/portmacro.h" 1
 3813 00c2 83F31188 			msr basepri, r3	
 3814              	@ 0 "" 2
 3815              		.loc 2 233 1
 3816              		.thumb
 3817              		.syntax unified
 3818 00c6 00BF     		nop
 3819              	.LBE221:
 3820              	.LBE220:
1921:Middlewares/Third_Party/FreeRTOS/Source/queue.c **** 			traceQUEUE_PEEK_FROM_ISR_FAILED( pxQueue );
1922:Middlewares/Third_Party/FreeRTOS/Source/queue.c **** 		}
1923:Middlewares/Third_Party/FreeRTOS/Source/queue.c **** 	}
1924:Middlewares/Third_Party/FreeRTOS/Source/queue.c **** 	portCLEAR_INTERRUPT_MASK_FROM_ISR( uxSavedInterruptStatus );
1925:Middlewares/Third_Party/FreeRTOS/Source/queue.c **** 
1926:Middlewares/Third_Party/FreeRTOS/Source/queue.c **** 	return xReturn;
 3821              		.loc 1 1926 9
 3822 00c8 FB6A     		ldr	r3, [r7, #44]
1927:Middlewares/Third_Party/FreeRTOS/Source/queue.c **** }
 3823              		.loc 1 1927 1
 3824 00ca 1846     		mov	r0, r3
 3825 00cc 3037     		adds	r7, r7, #48
 3826              	.LCFI104:
 3827              		.cfi_def_cfa_offset 8
 3828 00ce BD46     		mov	sp, r7
 3829              	.LCFI105:
 3830              		.cfi_def_cfa_register 13
 3831              		@ sp needed
 3832 00d0 80BD     		pop	{r7, pc}
 3833              		.cfi_endproc
 3834              	.LFE24:
 3836              		.section	.text.uxQueueMessagesWaiting,"ax",%progbits
 3837              		.align	1
 3838              		.global	uxQueueMessagesWaiting
 3839              		.syntax unified
 3840              		.thumb
 3841              		.thumb_func
 3842              		.fpu fpv4-sp-d16
 3844              	uxQueueMessagesWaiting:
 3845              	.LFB25:
1928:Middlewares/Third_Party/FreeRTOS/Source/queue.c **** /*-----------------------------------------------------------*/
1929:Middlewares/Third_Party/FreeRTOS/Source/queue.c **** 
1930:Middlewares/Third_Party/FreeRTOS/Source/queue.c **** UBaseType_t uxQueueMessagesWaiting( const QueueHandle_t xQueue )
1931:Middlewares/Third_Party/FreeRTOS/Source/queue.c **** {
 3846              		.loc 1 1931 1
 3847              		.cfi_startproc
 3848              		@ args = 0, pretend = 0, frame = 16
 3849              		@ frame_needed = 1, uses_anonymous_args = 0
 3850 0000 80B5     		push	{r7, lr}
 3851              	.LCFI106:
 3852              		.cfi_def_cfa_offset 8
 3853              		.cfi_offset 7, -8
ARM GAS  C:\Users\EI\AppData\Local\Temp\cc6xPaa5.s 			page 107


 3854              		.cfi_offset 14, -4
 3855 0002 84B0     		sub	sp, sp, #16
 3856              	.LCFI107:
 3857              		.cfi_def_cfa_offset 24
 3858 0004 00AF     		add	r7, sp, #0
 3859              	.LCFI108:
 3860              		.cfi_def_cfa_register 7
 3861 0006 7860     		str	r0, [r7, #4]
1932:Middlewares/Third_Party/FreeRTOS/Source/queue.c **** UBaseType_t uxReturn;
1933:Middlewares/Third_Party/FreeRTOS/Source/queue.c **** 
1934:Middlewares/Third_Party/FreeRTOS/Source/queue.c **** 	configASSERT( xQueue );
 3862              		.loc 1 1934 2
 3863 0008 7B68     		ldr	r3, [r7, #4]
 3864 000a 002B     		cmp	r3, #0
 3865 000c 0AD1     		bne	.L258
 3866              	.LBB222:
 3867              	.LBB223:
 195:Middlewares/Third_Party/FreeRTOS/Source/portable/GCC/ARM_CM4F/portmacro.h **** 	(
 3868              		.loc 2 195 2
 3869              		.syntax unified
 3870              	@ 195 "Middlewares/Third_Party/FreeRTOS/Source/portable/GCC/ARM_CM4F/portmacro.h" 1
 3871 000e 4FF05003 			mov r3, #80												
 3872 0012 83F31188 		msr basepri, r3											
 3873 0016 BFF36F8F 		isb														
 3874 001a BFF34F8F 		dsb														
 3875              	
 3876              	@ 0 "" 2
 3877              		.thumb
 3878              		.syntax unified
 3879 001e BB60     		str	r3, [r7, #8]
 203:Middlewares/Third_Party/FreeRTOS/Source/portable/GCC/ARM_CM4F/portmacro.h **** 
 3880              		.loc 2 203 1
 3881 0020 00BF     		nop
 3882              	.L259:
 3883              	.LBE223:
 3884              	.LBE222:
 3885              		.loc 1 1934 2 discriminator 1
 3886 0022 FEE7     		b	.L259
 3887              	.L258:
1935:Middlewares/Third_Party/FreeRTOS/Source/queue.c **** 
1936:Middlewares/Third_Party/FreeRTOS/Source/queue.c **** 	taskENTER_CRITICAL();
 3888              		.loc 1 1936 2
 3889 0024 FFF7FEFF 		bl	vPortEnterCritical
1937:Middlewares/Third_Party/FreeRTOS/Source/queue.c **** 	{
1938:Middlewares/Third_Party/FreeRTOS/Source/queue.c **** 		uxReturn = ( ( Queue_t * ) xQueue )->uxMessagesWaiting;
 3890              		.loc 1 1938 12
 3891 0028 7B68     		ldr	r3, [r7, #4]
 3892 002a 9B6B     		ldr	r3, [r3, #56]
 3893 002c FB60     		str	r3, [r7, #12]
1939:Middlewares/Third_Party/FreeRTOS/Source/queue.c **** 	}
1940:Middlewares/Third_Party/FreeRTOS/Source/queue.c **** 	taskEXIT_CRITICAL();
 3894              		.loc 1 1940 2
 3895 002e FFF7FEFF 		bl	vPortExitCritical
1941:Middlewares/Third_Party/FreeRTOS/Source/queue.c **** 
1942:Middlewares/Third_Party/FreeRTOS/Source/queue.c **** 	return uxReturn;
 3896              		.loc 1 1942 9
 3897 0032 FB68     		ldr	r3, [r7, #12]
ARM GAS  C:\Users\EI\AppData\Local\Temp\cc6xPaa5.s 			page 108


1943:Middlewares/Third_Party/FreeRTOS/Source/queue.c **** } /*lint !e818 Pointer cannot be declared const as xQueue is a typedef not pointer. */
 3898              		.loc 1 1943 1
 3899 0034 1846     		mov	r0, r3
 3900 0036 1037     		adds	r7, r7, #16
 3901              	.LCFI109:
 3902              		.cfi_def_cfa_offset 8
 3903 0038 BD46     		mov	sp, r7
 3904              	.LCFI110:
 3905              		.cfi_def_cfa_register 13
 3906              		@ sp needed
 3907 003a 80BD     		pop	{r7, pc}
 3908              		.cfi_endproc
 3909              	.LFE25:
 3911              		.section	.text.uxQueueSpacesAvailable,"ax",%progbits
 3912              		.align	1
 3913              		.global	uxQueueSpacesAvailable
 3914              		.syntax unified
 3915              		.thumb
 3916              		.thumb_func
 3917              		.fpu fpv4-sp-d16
 3919              	uxQueueSpacesAvailable:
 3920              	.LFB26:
1944:Middlewares/Third_Party/FreeRTOS/Source/queue.c **** /*-----------------------------------------------------------*/
1945:Middlewares/Third_Party/FreeRTOS/Source/queue.c **** 
1946:Middlewares/Third_Party/FreeRTOS/Source/queue.c **** UBaseType_t uxQueueSpacesAvailable( const QueueHandle_t xQueue )
1947:Middlewares/Third_Party/FreeRTOS/Source/queue.c **** {
 3921              		.loc 1 1947 1
 3922              		.cfi_startproc
 3923              		@ args = 0, pretend = 0, frame = 24
 3924              		@ frame_needed = 1, uses_anonymous_args = 0
 3925 0000 80B5     		push	{r7, lr}
 3926              	.LCFI111:
 3927              		.cfi_def_cfa_offset 8
 3928              		.cfi_offset 7, -8
 3929              		.cfi_offset 14, -4
 3930 0002 86B0     		sub	sp, sp, #24
 3931              	.LCFI112:
 3932              		.cfi_def_cfa_offset 32
 3933 0004 00AF     		add	r7, sp, #0
 3934              	.LCFI113:
 3935              		.cfi_def_cfa_register 7
 3936 0006 7860     		str	r0, [r7, #4]
1948:Middlewares/Third_Party/FreeRTOS/Source/queue.c **** UBaseType_t uxReturn;
1949:Middlewares/Third_Party/FreeRTOS/Source/queue.c **** Queue_t * const pxQueue = xQueue;
 3937              		.loc 1 1949 17
 3938 0008 7B68     		ldr	r3, [r7, #4]
 3939 000a 7B61     		str	r3, [r7, #20]
1950:Middlewares/Third_Party/FreeRTOS/Source/queue.c **** 
1951:Middlewares/Third_Party/FreeRTOS/Source/queue.c **** 	configASSERT( pxQueue );
 3940              		.loc 1 1951 2
 3941 000c 7B69     		ldr	r3, [r7, #20]
 3942 000e 002B     		cmp	r3, #0
 3943 0010 0AD1     		bne	.L262
 3944              	.LBB224:
 3945              	.LBB225:
 195:Middlewares/Third_Party/FreeRTOS/Source/portable/GCC/ARM_CM4F/portmacro.h **** 	(
 3946              		.loc 2 195 2
ARM GAS  C:\Users\EI\AppData\Local\Temp\cc6xPaa5.s 			page 109


 3947              		.syntax unified
 3948              	@ 195 "Middlewares/Third_Party/FreeRTOS/Source/portable/GCC/ARM_CM4F/portmacro.h" 1
 3949 0012 4FF05003 			mov r3, #80												
 3950 0016 83F31188 		msr basepri, r3											
 3951 001a BFF36F8F 		isb														
 3952 001e BFF34F8F 		dsb														
 3953              	
 3954              	@ 0 "" 2
 3955              		.thumb
 3956              		.syntax unified
 3957 0022 FB60     		str	r3, [r7, #12]
 203:Middlewares/Third_Party/FreeRTOS/Source/portable/GCC/ARM_CM4F/portmacro.h **** 
 3958              		.loc 2 203 1
 3959 0024 00BF     		nop
 3960              	.L263:
 3961              	.LBE225:
 3962              	.LBE224:
 3963              		.loc 1 1951 2 discriminator 1
 3964 0026 FEE7     		b	.L263
 3965              	.L262:
1952:Middlewares/Third_Party/FreeRTOS/Source/queue.c **** 
1953:Middlewares/Third_Party/FreeRTOS/Source/queue.c **** 	taskENTER_CRITICAL();
 3966              		.loc 1 1953 2
 3967 0028 FFF7FEFF 		bl	vPortEnterCritical
1954:Middlewares/Third_Party/FreeRTOS/Source/queue.c **** 	{
1955:Middlewares/Third_Party/FreeRTOS/Source/queue.c **** 		uxReturn = pxQueue->uxLength - pxQueue->uxMessagesWaiting;
 3968              		.loc 1 1955 21
 3969 002c 7B69     		ldr	r3, [r7, #20]
 3970 002e DA6B     		ldr	r2, [r3, #60]
 3971              		.loc 1 1955 41
 3972 0030 7B69     		ldr	r3, [r7, #20]
 3973 0032 9B6B     		ldr	r3, [r3, #56]
 3974              		.loc 1 1955 12
 3975 0034 D31A     		subs	r3, r2, r3
 3976 0036 3B61     		str	r3, [r7, #16]
1956:Middlewares/Third_Party/FreeRTOS/Source/queue.c **** 	}
1957:Middlewares/Third_Party/FreeRTOS/Source/queue.c **** 	taskEXIT_CRITICAL();
 3977              		.loc 1 1957 2
 3978 0038 FFF7FEFF 		bl	vPortExitCritical
1958:Middlewares/Third_Party/FreeRTOS/Source/queue.c **** 
1959:Middlewares/Third_Party/FreeRTOS/Source/queue.c **** 	return uxReturn;
 3979              		.loc 1 1959 9
 3980 003c 3B69     		ldr	r3, [r7, #16]
1960:Middlewares/Third_Party/FreeRTOS/Source/queue.c **** } /*lint !e818 Pointer cannot be declared const as xQueue is a typedef not pointer. */
 3981              		.loc 1 1960 1
 3982 003e 1846     		mov	r0, r3
 3983 0040 1837     		adds	r7, r7, #24
 3984              	.LCFI114:
 3985              		.cfi_def_cfa_offset 8
 3986 0042 BD46     		mov	sp, r7
 3987              	.LCFI115:
 3988              		.cfi_def_cfa_register 13
 3989              		@ sp needed
 3990 0044 80BD     		pop	{r7, pc}
 3991              		.cfi_endproc
 3992              	.LFE26:
 3994              		.section	.text.uxQueueMessagesWaitingFromISR,"ax",%progbits
ARM GAS  C:\Users\EI\AppData\Local\Temp\cc6xPaa5.s 			page 110


 3995              		.align	1
 3996              		.global	uxQueueMessagesWaitingFromISR
 3997              		.syntax unified
 3998              		.thumb
 3999              		.thumb_func
 4000              		.fpu fpv4-sp-d16
 4002              	uxQueueMessagesWaitingFromISR:
 4003              	.LFB27:
1961:Middlewares/Third_Party/FreeRTOS/Source/queue.c **** /*-----------------------------------------------------------*/
1962:Middlewares/Third_Party/FreeRTOS/Source/queue.c **** 
1963:Middlewares/Third_Party/FreeRTOS/Source/queue.c **** UBaseType_t uxQueueMessagesWaitingFromISR( const QueueHandle_t xQueue )
1964:Middlewares/Third_Party/FreeRTOS/Source/queue.c **** {
 4004              		.loc 1 1964 1
 4005              		.cfi_startproc
 4006              		@ args = 0, pretend = 0, frame = 24
 4007              		@ frame_needed = 1, uses_anonymous_args = 0
 4008              		@ link register save eliminated.
 4009 0000 80B4     		push	{r7}
 4010              	.LCFI116:
 4011              		.cfi_def_cfa_offset 4
 4012              		.cfi_offset 7, -4
 4013 0002 87B0     		sub	sp, sp, #28
 4014              	.LCFI117:
 4015              		.cfi_def_cfa_offset 32
 4016 0004 00AF     		add	r7, sp, #0
 4017              	.LCFI118:
 4018              		.cfi_def_cfa_register 7
 4019 0006 7860     		str	r0, [r7, #4]
1965:Middlewares/Third_Party/FreeRTOS/Source/queue.c **** UBaseType_t uxReturn;
1966:Middlewares/Third_Party/FreeRTOS/Source/queue.c **** Queue_t * const pxQueue = xQueue;
 4020              		.loc 1 1966 17
 4021 0008 7B68     		ldr	r3, [r7, #4]
 4022 000a 7B61     		str	r3, [r7, #20]
1967:Middlewares/Third_Party/FreeRTOS/Source/queue.c **** 
1968:Middlewares/Third_Party/FreeRTOS/Source/queue.c **** 	configASSERT( pxQueue );
 4023              		.loc 1 1968 2
 4024 000c 7B69     		ldr	r3, [r7, #20]
 4025 000e 002B     		cmp	r3, #0
 4026 0010 0AD1     		bne	.L266
 4027              	.LBB226:
 4028              	.LBB227:
 195:Middlewares/Third_Party/FreeRTOS/Source/portable/GCC/ARM_CM4F/portmacro.h **** 	(
 4029              		.loc 2 195 2
 4030              		.syntax unified
 4031              	@ 195 "Middlewares/Third_Party/FreeRTOS/Source/portable/GCC/ARM_CM4F/portmacro.h" 1
 4032 0012 4FF05003 			mov r3, #80												
 4033 0016 83F31188 		msr basepri, r3											
 4034 001a BFF36F8F 		isb														
 4035 001e BFF34F8F 		dsb														
 4036              	
 4037              	@ 0 "" 2
 4038              		.thumb
 4039              		.syntax unified
 4040 0022 FB60     		str	r3, [r7, #12]
 203:Middlewares/Third_Party/FreeRTOS/Source/portable/GCC/ARM_CM4F/portmacro.h **** 
 4041              		.loc 2 203 1
 4042 0024 00BF     		nop
ARM GAS  C:\Users\EI\AppData\Local\Temp\cc6xPaa5.s 			page 111


 4043              	.L267:
 4044              	.LBE227:
 4045              	.LBE226:
 4046              		.loc 1 1968 2 discriminator 1
 4047 0026 FEE7     		b	.L267
 4048              	.L266:
1969:Middlewares/Third_Party/FreeRTOS/Source/queue.c **** 	uxReturn = pxQueue->uxMessagesWaiting;
 4049              		.loc 1 1969 11
 4050 0028 7B69     		ldr	r3, [r7, #20]
 4051 002a 9B6B     		ldr	r3, [r3, #56]
 4052 002c 3B61     		str	r3, [r7, #16]
1970:Middlewares/Third_Party/FreeRTOS/Source/queue.c **** 
1971:Middlewares/Third_Party/FreeRTOS/Source/queue.c **** 	return uxReturn;
 4053              		.loc 1 1971 9
 4054 002e 3B69     		ldr	r3, [r7, #16]
1972:Middlewares/Third_Party/FreeRTOS/Source/queue.c **** } /*lint !e818 Pointer cannot be declared const as xQueue is a typedef not pointer. */
 4055              		.loc 1 1972 1
 4056 0030 1846     		mov	r0, r3
 4057 0032 1C37     		adds	r7, r7, #28
 4058              	.LCFI119:
 4059              		.cfi_def_cfa_offset 4
 4060 0034 BD46     		mov	sp, r7
 4061              	.LCFI120:
 4062              		.cfi_def_cfa_register 13
 4063              		@ sp needed
 4064 0036 5DF8047B 		ldr	r7, [sp], #4
 4065              	.LCFI121:
 4066              		.cfi_restore 7
 4067              		.cfi_def_cfa_offset 0
 4068 003a 7047     		bx	lr
 4069              		.cfi_endproc
 4070              	.LFE27:
 4072              		.section	.text.vQueueDelete,"ax",%progbits
 4073              		.align	1
 4074              		.global	vQueueDelete
 4075              		.syntax unified
 4076              		.thumb
 4077              		.thumb_func
 4078              		.fpu fpv4-sp-d16
 4080              	vQueueDelete:
 4081              	.LFB28:
1973:Middlewares/Third_Party/FreeRTOS/Source/queue.c **** /*-----------------------------------------------------------*/
1974:Middlewares/Third_Party/FreeRTOS/Source/queue.c **** 
1975:Middlewares/Third_Party/FreeRTOS/Source/queue.c **** void vQueueDelete( QueueHandle_t xQueue )
1976:Middlewares/Third_Party/FreeRTOS/Source/queue.c **** {
 4082              		.loc 1 1976 1
 4083              		.cfi_startproc
 4084              		@ args = 0, pretend = 0, frame = 16
 4085              		@ frame_needed = 1, uses_anonymous_args = 0
 4086 0000 80B5     		push	{r7, lr}
 4087              	.LCFI122:
 4088              		.cfi_def_cfa_offset 8
 4089              		.cfi_offset 7, -8
 4090              		.cfi_offset 14, -4
 4091 0002 84B0     		sub	sp, sp, #16
 4092              	.LCFI123:
 4093              		.cfi_def_cfa_offset 24
ARM GAS  C:\Users\EI\AppData\Local\Temp\cc6xPaa5.s 			page 112


 4094 0004 00AF     		add	r7, sp, #0
 4095              	.LCFI124:
 4096              		.cfi_def_cfa_register 7
 4097 0006 7860     		str	r0, [r7, #4]
1977:Middlewares/Third_Party/FreeRTOS/Source/queue.c **** Queue_t * const pxQueue = xQueue;
 4098              		.loc 1 1977 17
 4099 0008 7B68     		ldr	r3, [r7, #4]
 4100 000a FB60     		str	r3, [r7, #12]
1978:Middlewares/Third_Party/FreeRTOS/Source/queue.c **** 
1979:Middlewares/Third_Party/FreeRTOS/Source/queue.c **** 	configASSERT( pxQueue );
 4101              		.loc 1 1979 2
 4102 000c FB68     		ldr	r3, [r7, #12]
 4103 000e 002B     		cmp	r3, #0
 4104 0010 0AD1     		bne	.L270
 4105              	.LBB228:
 4106              	.LBB229:
 195:Middlewares/Third_Party/FreeRTOS/Source/portable/GCC/ARM_CM4F/portmacro.h **** 	(
 4107              		.loc 2 195 2
 4108              		.syntax unified
 4109              	@ 195 "Middlewares/Third_Party/FreeRTOS/Source/portable/GCC/ARM_CM4F/portmacro.h" 1
 4110 0012 4FF05003 			mov r3, #80												
 4111 0016 83F31188 		msr basepri, r3											
 4112 001a BFF36F8F 		isb														
 4113 001e BFF34F8F 		dsb														
 4114              	
 4115              	@ 0 "" 2
 4116              		.thumb
 4117              		.syntax unified
 4118 0022 BB60     		str	r3, [r7, #8]
 203:Middlewares/Third_Party/FreeRTOS/Source/portable/GCC/ARM_CM4F/portmacro.h **** 
 4119              		.loc 2 203 1
 4120 0024 00BF     		nop
 4121              	.L271:
 4122              	.LBE229:
 4123              	.LBE228:
 4124              		.loc 1 1979 2 discriminator 1
 4125 0026 FEE7     		b	.L271
 4126              	.L270:
1980:Middlewares/Third_Party/FreeRTOS/Source/queue.c **** 	traceQUEUE_DELETE( pxQueue );
1981:Middlewares/Third_Party/FreeRTOS/Source/queue.c **** 
1982:Middlewares/Third_Party/FreeRTOS/Source/queue.c **** 	#if ( configQUEUE_REGISTRY_SIZE > 0 )
1983:Middlewares/Third_Party/FreeRTOS/Source/queue.c **** 	{
1984:Middlewares/Third_Party/FreeRTOS/Source/queue.c **** 		vQueueUnregisterQueue( pxQueue );
 4127              		.loc 1 1984 3
 4128 0028 F868     		ldr	r0, [r7, #12]
 4129 002a FFF7FEFF 		bl	vQueueUnregisterQueue
1985:Middlewares/Third_Party/FreeRTOS/Source/queue.c **** 	}
1986:Middlewares/Third_Party/FreeRTOS/Source/queue.c **** 	#endif
1987:Middlewares/Third_Party/FreeRTOS/Source/queue.c **** 
1988:Middlewares/Third_Party/FreeRTOS/Source/queue.c **** 	#if( ( configSUPPORT_DYNAMIC_ALLOCATION == 1 ) && ( configSUPPORT_STATIC_ALLOCATION == 0 ) )
1989:Middlewares/Third_Party/FreeRTOS/Source/queue.c **** 	{
1990:Middlewares/Third_Party/FreeRTOS/Source/queue.c **** 		/* The queue can only have been allocated dynamically - free it
1991:Middlewares/Third_Party/FreeRTOS/Source/queue.c **** 		again. */
1992:Middlewares/Third_Party/FreeRTOS/Source/queue.c **** 		vPortFree( pxQueue );
1993:Middlewares/Third_Party/FreeRTOS/Source/queue.c **** 	}
1994:Middlewares/Third_Party/FreeRTOS/Source/queue.c **** 	#elif( ( configSUPPORT_DYNAMIC_ALLOCATION == 1 ) && ( configSUPPORT_STATIC_ALLOCATION == 1 ) )
1995:Middlewares/Third_Party/FreeRTOS/Source/queue.c **** 	{
ARM GAS  C:\Users\EI\AppData\Local\Temp\cc6xPaa5.s 			page 113


1996:Middlewares/Third_Party/FreeRTOS/Source/queue.c **** 		/* The queue could have been allocated statically or dynamically, so
1997:Middlewares/Third_Party/FreeRTOS/Source/queue.c **** 		check before attempting to free the memory. */
1998:Middlewares/Third_Party/FreeRTOS/Source/queue.c **** 		if( pxQueue->ucStaticallyAllocated == ( uint8_t ) pdFALSE )
 4130              		.loc 1 1998 14
 4131 002e FB68     		ldr	r3, [r7, #12]
 4132 0030 93F84630 		ldrb	r3, [r3, #70]	@ zero_extendqisi2
 4133              		.loc 1 1998 5
 4134 0034 002B     		cmp	r3, #0
 4135 0036 02D1     		bne	.L273
1999:Middlewares/Third_Party/FreeRTOS/Source/queue.c **** 		{
2000:Middlewares/Third_Party/FreeRTOS/Source/queue.c **** 			vPortFree( pxQueue );
 4136              		.loc 1 2000 4
 4137 0038 F868     		ldr	r0, [r7, #12]
 4138 003a FFF7FEFF 		bl	vPortFree
 4139              	.L273:
2001:Middlewares/Third_Party/FreeRTOS/Source/queue.c **** 		}
2002:Middlewares/Third_Party/FreeRTOS/Source/queue.c **** 		else
2003:Middlewares/Third_Party/FreeRTOS/Source/queue.c **** 		{
2004:Middlewares/Third_Party/FreeRTOS/Source/queue.c **** 			mtCOVERAGE_TEST_MARKER();
2005:Middlewares/Third_Party/FreeRTOS/Source/queue.c **** 		}
2006:Middlewares/Third_Party/FreeRTOS/Source/queue.c **** 	}
2007:Middlewares/Third_Party/FreeRTOS/Source/queue.c **** 	#else
2008:Middlewares/Third_Party/FreeRTOS/Source/queue.c **** 	{
2009:Middlewares/Third_Party/FreeRTOS/Source/queue.c **** 		/* The queue must have been statically allocated, so is not going to be
2010:Middlewares/Third_Party/FreeRTOS/Source/queue.c **** 		deleted.  Avoid compiler warnings about the unused parameter. */
2011:Middlewares/Third_Party/FreeRTOS/Source/queue.c **** 		( void ) pxQueue;
2012:Middlewares/Third_Party/FreeRTOS/Source/queue.c **** 	}
2013:Middlewares/Third_Party/FreeRTOS/Source/queue.c **** 	#endif /* configSUPPORT_DYNAMIC_ALLOCATION */
2014:Middlewares/Third_Party/FreeRTOS/Source/queue.c **** }
 4140              		.loc 1 2014 1
 4141 003e 00BF     		nop
 4142 0040 1037     		adds	r7, r7, #16
 4143              	.LCFI125:
 4144              		.cfi_def_cfa_offset 8
 4145 0042 BD46     		mov	sp, r7
 4146              	.LCFI126:
 4147              		.cfi_def_cfa_register 13
 4148              		@ sp needed
 4149 0044 80BD     		pop	{r7, pc}
 4150              		.cfi_endproc
 4151              	.LFE28:
 4153              		.section	.text.uxQueueGetQueueNumber,"ax",%progbits
 4154              		.align	1
 4155              		.global	uxQueueGetQueueNumber
 4156              		.syntax unified
 4157              		.thumb
 4158              		.thumb_func
 4159              		.fpu fpv4-sp-d16
 4161              	uxQueueGetQueueNumber:
 4162              	.LFB29:
2015:Middlewares/Third_Party/FreeRTOS/Source/queue.c **** /*-----------------------------------------------------------*/
2016:Middlewares/Third_Party/FreeRTOS/Source/queue.c **** 
2017:Middlewares/Third_Party/FreeRTOS/Source/queue.c **** #if ( configUSE_TRACE_FACILITY == 1 )
2018:Middlewares/Third_Party/FreeRTOS/Source/queue.c **** 
2019:Middlewares/Third_Party/FreeRTOS/Source/queue.c **** 	UBaseType_t uxQueueGetQueueNumber( QueueHandle_t xQueue )
2020:Middlewares/Third_Party/FreeRTOS/Source/queue.c **** 	{
 4163              		.loc 1 2020 2
ARM GAS  C:\Users\EI\AppData\Local\Temp\cc6xPaa5.s 			page 114


 4164              		.cfi_startproc
 4165              		@ args = 0, pretend = 0, frame = 8
 4166              		@ frame_needed = 1, uses_anonymous_args = 0
 4167              		@ link register save eliminated.
 4168 0000 80B4     		push	{r7}
 4169              	.LCFI127:
 4170              		.cfi_def_cfa_offset 4
 4171              		.cfi_offset 7, -4
 4172 0002 83B0     		sub	sp, sp, #12
 4173              	.LCFI128:
 4174              		.cfi_def_cfa_offset 16
 4175 0004 00AF     		add	r7, sp, #0
 4176              	.LCFI129:
 4177              		.cfi_def_cfa_register 7
 4178 0006 7860     		str	r0, [r7, #4]
2021:Middlewares/Third_Party/FreeRTOS/Source/queue.c **** 		return ( ( Queue_t * ) xQueue )->uxQueueNumber;
 4179              		.loc 1 2021 34
 4180 0008 7B68     		ldr	r3, [r7, #4]
 4181 000a 9B6C     		ldr	r3, [r3, #72]
2022:Middlewares/Third_Party/FreeRTOS/Source/queue.c **** 	}
 4182              		.loc 1 2022 2
 4183 000c 1846     		mov	r0, r3
 4184 000e 0C37     		adds	r7, r7, #12
 4185              	.LCFI130:
 4186              		.cfi_def_cfa_offset 4
 4187 0010 BD46     		mov	sp, r7
 4188              	.LCFI131:
 4189              		.cfi_def_cfa_register 13
 4190              		@ sp needed
 4191 0012 5DF8047B 		ldr	r7, [sp], #4
 4192              	.LCFI132:
 4193              		.cfi_restore 7
 4194              		.cfi_def_cfa_offset 0
 4195 0016 7047     		bx	lr
 4196              		.cfi_endproc
 4197              	.LFE29:
 4199              		.section	.text.vQueueSetQueueNumber,"ax",%progbits
 4200              		.align	1
 4201              		.global	vQueueSetQueueNumber
 4202              		.syntax unified
 4203              		.thumb
 4204              		.thumb_func
 4205              		.fpu fpv4-sp-d16
 4207              	vQueueSetQueueNumber:
 4208              	.LFB30:
2023:Middlewares/Third_Party/FreeRTOS/Source/queue.c **** 
2024:Middlewares/Third_Party/FreeRTOS/Source/queue.c **** #endif /* configUSE_TRACE_FACILITY */
2025:Middlewares/Third_Party/FreeRTOS/Source/queue.c **** /*-----------------------------------------------------------*/
2026:Middlewares/Third_Party/FreeRTOS/Source/queue.c **** 
2027:Middlewares/Third_Party/FreeRTOS/Source/queue.c **** #if ( configUSE_TRACE_FACILITY == 1 )
2028:Middlewares/Third_Party/FreeRTOS/Source/queue.c **** 
2029:Middlewares/Third_Party/FreeRTOS/Source/queue.c **** 	void vQueueSetQueueNumber( QueueHandle_t xQueue, UBaseType_t uxQueueNumber )
2030:Middlewares/Third_Party/FreeRTOS/Source/queue.c **** 	{
 4209              		.loc 1 2030 2
 4210              		.cfi_startproc
 4211              		@ args = 0, pretend = 0, frame = 8
 4212              		@ frame_needed = 1, uses_anonymous_args = 0
ARM GAS  C:\Users\EI\AppData\Local\Temp\cc6xPaa5.s 			page 115


 4213              		@ link register save eliminated.
 4214 0000 80B4     		push	{r7}
 4215              	.LCFI133:
 4216              		.cfi_def_cfa_offset 4
 4217              		.cfi_offset 7, -4
 4218 0002 83B0     		sub	sp, sp, #12
 4219              	.LCFI134:
 4220              		.cfi_def_cfa_offset 16
 4221 0004 00AF     		add	r7, sp, #0
 4222              	.LCFI135:
 4223              		.cfi_def_cfa_register 7
 4224 0006 7860     		str	r0, [r7, #4]
 4225 0008 3960     		str	r1, [r7]
2031:Middlewares/Third_Party/FreeRTOS/Source/queue.c **** 		( ( Queue_t * ) xQueue )->uxQueueNumber = uxQueueNumber;
 4226              		.loc 1 2031 43
 4227 000a 7B68     		ldr	r3, [r7, #4]
 4228 000c 3A68     		ldr	r2, [r7]
 4229 000e 9A64     		str	r2, [r3, #72]
2032:Middlewares/Third_Party/FreeRTOS/Source/queue.c **** 	}
 4230              		.loc 1 2032 2
 4231 0010 00BF     		nop
 4232 0012 0C37     		adds	r7, r7, #12
 4233              	.LCFI136:
 4234              		.cfi_def_cfa_offset 4
 4235 0014 BD46     		mov	sp, r7
 4236              	.LCFI137:
 4237              		.cfi_def_cfa_register 13
 4238              		@ sp needed
 4239 0016 5DF8047B 		ldr	r7, [sp], #4
 4240              	.LCFI138:
 4241              		.cfi_restore 7
 4242              		.cfi_def_cfa_offset 0
 4243 001a 7047     		bx	lr
 4244              		.cfi_endproc
 4245              	.LFE30:
 4247              		.section	.text.ucQueueGetQueueType,"ax",%progbits
 4248              		.align	1
 4249              		.global	ucQueueGetQueueType
 4250              		.syntax unified
 4251              		.thumb
 4252              		.thumb_func
 4253              		.fpu fpv4-sp-d16
 4255              	ucQueueGetQueueType:
 4256              	.LFB31:
2033:Middlewares/Third_Party/FreeRTOS/Source/queue.c **** 
2034:Middlewares/Third_Party/FreeRTOS/Source/queue.c **** #endif /* configUSE_TRACE_FACILITY */
2035:Middlewares/Third_Party/FreeRTOS/Source/queue.c **** /*-----------------------------------------------------------*/
2036:Middlewares/Third_Party/FreeRTOS/Source/queue.c **** 
2037:Middlewares/Third_Party/FreeRTOS/Source/queue.c **** #if ( configUSE_TRACE_FACILITY == 1 )
2038:Middlewares/Third_Party/FreeRTOS/Source/queue.c **** 
2039:Middlewares/Third_Party/FreeRTOS/Source/queue.c **** 	uint8_t ucQueueGetQueueType( QueueHandle_t xQueue )
2040:Middlewares/Third_Party/FreeRTOS/Source/queue.c **** 	{
 4257              		.loc 1 2040 2
 4258              		.cfi_startproc
 4259              		@ args = 0, pretend = 0, frame = 8
 4260              		@ frame_needed = 1, uses_anonymous_args = 0
 4261              		@ link register save eliminated.
ARM GAS  C:\Users\EI\AppData\Local\Temp\cc6xPaa5.s 			page 116


 4262 0000 80B4     		push	{r7}
 4263              	.LCFI139:
 4264              		.cfi_def_cfa_offset 4
 4265              		.cfi_offset 7, -4
 4266 0002 83B0     		sub	sp, sp, #12
 4267              	.LCFI140:
 4268              		.cfi_def_cfa_offset 16
 4269 0004 00AF     		add	r7, sp, #0
 4270              	.LCFI141:
 4271              		.cfi_def_cfa_register 7
 4272 0006 7860     		str	r0, [r7, #4]
2041:Middlewares/Third_Party/FreeRTOS/Source/queue.c **** 		return ( ( Queue_t * ) xQueue )->ucQueueType;
 4273              		.loc 1 2041 34
 4274 0008 7B68     		ldr	r3, [r7, #4]
 4275 000a 93F84C30 		ldrb	r3, [r3, #76]	@ zero_extendqisi2
2042:Middlewares/Third_Party/FreeRTOS/Source/queue.c **** 	}
 4276              		.loc 1 2042 2
 4277 000e 1846     		mov	r0, r3
 4278 0010 0C37     		adds	r7, r7, #12
 4279              	.LCFI142:
 4280              		.cfi_def_cfa_offset 4
 4281 0012 BD46     		mov	sp, r7
 4282              	.LCFI143:
 4283              		.cfi_def_cfa_register 13
 4284              		@ sp needed
 4285 0014 5DF8047B 		ldr	r7, [sp], #4
 4286              	.LCFI144:
 4287              		.cfi_restore 7
 4288              		.cfi_def_cfa_offset 0
 4289 0018 7047     		bx	lr
 4290              		.cfi_endproc
 4291              	.LFE31:
 4293              		.section	.text.prvGetDisinheritPriorityAfterTimeout,"ax",%progbits
 4294              		.align	1
 4295              		.syntax unified
 4296              		.thumb
 4297              		.thumb_func
 4298              		.fpu fpv4-sp-d16
 4300              	prvGetDisinheritPriorityAfterTimeout:
 4301              	.LFB32:
2043:Middlewares/Third_Party/FreeRTOS/Source/queue.c **** 
2044:Middlewares/Third_Party/FreeRTOS/Source/queue.c **** #endif /* configUSE_TRACE_FACILITY */
2045:Middlewares/Third_Party/FreeRTOS/Source/queue.c **** /*-----------------------------------------------------------*/
2046:Middlewares/Third_Party/FreeRTOS/Source/queue.c **** 
2047:Middlewares/Third_Party/FreeRTOS/Source/queue.c **** #if( configUSE_MUTEXES == 1 )
2048:Middlewares/Third_Party/FreeRTOS/Source/queue.c **** 
2049:Middlewares/Third_Party/FreeRTOS/Source/queue.c **** 	static UBaseType_t prvGetDisinheritPriorityAfterTimeout( const Queue_t * const pxQueue )
2050:Middlewares/Third_Party/FreeRTOS/Source/queue.c **** 	{
 4302              		.loc 1 2050 2
 4303              		.cfi_startproc
 4304              		@ args = 0, pretend = 0, frame = 16
 4305              		@ frame_needed = 1, uses_anonymous_args = 0
 4306              		@ link register save eliminated.
 4307 0000 80B4     		push	{r7}
 4308              	.LCFI145:
 4309              		.cfi_def_cfa_offset 4
 4310              		.cfi_offset 7, -4
ARM GAS  C:\Users\EI\AppData\Local\Temp\cc6xPaa5.s 			page 117


 4311 0002 85B0     		sub	sp, sp, #20
 4312              	.LCFI146:
 4313              		.cfi_def_cfa_offset 24
 4314 0004 00AF     		add	r7, sp, #0
 4315              	.LCFI147:
 4316              		.cfi_def_cfa_register 7
 4317 0006 7860     		str	r0, [r7, #4]
2051:Middlewares/Third_Party/FreeRTOS/Source/queue.c **** 	UBaseType_t uxHighestPriorityOfWaitingTasks;
2052:Middlewares/Third_Party/FreeRTOS/Source/queue.c **** 
2053:Middlewares/Third_Party/FreeRTOS/Source/queue.c **** 		/* If a task waiting for a mutex causes the mutex holder to inherit a
2054:Middlewares/Third_Party/FreeRTOS/Source/queue.c **** 		priority, but the waiting task times out, then the holder should
2055:Middlewares/Third_Party/FreeRTOS/Source/queue.c **** 		disinherit the priority - but only down to the highest priority of any
2056:Middlewares/Third_Party/FreeRTOS/Source/queue.c **** 		other tasks that are waiting for the same mutex.  For this purpose,
2057:Middlewares/Third_Party/FreeRTOS/Source/queue.c **** 		return the priority of the highest priority task that is waiting for the
2058:Middlewares/Third_Party/FreeRTOS/Source/queue.c **** 		mutex. */
2059:Middlewares/Third_Party/FreeRTOS/Source/queue.c **** 		if( listCURRENT_LIST_LENGTH( &( pxQueue->xTasksWaitingToReceive ) ) > 0U )
 4318              		.loc 1 2059 7
 4319 0008 7B68     		ldr	r3, [r7, #4]
 4320 000a 5B6A     		ldr	r3, [r3, #36]
 4321              		.loc 1 2059 5
 4322 000c 002B     		cmp	r3, #0
 4323 000e 06D0     		beq	.L280
2060:Middlewares/Third_Party/FreeRTOS/Source/queue.c **** 		{
2061:Middlewares/Third_Party/FreeRTOS/Source/queue.c **** 			uxHighestPriorityOfWaitingTasks = ( UBaseType_t ) configMAX_PRIORITIES - ( UBaseType_t ) listGET
 4324              		.loc 1 2061 93
 4325 0010 7B68     		ldr	r3, [r7, #4]
 4326 0012 1B6B     		ldr	r3, [r3, #48]
 4327 0014 1B68     		ldr	r3, [r3]
 4328              		.loc 1 2061 36
 4329 0016 C3F13803 		rsb	r3, r3, #56
 4330 001a FB60     		str	r3, [r7, #12]
 4331 001c 01E0     		b	.L281
 4332              	.L280:
2062:Middlewares/Third_Party/FreeRTOS/Source/queue.c **** 		}
2063:Middlewares/Third_Party/FreeRTOS/Source/queue.c **** 		else
2064:Middlewares/Third_Party/FreeRTOS/Source/queue.c **** 		{
2065:Middlewares/Third_Party/FreeRTOS/Source/queue.c **** 			uxHighestPriorityOfWaitingTasks = tskIDLE_PRIORITY;
 4333              		.loc 1 2065 36
 4334 001e 0023     		movs	r3, #0
 4335 0020 FB60     		str	r3, [r7, #12]
 4336              	.L281:
2066:Middlewares/Third_Party/FreeRTOS/Source/queue.c **** 		}
2067:Middlewares/Third_Party/FreeRTOS/Source/queue.c **** 
2068:Middlewares/Third_Party/FreeRTOS/Source/queue.c **** 		return uxHighestPriorityOfWaitingTasks;
 4337              		.loc 1 2068 10
 4338 0022 FB68     		ldr	r3, [r7, #12]
2069:Middlewares/Third_Party/FreeRTOS/Source/queue.c **** 	}
 4339              		.loc 1 2069 2
 4340 0024 1846     		mov	r0, r3
 4341 0026 1437     		adds	r7, r7, #20
 4342              	.LCFI148:
 4343              		.cfi_def_cfa_offset 4
 4344 0028 BD46     		mov	sp, r7
 4345              	.LCFI149:
 4346              		.cfi_def_cfa_register 13
 4347              		@ sp needed
 4348 002a 5DF8047B 		ldr	r7, [sp], #4
ARM GAS  C:\Users\EI\AppData\Local\Temp\cc6xPaa5.s 			page 118


 4349              	.LCFI150:
 4350              		.cfi_restore 7
 4351              		.cfi_def_cfa_offset 0
 4352 002e 7047     		bx	lr
 4353              		.cfi_endproc
 4354              	.LFE32:
 4356              		.section	.text.prvCopyDataToQueue,"ax",%progbits
 4357              		.align	1
 4358              		.syntax unified
 4359              		.thumb
 4360              		.thumb_func
 4361              		.fpu fpv4-sp-d16
 4363              	prvCopyDataToQueue:
 4364              	.LFB33:
2070:Middlewares/Third_Party/FreeRTOS/Source/queue.c **** 
2071:Middlewares/Third_Party/FreeRTOS/Source/queue.c **** #endif /* configUSE_MUTEXES */
2072:Middlewares/Third_Party/FreeRTOS/Source/queue.c **** /*-----------------------------------------------------------*/
2073:Middlewares/Third_Party/FreeRTOS/Source/queue.c **** 
2074:Middlewares/Third_Party/FreeRTOS/Source/queue.c **** static BaseType_t prvCopyDataToQueue( Queue_t * const pxQueue, const void *pvItemToQueue, const Bas
2075:Middlewares/Third_Party/FreeRTOS/Source/queue.c **** {
 4365              		.loc 1 2075 1
 4366              		.cfi_startproc
 4367              		@ args = 0, pretend = 0, frame = 24
 4368              		@ frame_needed = 1, uses_anonymous_args = 0
 4369 0000 80B5     		push	{r7, lr}
 4370              	.LCFI151:
 4371              		.cfi_def_cfa_offset 8
 4372              		.cfi_offset 7, -8
 4373              		.cfi_offset 14, -4
 4374 0002 86B0     		sub	sp, sp, #24
 4375              	.LCFI152:
 4376              		.cfi_def_cfa_offset 32
 4377 0004 00AF     		add	r7, sp, #0
 4378              	.LCFI153:
 4379              		.cfi_def_cfa_register 7
 4380 0006 F860     		str	r0, [r7, #12]
 4381 0008 B960     		str	r1, [r7, #8]
 4382 000a 7A60     		str	r2, [r7, #4]
2076:Middlewares/Third_Party/FreeRTOS/Source/queue.c **** BaseType_t xReturn = pdFALSE;
 4383              		.loc 1 2076 12
 4384 000c 0023     		movs	r3, #0
 4385 000e 7B61     		str	r3, [r7, #20]
2077:Middlewares/Third_Party/FreeRTOS/Source/queue.c **** UBaseType_t uxMessagesWaiting;
2078:Middlewares/Third_Party/FreeRTOS/Source/queue.c **** 
2079:Middlewares/Third_Party/FreeRTOS/Source/queue.c **** 	/* This function is called from a critical section. */
2080:Middlewares/Third_Party/FreeRTOS/Source/queue.c **** 
2081:Middlewares/Third_Party/FreeRTOS/Source/queue.c **** 	uxMessagesWaiting = pxQueue->uxMessagesWaiting;
 4386              		.loc 1 2081 20
 4387 0010 FB68     		ldr	r3, [r7, #12]
 4388 0012 9B6B     		ldr	r3, [r3, #56]
 4389 0014 3B61     		str	r3, [r7, #16]
2082:Middlewares/Third_Party/FreeRTOS/Source/queue.c **** 
2083:Middlewares/Third_Party/FreeRTOS/Source/queue.c **** 	if( pxQueue->uxItemSize == ( UBaseType_t ) 0 )
 4390              		.loc 1 2083 13
 4391 0016 FB68     		ldr	r3, [r7, #12]
 4392 0018 1B6C     		ldr	r3, [r3, #64]
 4393              		.loc 1 2083 4
ARM GAS  C:\Users\EI\AppData\Local\Temp\cc6xPaa5.s 			page 119


 4394 001a 002B     		cmp	r3, #0
 4395 001c 0DD1     		bne	.L284
2084:Middlewares/Third_Party/FreeRTOS/Source/queue.c **** 	{
2085:Middlewares/Third_Party/FreeRTOS/Source/queue.c **** 		#if ( configUSE_MUTEXES == 1 )
2086:Middlewares/Third_Party/FreeRTOS/Source/queue.c **** 		{
2087:Middlewares/Third_Party/FreeRTOS/Source/queue.c **** 			if( pxQueue->uxQueueType == queueQUEUE_IS_MUTEX )
 4396              		.loc 1 2087 15
 4397 001e FB68     		ldr	r3, [r7, #12]
 4398 0020 1B68     		ldr	r3, [r3]
 4399              		.loc 1 2087 6
 4400 0022 002B     		cmp	r3, #0
 4401 0024 4DD1     		bne	.L285
2088:Middlewares/Third_Party/FreeRTOS/Source/queue.c **** 			{
2089:Middlewares/Third_Party/FreeRTOS/Source/queue.c **** 				/* The mutex is no longer being held. */
2090:Middlewares/Third_Party/FreeRTOS/Source/queue.c **** 				xReturn = xTaskPriorityDisinherit( pxQueue->u.xSemaphore.xMutexHolder );
 4402              		.loc 1 2090 15
 4403 0026 FB68     		ldr	r3, [r7, #12]
 4404 0028 9B68     		ldr	r3, [r3, #8]
 4405 002a 1846     		mov	r0, r3
 4406 002c FFF7FEFF 		bl	xTaskPriorityDisinherit
 4407 0030 7861     		str	r0, [r7, #20]
2091:Middlewares/Third_Party/FreeRTOS/Source/queue.c **** 				pxQueue->u.xSemaphore.xMutexHolder = NULL;
 4408              		.loc 1 2091 40
 4409 0032 FB68     		ldr	r3, [r7, #12]
 4410 0034 0022     		movs	r2, #0
 4411 0036 9A60     		str	r2, [r3, #8]
 4412 0038 43E0     		b	.L285
 4413              	.L284:
2092:Middlewares/Third_Party/FreeRTOS/Source/queue.c **** 			}
2093:Middlewares/Third_Party/FreeRTOS/Source/queue.c **** 			else
2094:Middlewares/Third_Party/FreeRTOS/Source/queue.c **** 			{
2095:Middlewares/Third_Party/FreeRTOS/Source/queue.c **** 				mtCOVERAGE_TEST_MARKER();
2096:Middlewares/Third_Party/FreeRTOS/Source/queue.c **** 			}
2097:Middlewares/Third_Party/FreeRTOS/Source/queue.c **** 		}
2098:Middlewares/Third_Party/FreeRTOS/Source/queue.c **** 		#endif /* configUSE_MUTEXES */
2099:Middlewares/Third_Party/FreeRTOS/Source/queue.c **** 	}
2100:Middlewares/Third_Party/FreeRTOS/Source/queue.c **** 	else if( xPosition == queueSEND_TO_BACK )
 4414              		.loc 1 2100 9
 4415 003a 7B68     		ldr	r3, [r7, #4]
 4416 003c 002B     		cmp	r3, #0
 4417 003e 19D1     		bne	.L286
2101:Middlewares/Third_Party/FreeRTOS/Source/queue.c **** 	{
2102:Middlewares/Third_Party/FreeRTOS/Source/queue.c **** 		( void ) memcpy( ( void * ) pxQueue->pcWriteTo, pvItemToQueue, ( size_t ) pxQueue->uxItemSize ); 
 4418              		.loc 1 2102 38
 4419 0040 FB68     		ldr	r3, [r7, #12]
 4420 0042 5868     		ldr	r0, [r3, #4]
 4421              		.loc 1 2102 84
 4422 0044 FB68     		ldr	r3, [r7, #12]
 4423 0046 1B6C     		ldr	r3, [r3, #64]
 4424              		.loc 1 2102 12
 4425 0048 1A46     		mov	r2, r3
 4426 004a B968     		ldr	r1, [r7, #8]
 4427 004c FFF7FEFF 		bl	memcpy
2103:Middlewares/Third_Party/FreeRTOS/Source/queue.c **** 		pxQueue->pcWriteTo += pxQueue->uxItemSize; /*lint !e9016 Pointer arithmetic on char types ok, esp
 4428              		.loc 1 2103 22
 4429 0050 FB68     		ldr	r3, [r7, #12]
 4430 0052 5A68     		ldr	r2, [r3, #4]
ARM GAS  C:\Users\EI\AppData\Local\Temp\cc6xPaa5.s 			page 120


 4431              		.loc 1 2103 32
 4432 0054 FB68     		ldr	r3, [r7, #12]
 4433 0056 1B6C     		ldr	r3, [r3, #64]
 4434              		.loc 1 2103 22
 4435 0058 1A44     		add	r2, r2, r3
 4436 005a FB68     		ldr	r3, [r7, #12]
 4437 005c 5A60     		str	r2, [r3, #4]
2104:Middlewares/Third_Party/FreeRTOS/Source/queue.c **** 		if( pxQueue->pcWriteTo >= pxQueue->u.xQueue.pcTail ) /*lint !e946 MISRA exception justified as co
 4438              		.loc 1 2104 14
 4439 005e FB68     		ldr	r3, [r7, #12]
 4440 0060 5A68     		ldr	r2, [r3, #4]
 4441              		.loc 1 2104 46
 4442 0062 FB68     		ldr	r3, [r7, #12]
 4443 0064 9B68     		ldr	r3, [r3, #8]
 4444              		.loc 1 2104 5
 4445 0066 9A42     		cmp	r2, r3
 4446 0068 2BD3     		bcc	.L285
2105:Middlewares/Third_Party/FreeRTOS/Source/queue.c **** 		{
2106:Middlewares/Third_Party/FreeRTOS/Source/queue.c **** 			pxQueue->pcWriteTo = pxQueue->pcHead;
 4447              		.loc 1 2106 32
 4448 006a FB68     		ldr	r3, [r7, #12]
 4449 006c 1A68     		ldr	r2, [r3]
 4450              		.loc 1 2106 23
 4451 006e FB68     		ldr	r3, [r7, #12]
 4452 0070 5A60     		str	r2, [r3, #4]
 4453 0072 26E0     		b	.L285
 4454              	.L286:
2107:Middlewares/Third_Party/FreeRTOS/Source/queue.c **** 		}
2108:Middlewares/Third_Party/FreeRTOS/Source/queue.c **** 		else
2109:Middlewares/Third_Party/FreeRTOS/Source/queue.c **** 		{
2110:Middlewares/Third_Party/FreeRTOS/Source/queue.c **** 			mtCOVERAGE_TEST_MARKER();
2111:Middlewares/Third_Party/FreeRTOS/Source/queue.c **** 		}
2112:Middlewares/Third_Party/FreeRTOS/Source/queue.c **** 	}
2113:Middlewares/Third_Party/FreeRTOS/Source/queue.c **** 	else
2114:Middlewares/Third_Party/FreeRTOS/Source/queue.c **** 	{
2115:Middlewares/Third_Party/FreeRTOS/Source/queue.c **** 		( void ) memcpy( ( void * ) pxQueue->u.xQueue.pcReadFrom, pvItemToQueue, ( size_t ) pxQueue->uxIt
 4455              		.loc 1 2115 48
 4456 0074 FB68     		ldr	r3, [r7, #12]
 4457 0076 D868     		ldr	r0, [r3, #12]
 4458              		.loc 1 2115 94
 4459 0078 FB68     		ldr	r3, [r7, #12]
 4460 007a 1B6C     		ldr	r3, [r3, #64]
 4461              		.loc 1 2115 12
 4462 007c 1A46     		mov	r2, r3
 4463 007e B968     		ldr	r1, [r7, #8]
 4464 0080 FFF7FEFF 		bl	memcpy
2116:Middlewares/Third_Party/FreeRTOS/Source/queue.c **** 		pxQueue->u.xQueue.pcReadFrom -= pxQueue->uxItemSize;
 4465              		.loc 1 2116 32
 4466 0084 FB68     		ldr	r3, [r7, #12]
 4467 0086 DA68     		ldr	r2, [r3, #12]
 4468              		.loc 1 2116 42
 4469 0088 FB68     		ldr	r3, [r7, #12]
 4470 008a 1B6C     		ldr	r3, [r3, #64]
 4471              		.loc 1 2116 32
 4472 008c 5B42     		rsbs	r3, r3, #0
 4473 008e 1A44     		add	r2, r2, r3
 4474 0090 FB68     		ldr	r3, [r7, #12]
ARM GAS  C:\Users\EI\AppData\Local\Temp\cc6xPaa5.s 			page 121


 4475 0092 DA60     		str	r2, [r3, #12]
2117:Middlewares/Third_Party/FreeRTOS/Source/queue.c **** 		if( pxQueue->u.xQueue.pcReadFrom < pxQueue->pcHead ) /*lint !e946 MISRA exception justified as co
 4476              		.loc 1 2117 24
 4477 0094 FB68     		ldr	r3, [r7, #12]
 4478 0096 DA68     		ldr	r2, [r3, #12]
 4479              		.loc 1 2117 45
 4480 0098 FB68     		ldr	r3, [r7, #12]
 4481 009a 1B68     		ldr	r3, [r3]
 4482              		.loc 1 2117 5
 4483 009c 9A42     		cmp	r2, r3
 4484 009e 07D2     		bcs	.L287
2118:Middlewares/Third_Party/FreeRTOS/Source/queue.c **** 		{
2119:Middlewares/Third_Party/FreeRTOS/Source/queue.c **** 			pxQueue->u.xQueue.pcReadFrom = ( pxQueue->u.xQueue.pcTail - pxQueue->uxItemSize );
 4485              		.loc 1 2119 54
 4486 00a0 FB68     		ldr	r3, [r7, #12]
 4487 00a2 9A68     		ldr	r2, [r3, #8]
 4488              		.loc 1 2119 71
 4489 00a4 FB68     		ldr	r3, [r7, #12]
 4490 00a6 1B6C     		ldr	r3, [r3, #64]
 4491              		.loc 1 2119 62
 4492 00a8 5B42     		rsbs	r3, r3, #0
 4493 00aa 1A44     		add	r2, r2, r3
 4494              		.loc 1 2119 33
 4495 00ac FB68     		ldr	r3, [r7, #12]
 4496 00ae DA60     		str	r2, [r3, #12]
 4497              	.L287:
2120:Middlewares/Third_Party/FreeRTOS/Source/queue.c **** 		}
2121:Middlewares/Third_Party/FreeRTOS/Source/queue.c **** 		else
2122:Middlewares/Third_Party/FreeRTOS/Source/queue.c **** 		{
2123:Middlewares/Third_Party/FreeRTOS/Source/queue.c **** 			mtCOVERAGE_TEST_MARKER();
2124:Middlewares/Third_Party/FreeRTOS/Source/queue.c **** 		}
2125:Middlewares/Third_Party/FreeRTOS/Source/queue.c **** 
2126:Middlewares/Third_Party/FreeRTOS/Source/queue.c **** 		if( xPosition == queueOVERWRITE )
 4498              		.loc 1 2126 5
 4499 00b0 7B68     		ldr	r3, [r7, #4]
 4500 00b2 022B     		cmp	r3, #2
 4501 00b4 05D1     		bne	.L285
2127:Middlewares/Third_Party/FreeRTOS/Source/queue.c **** 		{
2128:Middlewares/Third_Party/FreeRTOS/Source/queue.c **** 			if( uxMessagesWaiting > ( UBaseType_t ) 0 )
 4502              		.loc 1 2128 6
 4503 00b6 3B69     		ldr	r3, [r7, #16]
 4504 00b8 002B     		cmp	r3, #0
 4505 00ba 02D0     		beq	.L285
2129:Middlewares/Third_Party/FreeRTOS/Source/queue.c **** 			{
2130:Middlewares/Third_Party/FreeRTOS/Source/queue.c **** 				/* An item is not being added but overwritten, so subtract
2131:Middlewares/Third_Party/FreeRTOS/Source/queue.c **** 				one from the recorded number of items in the queue so when
2132:Middlewares/Third_Party/FreeRTOS/Source/queue.c **** 				one is added again below the number of recorded items remains
2133:Middlewares/Third_Party/FreeRTOS/Source/queue.c **** 				correct. */
2134:Middlewares/Third_Party/FreeRTOS/Source/queue.c **** 				--uxMessagesWaiting;
 4506              		.loc 1 2134 5
 4507 00bc 3B69     		ldr	r3, [r7, #16]
 4508 00be 013B     		subs	r3, r3, #1
 4509 00c0 3B61     		str	r3, [r7, #16]
 4510              	.L285:
2135:Middlewares/Third_Party/FreeRTOS/Source/queue.c **** 			}
2136:Middlewares/Third_Party/FreeRTOS/Source/queue.c **** 			else
2137:Middlewares/Third_Party/FreeRTOS/Source/queue.c **** 			{
ARM GAS  C:\Users\EI\AppData\Local\Temp\cc6xPaa5.s 			page 122


2138:Middlewares/Third_Party/FreeRTOS/Source/queue.c **** 				mtCOVERAGE_TEST_MARKER();
2139:Middlewares/Third_Party/FreeRTOS/Source/queue.c **** 			}
2140:Middlewares/Third_Party/FreeRTOS/Source/queue.c **** 		}
2141:Middlewares/Third_Party/FreeRTOS/Source/queue.c **** 		else
2142:Middlewares/Third_Party/FreeRTOS/Source/queue.c **** 		{
2143:Middlewares/Third_Party/FreeRTOS/Source/queue.c **** 			mtCOVERAGE_TEST_MARKER();
2144:Middlewares/Third_Party/FreeRTOS/Source/queue.c **** 		}
2145:Middlewares/Third_Party/FreeRTOS/Source/queue.c **** 	}
2146:Middlewares/Third_Party/FreeRTOS/Source/queue.c **** 
2147:Middlewares/Third_Party/FreeRTOS/Source/queue.c **** 	pxQueue->uxMessagesWaiting = uxMessagesWaiting + ( UBaseType_t ) 1;
 4511              		.loc 1 2147 49
 4512 00c2 3B69     		ldr	r3, [r7, #16]
 4513 00c4 5A1C     		adds	r2, r3, #1
 4514              		.loc 1 2147 29
 4515 00c6 FB68     		ldr	r3, [r7, #12]
 4516 00c8 9A63     		str	r2, [r3, #56]
2148:Middlewares/Third_Party/FreeRTOS/Source/queue.c **** 
2149:Middlewares/Third_Party/FreeRTOS/Source/queue.c **** 	return xReturn;
 4517              		.loc 1 2149 9
 4518 00ca 7B69     		ldr	r3, [r7, #20]
2150:Middlewares/Third_Party/FreeRTOS/Source/queue.c **** }
 4519              		.loc 1 2150 1
 4520 00cc 1846     		mov	r0, r3
 4521 00ce 1837     		adds	r7, r7, #24
 4522              	.LCFI154:
 4523              		.cfi_def_cfa_offset 8
 4524 00d0 BD46     		mov	sp, r7
 4525              	.LCFI155:
 4526              		.cfi_def_cfa_register 13
 4527              		@ sp needed
 4528 00d2 80BD     		pop	{r7, pc}
 4529              		.cfi_endproc
 4530              	.LFE33:
 4532              		.section	.text.prvCopyDataFromQueue,"ax",%progbits
 4533              		.align	1
 4534              		.syntax unified
 4535              		.thumb
 4536              		.thumb_func
 4537              		.fpu fpv4-sp-d16
 4539              	prvCopyDataFromQueue:
 4540              	.LFB34:
2151:Middlewares/Third_Party/FreeRTOS/Source/queue.c **** /*-----------------------------------------------------------*/
2152:Middlewares/Third_Party/FreeRTOS/Source/queue.c **** 
2153:Middlewares/Third_Party/FreeRTOS/Source/queue.c **** static void prvCopyDataFromQueue( Queue_t * const pxQueue, void * const pvBuffer )
2154:Middlewares/Third_Party/FreeRTOS/Source/queue.c **** {
 4541              		.loc 1 2154 1
 4542              		.cfi_startproc
 4543              		@ args = 0, pretend = 0, frame = 8
 4544              		@ frame_needed = 1, uses_anonymous_args = 0
 4545 0000 80B5     		push	{r7, lr}
 4546              	.LCFI156:
 4547              		.cfi_def_cfa_offset 8
 4548              		.cfi_offset 7, -8
 4549              		.cfi_offset 14, -4
 4550 0002 82B0     		sub	sp, sp, #8
 4551              	.LCFI157:
 4552              		.cfi_def_cfa_offset 16
ARM GAS  C:\Users\EI\AppData\Local\Temp\cc6xPaa5.s 			page 123


 4553 0004 00AF     		add	r7, sp, #0
 4554              	.LCFI158:
 4555              		.cfi_def_cfa_register 7
 4556 0006 7860     		str	r0, [r7, #4]
 4557 0008 3960     		str	r1, [r7]
2155:Middlewares/Third_Party/FreeRTOS/Source/queue.c **** 	if( pxQueue->uxItemSize != ( UBaseType_t ) 0 )
 4558              		.loc 1 2155 13
 4559 000a 7B68     		ldr	r3, [r7, #4]
 4560 000c 1B6C     		ldr	r3, [r3, #64]
 4561              		.loc 1 2155 4
 4562 000e 002B     		cmp	r3, #0
 4563 0010 18D0     		beq	.L292
2156:Middlewares/Third_Party/FreeRTOS/Source/queue.c **** 	{
2157:Middlewares/Third_Party/FreeRTOS/Source/queue.c **** 		pxQueue->u.xQueue.pcReadFrom += pxQueue->uxItemSize; /*lint !e9016 Pointer arithmetic on char typ
 4564              		.loc 1 2157 32
 4565 0012 7B68     		ldr	r3, [r7, #4]
 4566 0014 DA68     		ldr	r2, [r3, #12]
 4567              		.loc 1 2157 42
 4568 0016 7B68     		ldr	r3, [r7, #4]
 4569 0018 1B6C     		ldr	r3, [r3, #64]
 4570              		.loc 1 2157 32
 4571 001a 1A44     		add	r2, r2, r3
 4572 001c 7B68     		ldr	r3, [r7, #4]
 4573 001e DA60     		str	r2, [r3, #12]
2158:Middlewares/Third_Party/FreeRTOS/Source/queue.c **** 		if( pxQueue->u.xQueue.pcReadFrom >= pxQueue->u.xQueue.pcTail ) /*lint !e946 MISRA exception justi
 4574              		.loc 1 2158 24
 4575 0020 7B68     		ldr	r3, [r7, #4]
 4576 0022 DA68     		ldr	r2, [r3, #12]
 4577              		.loc 1 2158 56
 4578 0024 7B68     		ldr	r3, [r7, #4]
 4579 0026 9B68     		ldr	r3, [r3, #8]
 4580              		.loc 1 2158 5
 4581 0028 9A42     		cmp	r2, r3
 4582 002a 03D3     		bcc	.L291
2159:Middlewares/Third_Party/FreeRTOS/Source/queue.c **** 		{
2160:Middlewares/Third_Party/FreeRTOS/Source/queue.c **** 			pxQueue->u.xQueue.pcReadFrom = pxQueue->pcHead;
 4583              		.loc 1 2160 42
 4584 002c 7B68     		ldr	r3, [r7, #4]
 4585 002e 1A68     		ldr	r2, [r3]
 4586              		.loc 1 2160 33
 4587 0030 7B68     		ldr	r3, [r7, #4]
 4588 0032 DA60     		str	r2, [r3, #12]
 4589              	.L291:
2161:Middlewares/Third_Party/FreeRTOS/Source/queue.c **** 		}
2162:Middlewares/Third_Party/FreeRTOS/Source/queue.c **** 		else
2163:Middlewares/Third_Party/FreeRTOS/Source/queue.c **** 		{
2164:Middlewares/Third_Party/FreeRTOS/Source/queue.c **** 			mtCOVERAGE_TEST_MARKER();
2165:Middlewares/Third_Party/FreeRTOS/Source/queue.c **** 		}
2166:Middlewares/Third_Party/FreeRTOS/Source/queue.c **** 		( void ) memcpy( ( void * ) pvBuffer, ( void * ) pxQueue->u.xQueue.pcReadFrom, ( size_t ) pxQueue
 4590              		.loc 1 2166 69
 4591 0034 7B68     		ldr	r3, [r7, #4]
 4592 0036 D968     		ldr	r1, [r3, #12]
 4593              		.loc 1 2166 100
 4594 0038 7B68     		ldr	r3, [r7, #4]
 4595 003a 1B6C     		ldr	r3, [r3, #64]
 4596              		.loc 1 2166 12
 4597 003c 1A46     		mov	r2, r3
ARM GAS  C:\Users\EI\AppData\Local\Temp\cc6xPaa5.s 			page 124


 4598 003e 3868     		ldr	r0, [r7]
 4599 0040 FFF7FEFF 		bl	memcpy
 4600              	.L292:
2167:Middlewares/Third_Party/FreeRTOS/Source/queue.c **** 	}
2168:Middlewares/Third_Party/FreeRTOS/Source/queue.c **** }
 4601              		.loc 1 2168 1
 4602 0044 00BF     		nop
 4603 0046 0837     		adds	r7, r7, #8
 4604              	.LCFI159:
 4605              		.cfi_def_cfa_offset 8
 4606 0048 BD46     		mov	sp, r7
 4607              	.LCFI160:
 4608              		.cfi_def_cfa_register 13
 4609              		@ sp needed
 4610 004a 80BD     		pop	{r7, pc}
 4611              		.cfi_endproc
 4612              	.LFE34:
 4614              		.section	.text.prvUnlockQueue,"ax",%progbits
 4615              		.align	1
 4616              		.syntax unified
 4617              		.thumb
 4618              		.thumb_func
 4619              		.fpu fpv4-sp-d16
 4621              	prvUnlockQueue:
 4622              	.LFB35:
2169:Middlewares/Third_Party/FreeRTOS/Source/queue.c **** /*-----------------------------------------------------------*/
2170:Middlewares/Third_Party/FreeRTOS/Source/queue.c **** 
2171:Middlewares/Third_Party/FreeRTOS/Source/queue.c **** static void prvUnlockQueue( Queue_t * const pxQueue )
2172:Middlewares/Third_Party/FreeRTOS/Source/queue.c **** {
 4623              		.loc 1 2172 1
 4624              		.cfi_startproc
 4625              		@ args = 0, pretend = 0, frame = 16
 4626              		@ frame_needed = 1, uses_anonymous_args = 0
 4627 0000 80B5     		push	{r7, lr}
 4628              	.LCFI161:
 4629              		.cfi_def_cfa_offset 8
 4630              		.cfi_offset 7, -8
 4631              		.cfi_offset 14, -4
 4632 0002 84B0     		sub	sp, sp, #16
 4633              	.LCFI162:
 4634              		.cfi_def_cfa_offset 24
 4635 0004 00AF     		add	r7, sp, #0
 4636              	.LCFI163:
 4637              		.cfi_def_cfa_register 7
 4638 0006 7860     		str	r0, [r7, #4]
2173:Middlewares/Third_Party/FreeRTOS/Source/queue.c **** 	/* THIS FUNCTION MUST BE CALLED WITH THE SCHEDULER SUSPENDED. */
2174:Middlewares/Third_Party/FreeRTOS/Source/queue.c **** 
2175:Middlewares/Third_Party/FreeRTOS/Source/queue.c **** 	/* The lock counts contains the number of extra data items placed or
2176:Middlewares/Third_Party/FreeRTOS/Source/queue.c **** 	removed from the queue while the queue was locked.  When a queue is
2177:Middlewares/Third_Party/FreeRTOS/Source/queue.c **** 	locked items can be added or removed, but the event lists cannot be
2178:Middlewares/Third_Party/FreeRTOS/Source/queue.c **** 	updated. */
2179:Middlewares/Third_Party/FreeRTOS/Source/queue.c **** 	taskENTER_CRITICAL();
 4639              		.loc 1 2179 2
 4640 0008 FFF7FEFF 		bl	vPortEnterCritical
 4641              	.LBB230:
2180:Middlewares/Third_Party/FreeRTOS/Source/queue.c **** 	{
2181:Middlewares/Third_Party/FreeRTOS/Source/queue.c **** 		int8_t cTxLock = pxQueue->cTxLock;
ARM GAS  C:\Users\EI\AppData\Local\Temp\cc6xPaa5.s 			page 125


 4642              		.loc 1 2181 10
 4643 000c 7B68     		ldr	r3, [r7, #4]
 4644 000e 93F84530 		ldrb	r3, [r3, #69]
 4645 0012 FB73     		strb	r3, [r7, #15]
2182:Middlewares/Third_Party/FreeRTOS/Source/queue.c **** 
2183:Middlewares/Third_Party/FreeRTOS/Source/queue.c **** 		/* See if data was added to the queue while it was locked. */
2184:Middlewares/Third_Party/FreeRTOS/Source/queue.c **** 		while( cTxLock > queueLOCKED_UNMODIFIED )
 4646              		.loc 1 2184 8
 4647 0014 11E0     		b	.L294
 4648              	.L298:
2185:Middlewares/Third_Party/FreeRTOS/Source/queue.c **** 		{
2186:Middlewares/Third_Party/FreeRTOS/Source/queue.c **** 			/* Data was posted while the queue was locked.  Are any tasks
2187:Middlewares/Third_Party/FreeRTOS/Source/queue.c **** 			blocked waiting for data to become available? */
2188:Middlewares/Third_Party/FreeRTOS/Source/queue.c **** 			#if ( configUSE_QUEUE_SETS == 1 )
2189:Middlewares/Third_Party/FreeRTOS/Source/queue.c **** 			{
2190:Middlewares/Third_Party/FreeRTOS/Source/queue.c **** 				if( pxQueue->pxQueueSetContainer != NULL )
2191:Middlewares/Third_Party/FreeRTOS/Source/queue.c **** 				{
2192:Middlewares/Third_Party/FreeRTOS/Source/queue.c **** 					if( prvNotifyQueueSetContainer( pxQueue ) != pdFALSE )
2193:Middlewares/Third_Party/FreeRTOS/Source/queue.c **** 					{
2194:Middlewares/Third_Party/FreeRTOS/Source/queue.c **** 						/* The queue is a member of a queue set, and posting to
2195:Middlewares/Third_Party/FreeRTOS/Source/queue.c **** 						the queue set caused a higher priority task to unblock.
2196:Middlewares/Third_Party/FreeRTOS/Source/queue.c **** 						A context switch is required. */
2197:Middlewares/Third_Party/FreeRTOS/Source/queue.c **** 						vTaskMissedYield();
2198:Middlewares/Third_Party/FreeRTOS/Source/queue.c **** 					}
2199:Middlewares/Third_Party/FreeRTOS/Source/queue.c **** 					else
2200:Middlewares/Third_Party/FreeRTOS/Source/queue.c **** 					{
2201:Middlewares/Third_Party/FreeRTOS/Source/queue.c **** 						mtCOVERAGE_TEST_MARKER();
2202:Middlewares/Third_Party/FreeRTOS/Source/queue.c **** 					}
2203:Middlewares/Third_Party/FreeRTOS/Source/queue.c **** 				}
2204:Middlewares/Third_Party/FreeRTOS/Source/queue.c **** 				else
2205:Middlewares/Third_Party/FreeRTOS/Source/queue.c **** 				{
2206:Middlewares/Third_Party/FreeRTOS/Source/queue.c **** 					/* Tasks that are removed from the event list will get
2207:Middlewares/Third_Party/FreeRTOS/Source/queue.c **** 					added to the pending ready list as the scheduler is still
2208:Middlewares/Third_Party/FreeRTOS/Source/queue.c **** 					suspended. */
2209:Middlewares/Third_Party/FreeRTOS/Source/queue.c **** 					if( listLIST_IS_EMPTY( &( pxQueue->xTasksWaitingToReceive ) ) == pdFALSE )
2210:Middlewares/Third_Party/FreeRTOS/Source/queue.c **** 					{
2211:Middlewares/Third_Party/FreeRTOS/Source/queue.c **** 						if( xTaskRemoveFromEventList( &( pxQueue->xTasksWaitingToReceive ) ) != pdFALSE )
2212:Middlewares/Third_Party/FreeRTOS/Source/queue.c **** 						{
2213:Middlewares/Third_Party/FreeRTOS/Source/queue.c **** 							/* The task waiting has a higher priority so record that a
2214:Middlewares/Third_Party/FreeRTOS/Source/queue.c **** 							context	switch is required. */
2215:Middlewares/Third_Party/FreeRTOS/Source/queue.c **** 							vTaskMissedYield();
2216:Middlewares/Third_Party/FreeRTOS/Source/queue.c **** 						}
2217:Middlewares/Third_Party/FreeRTOS/Source/queue.c **** 						else
2218:Middlewares/Third_Party/FreeRTOS/Source/queue.c **** 						{
2219:Middlewares/Third_Party/FreeRTOS/Source/queue.c **** 							mtCOVERAGE_TEST_MARKER();
2220:Middlewares/Third_Party/FreeRTOS/Source/queue.c **** 						}
2221:Middlewares/Third_Party/FreeRTOS/Source/queue.c **** 					}
2222:Middlewares/Third_Party/FreeRTOS/Source/queue.c **** 					else
2223:Middlewares/Third_Party/FreeRTOS/Source/queue.c **** 					{
2224:Middlewares/Third_Party/FreeRTOS/Source/queue.c **** 						break;
2225:Middlewares/Third_Party/FreeRTOS/Source/queue.c **** 					}
2226:Middlewares/Third_Party/FreeRTOS/Source/queue.c **** 				}
2227:Middlewares/Third_Party/FreeRTOS/Source/queue.c **** 			}
2228:Middlewares/Third_Party/FreeRTOS/Source/queue.c **** 			#else /* configUSE_QUEUE_SETS */
2229:Middlewares/Third_Party/FreeRTOS/Source/queue.c **** 			{
2230:Middlewares/Third_Party/FreeRTOS/Source/queue.c **** 				/* Tasks that are removed from the event list will get added to
2231:Middlewares/Third_Party/FreeRTOS/Source/queue.c **** 				the pending ready list as the scheduler is still suspended. */
ARM GAS  C:\Users\EI\AppData\Local\Temp\cc6xPaa5.s 			page 126


2232:Middlewares/Third_Party/FreeRTOS/Source/queue.c **** 				if( listLIST_IS_EMPTY( &( pxQueue->xTasksWaitingToReceive ) ) == pdFALSE )
 4649              		.loc 1 2232 9
 4650 0016 7B68     		ldr	r3, [r7, #4]
 4651 0018 5B6A     		ldr	r3, [r3, #36]
 4652              		.loc 1 2232 7
 4653 001a 002B     		cmp	r3, #0
 4654 001c 12D0     		beq	.L304
2233:Middlewares/Third_Party/FreeRTOS/Source/queue.c **** 				{
2234:Middlewares/Third_Party/FreeRTOS/Source/queue.c **** 					if( xTaskRemoveFromEventList( &( pxQueue->xTasksWaitingToReceive ) ) != pdFALSE )
 4655              		.loc 1 2234 36
 4656 001e 7B68     		ldr	r3, [r7, #4]
 4657 0020 2433     		adds	r3, r3, #36
 4658              		.loc 1 2234 10
 4659 0022 1846     		mov	r0, r3
 4660 0024 FFF7FEFF 		bl	xTaskRemoveFromEventList
 4661 0028 0346     		mov	r3, r0
 4662              		.loc 1 2234 8
 4663 002a 002B     		cmp	r3, #0
 4664 002c 01D0     		beq	.L296
2235:Middlewares/Third_Party/FreeRTOS/Source/queue.c **** 					{
2236:Middlewares/Third_Party/FreeRTOS/Source/queue.c **** 						/* The task waiting has a higher priority so record that
2237:Middlewares/Third_Party/FreeRTOS/Source/queue.c **** 						a context switch is required. */
2238:Middlewares/Third_Party/FreeRTOS/Source/queue.c **** 						vTaskMissedYield();
 4665              		.loc 1 2238 7
 4666 002e FFF7FEFF 		bl	vTaskMissedYield
 4667              	.L296:
2239:Middlewares/Third_Party/FreeRTOS/Source/queue.c **** 					}
2240:Middlewares/Third_Party/FreeRTOS/Source/queue.c **** 					else
2241:Middlewares/Third_Party/FreeRTOS/Source/queue.c **** 					{
2242:Middlewares/Third_Party/FreeRTOS/Source/queue.c **** 						mtCOVERAGE_TEST_MARKER();
2243:Middlewares/Third_Party/FreeRTOS/Source/queue.c **** 					}
2244:Middlewares/Third_Party/FreeRTOS/Source/queue.c **** 				}
2245:Middlewares/Third_Party/FreeRTOS/Source/queue.c **** 				else
2246:Middlewares/Third_Party/FreeRTOS/Source/queue.c **** 				{
2247:Middlewares/Third_Party/FreeRTOS/Source/queue.c **** 					break;
2248:Middlewares/Third_Party/FreeRTOS/Source/queue.c **** 				}
2249:Middlewares/Third_Party/FreeRTOS/Source/queue.c **** 			}
2250:Middlewares/Third_Party/FreeRTOS/Source/queue.c **** 			#endif /* configUSE_QUEUE_SETS */
2251:Middlewares/Third_Party/FreeRTOS/Source/queue.c **** 
2252:Middlewares/Third_Party/FreeRTOS/Source/queue.c **** 			--cTxLock;
 4668              		.loc 1 2252 4
 4669 0032 FB7B     		ldrb	r3, [r7, #15]	@ zero_extendqisi2
 4670 0034 013B     		subs	r3, r3, #1
 4671 0036 DBB2     		uxtb	r3, r3
 4672 0038 FB73     		strb	r3, [r7, #15]
 4673              	.L294:
2184:Middlewares/Third_Party/FreeRTOS/Source/queue.c **** 		{
 4674              		.loc 1 2184 8
 4675 003a 97F90F30 		ldrsb	r3, [r7, #15]
 4676 003e 002B     		cmp	r3, #0
 4677 0040 E9DC     		bgt	.L298
 4678 0042 00E0     		b	.L297
 4679              	.L304:
2247:Middlewares/Third_Party/FreeRTOS/Source/queue.c **** 				}
 4680              		.loc 1 2247 6
 4681 0044 00BF     		nop
 4682              	.L297:
ARM GAS  C:\Users\EI\AppData\Local\Temp\cc6xPaa5.s 			page 127


2253:Middlewares/Third_Party/FreeRTOS/Source/queue.c **** 		}
2254:Middlewares/Third_Party/FreeRTOS/Source/queue.c **** 
2255:Middlewares/Third_Party/FreeRTOS/Source/queue.c **** 		pxQueue->cTxLock = queueUNLOCKED;
 4683              		.loc 1 2255 20
 4684 0046 7B68     		ldr	r3, [r7, #4]
 4685 0048 FF22     		movs	r2, #255
 4686 004a 83F84520 		strb	r2, [r3, #69]
 4687              	.LBE230:
2256:Middlewares/Third_Party/FreeRTOS/Source/queue.c **** 	}
2257:Middlewares/Third_Party/FreeRTOS/Source/queue.c **** 	taskEXIT_CRITICAL();
 4688              		.loc 1 2257 2
 4689 004e FFF7FEFF 		bl	vPortExitCritical
2258:Middlewares/Third_Party/FreeRTOS/Source/queue.c **** 
2259:Middlewares/Third_Party/FreeRTOS/Source/queue.c **** 	/* Do the same for the Rx lock. */
2260:Middlewares/Third_Party/FreeRTOS/Source/queue.c **** 	taskENTER_CRITICAL();
 4690              		.loc 1 2260 2
 4691 0052 FFF7FEFF 		bl	vPortEnterCritical
 4692              	.LBB231:
2261:Middlewares/Third_Party/FreeRTOS/Source/queue.c **** 	{
2262:Middlewares/Third_Party/FreeRTOS/Source/queue.c **** 		int8_t cRxLock = pxQueue->cRxLock;
 4693              		.loc 1 2262 10
 4694 0056 7B68     		ldr	r3, [r7, #4]
 4695 0058 93F84430 		ldrb	r3, [r3, #68]
 4696 005c BB73     		strb	r3, [r7, #14]
2263:Middlewares/Third_Party/FreeRTOS/Source/queue.c **** 
2264:Middlewares/Third_Party/FreeRTOS/Source/queue.c **** 		while( cRxLock > queueLOCKED_UNMODIFIED )
 4697              		.loc 1 2264 8
 4698 005e 11E0     		b	.L299
 4699              	.L303:
2265:Middlewares/Third_Party/FreeRTOS/Source/queue.c **** 		{
2266:Middlewares/Third_Party/FreeRTOS/Source/queue.c **** 			if( listLIST_IS_EMPTY( &( pxQueue->xTasksWaitingToSend ) ) == pdFALSE )
 4700              		.loc 1 2266 8
 4701 0060 7B68     		ldr	r3, [r7, #4]
 4702 0062 1B69     		ldr	r3, [r3, #16]
 4703              		.loc 1 2266 6
 4704 0064 002B     		cmp	r3, #0
 4705 0066 12D0     		beq	.L305
2267:Middlewares/Third_Party/FreeRTOS/Source/queue.c **** 			{
2268:Middlewares/Third_Party/FreeRTOS/Source/queue.c **** 				if( xTaskRemoveFromEventList( &( pxQueue->xTasksWaitingToSend ) ) != pdFALSE )
 4706              		.loc 1 2268 35
 4707 0068 7B68     		ldr	r3, [r7, #4]
 4708 006a 1033     		adds	r3, r3, #16
 4709              		.loc 1 2268 9
 4710 006c 1846     		mov	r0, r3
 4711 006e FFF7FEFF 		bl	xTaskRemoveFromEventList
 4712 0072 0346     		mov	r3, r0
 4713              		.loc 1 2268 7
 4714 0074 002B     		cmp	r3, #0
 4715 0076 01D0     		beq	.L301
2269:Middlewares/Third_Party/FreeRTOS/Source/queue.c **** 				{
2270:Middlewares/Third_Party/FreeRTOS/Source/queue.c **** 					vTaskMissedYield();
 4716              		.loc 1 2270 6
 4717 0078 FFF7FEFF 		bl	vTaskMissedYield
 4718              	.L301:
2271:Middlewares/Third_Party/FreeRTOS/Source/queue.c **** 				}
2272:Middlewares/Third_Party/FreeRTOS/Source/queue.c **** 				else
2273:Middlewares/Third_Party/FreeRTOS/Source/queue.c **** 				{
ARM GAS  C:\Users\EI\AppData\Local\Temp\cc6xPaa5.s 			page 128


2274:Middlewares/Third_Party/FreeRTOS/Source/queue.c **** 					mtCOVERAGE_TEST_MARKER();
2275:Middlewares/Third_Party/FreeRTOS/Source/queue.c **** 				}
2276:Middlewares/Third_Party/FreeRTOS/Source/queue.c **** 
2277:Middlewares/Third_Party/FreeRTOS/Source/queue.c **** 				--cRxLock;
 4719              		.loc 1 2277 5
 4720 007c BB7B     		ldrb	r3, [r7, #14]	@ zero_extendqisi2
 4721 007e 013B     		subs	r3, r3, #1
 4722 0080 DBB2     		uxtb	r3, r3
 4723 0082 BB73     		strb	r3, [r7, #14]
 4724              	.L299:
2264:Middlewares/Third_Party/FreeRTOS/Source/queue.c **** 		{
 4725              		.loc 1 2264 8
 4726 0084 97F90E30 		ldrsb	r3, [r7, #14]
 4727 0088 002B     		cmp	r3, #0
 4728 008a E9DC     		bgt	.L303
 4729 008c 00E0     		b	.L302
 4730              	.L305:
2278:Middlewares/Third_Party/FreeRTOS/Source/queue.c **** 			}
2279:Middlewares/Third_Party/FreeRTOS/Source/queue.c **** 			else
2280:Middlewares/Third_Party/FreeRTOS/Source/queue.c **** 			{
2281:Middlewares/Third_Party/FreeRTOS/Source/queue.c **** 				break;
 4731              		.loc 1 2281 5
 4732 008e 00BF     		nop
 4733              	.L302:
2282:Middlewares/Third_Party/FreeRTOS/Source/queue.c **** 			}
2283:Middlewares/Third_Party/FreeRTOS/Source/queue.c **** 		}
2284:Middlewares/Third_Party/FreeRTOS/Source/queue.c **** 
2285:Middlewares/Third_Party/FreeRTOS/Source/queue.c **** 		pxQueue->cRxLock = queueUNLOCKED;
 4734              		.loc 1 2285 20
 4735 0090 7B68     		ldr	r3, [r7, #4]
 4736 0092 FF22     		movs	r2, #255
 4737 0094 83F84420 		strb	r2, [r3, #68]
 4738              	.LBE231:
2286:Middlewares/Third_Party/FreeRTOS/Source/queue.c **** 	}
2287:Middlewares/Third_Party/FreeRTOS/Source/queue.c **** 	taskEXIT_CRITICAL();
 4739              		.loc 1 2287 2
 4740 0098 FFF7FEFF 		bl	vPortExitCritical
2288:Middlewares/Third_Party/FreeRTOS/Source/queue.c **** }
 4741              		.loc 1 2288 1
 4742 009c 00BF     		nop
 4743 009e 1037     		adds	r7, r7, #16
 4744              	.LCFI164:
 4745              		.cfi_def_cfa_offset 8
 4746 00a0 BD46     		mov	sp, r7
 4747              	.LCFI165:
 4748              		.cfi_def_cfa_register 13
 4749              		@ sp needed
 4750 00a2 80BD     		pop	{r7, pc}
 4751              		.cfi_endproc
 4752              	.LFE35:
 4754              		.section	.text.prvIsQueueEmpty,"ax",%progbits
 4755              		.align	1
 4756              		.syntax unified
 4757              		.thumb
 4758              		.thumb_func
 4759              		.fpu fpv4-sp-d16
 4761              	prvIsQueueEmpty:
ARM GAS  C:\Users\EI\AppData\Local\Temp\cc6xPaa5.s 			page 129


 4762              	.LFB36:
2289:Middlewares/Third_Party/FreeRTOS/Source/queue.c **** /*-----------------------------------------------------------*/
2290:Middlewares/Third_Party/FreeRTOS/Source/queue.c **** 
2291:Middlewares/Third_Party/FreeRTOS/Source/queue.c **** static BaseType_t prvIsQueueEmpty( const Queue_t *pxQueue )
2292:Middlewares/Third_Party/FreeRTOS/Source/queue.c **** {
 4763              		.loc 1 2292 1
 4764              		.cfi_startproc
 4765              		@ args = 0, pretend = 0, frame = 16
 4766              		@ frame_needed = 1, uses_anonymous_args = 0
 4767 0000 80B5     		push	{r7, lr}
 4768              	.LCFI166:
 4769              		.cfi_def_cfa_offset 8
 4770              		.cfi_offset 7, -8
 4771              		.cfi_offset 14, -4
 4772 0002 84B0     		sub	sp, sp, #16
 4773              	.LCFI167:
 4774              		.cfi_def_cfa_offset 24
 4775 0004 00AF     		add	r7, sp, #0
 4776              	.LCFI168:
 4777              		.cfi_def_cfa_register 7
 4778 0006 7860     		str	r0, [r7, #4]
2293:Middlewares/Third_Party/FreeRTOS/Source/queue.c **** BaseType_t xReturn;
2294:Middlewares/Third_Party/FreeRTOS/Source/queue.c **** 
2295:Middlewares/Third_Party/FreeRTOS/Source/queue.c **** 	taskENTER_CRITICAL();
 4779              		.loc 1 2295 2
 4780 0008 FFF7FEFF 		bl	vPortEnterCritical
2296:Middlewares/Third_Party/FreeRTOS/Source/queue.c **** 	{
2297:Middlewares/Third_Party/FreeRTOS/Source/queue.c **** 		if( pxQueue->uxMessagesWaiting == ( UBaseType_t )  0 )
 4781              		.loc 1 2297 14
 4782 000c 7B68     		ldr	r3, [r7, #4]
 4783 000e 9B6B     		ldr	r3, [r3, #56]
 4784              		.loc 1 2297 5
 4785 0010 002B     		cmp	r3, #0
 4786 0012 02D1     		bne	.L307
2298:Middlewares/Third_Party/FreeRTOS/Source/queue.c **** 		{
2299:Middlewares/Third_Party/FreeRTOS/Source/queue.c **** 			xReturn = pdTRUE;
 4787              		.loc 1 2299 12
 4788 0014 0123     		movs	r3, #1
 4789 0016 FB60     		str	r3, [r7, #12]
 4790 0018 01E0     		b	.L308
 4791              	.L307:
2300:Middlewares/Third_Party/FreeRTOS/Source/queue.c **** 		}
2301:Middlewares/Third_Party/FreeRTOS/Source/queue.c **** 		else
2302:Middlewares/Third_Party/FreeRTOS/Source/queue.c **** 		{
2303:Middlewares/Third_Party/FreeRTOS/Source/queue.c **** 			xReturn = pdFALSE;
 4792              		.loc 1 2303 12
 4793 001a 0023     		movs	r3, #0
 4794 001c FB60     		str	r3, [r7, #12]
 4795              	.L308:
2304:Middlewares/Third_Party/FreeRTOS/Source/queue.c **** 		}
2305:Middlewares/Third_Party/FreeRTOS/Source/queue.c **** 	}
2306:Middlewares/Third_Party/FreeRTOS/Source/queue.c **** 	taskEXIT_CRITICAL();
 4796              		.loc 1 2306 2
 4797 001e FFF7FEFF 		bl	vPortExitCritical
2307:Middlewares/Third_Party/FreeRTOS/Source/queue.c **** 
2308:Middlewares/Third_Party/FreeRTOS/Source/queue.c **** 	return xReturn;
 4798              		.loc 1 2308 9
ARM GAS  C:\Users\EI\AppData\Local\Temp\cc6xPaa5.s 			page 130


 4799 0022 FB68     		ldr	r3, [r7, #12]
2309:Middlewares/Third_Party/FreeRTOS/Source/queue.c **** }
 4800              		.loc 1 2309 1
 4801 0024 1846     		mov	r0, r3
 4802 0026 1037     		adds	r7, r7, #16
 4803              	.LCFI169:
 4804              		.cfi_def_cfa_offset 8
 4805 0028 BD46     		mov	sp, r7
 4806              	.LCFI170:
 4807              		.cfi_def_cfa_register 13
 4808              		@ sp needed
 4809 002a 80BD     		pop	{r7, pc}
 4810              		.cfi_endproc
 4811              	.LFE36:
 4813              		.section	.text.xQueueIsQueueEmptyFromISR,"ax",%progbits
 4814              		.align	1
 4815              		.global	xQueueIsQueueEmptyFromISR
 4816              		.syntax unified
 4817              		.thumb
 4818              		.thumb_func
 4819              		.fpu fpv4-sp-d16
 4821              	xQueueIsQueueEmptyFromISR:
 4822              	.LFB37:
2310:Middlewares/Third_Party/FreeRTOS/Source/queue.c **** /*-----------------------------------------------------------*/
2311:Middlewares/Third_Party/FreeRTOS/Source/queue.c **** 
2312:Middlewares/Third_Party/FreeRTOS/Source/queue.c **** BaseType_t xQueueIsQueueEmptyFromISR( const QueueHandle_t xQueue )
2313:Middlewares/Third_Party/FreeRTOS/Source/queue.c **** {
 4823              		.loc 1 2313 1
 4824              		.cfi_startproc
 4825              		@ args = 0, pretend = 0, frame = 24
 4826              		@ frame_needed = 1, uses_anonymous_args = 0
 4827              		@ link register save eliminated.
 4828 0000 80B4     		push	{r7}
 4829              	.LCFI171:
 4830              		.cfi_def_cfa_offset 4
 4831              		.cfi_offset 7, -4
 4832 0002 87B0     		sub	sp, sp, #28
 4833              	.LCFI172:
 4834              		.cfi_def_cfa_offset 32
 4835 0004 00AF     		add	r7, sp, #0
 4836              	.LCFI173:
 4837              		.cfi_def_cfa_register 7
 4838 0006 7860     		str	r0, [r7, #4]
2314:Middlewares/Third_Party/FreeRTOS/Source/queue.c **** BaseType_t xReturn;
2315:Middlewares/Third_Party/FreeRTOS/Source/queue.c **** Queue_t * const pxQueue = xQueue;
 4839              		.loc 1 2315 17
 4840 0008 7B68     		ldr	r3, [r7, #4]
 4841 000a 3B61     		str	r3, [r7, #16]
2316:Middlewares/Third_Party/FreeRTOS/Source/queue.c **** 
2317:Middlewares/Third_Party/FreeRTOS/Source/queue.c **** 	configASSERT( pxQueue );
 4842              		.loc 1 2317 2
 4843 000c 3B69     		ldr	r3, [r7, #16]
 4844 000e 002B     		cmp	r3, #0
 4845 0010 0AD1     		bne	.L311
 4846              	.LBB232:
 4847              	.LBB233:
 195:Middlewares/Third_Party/FreeRTOS/Source/portable/GCC/ARM_CM4F/portmacro.h **** 	(
ARM GAS  C:\Users\EI\AppData\Local\Temp\cc6xPaa5.s 			page 131


 4848              		.loc 2 195 2
 4849              		.syntax unified
 4850              	@ 195 "Middlewares/Third_Party/FreeRTOS/Source/portable/GCC/ARM_CM4F/portmacro.h" 1
 4851 0012 4FF05003 			mov r3, #80												
 4852 0016 83F31188 		msr basepri, r3											
 4853 001a BFF36F8F 		isb														
 4854 001e BFF34F8F 		dsb														
 4855              	
 4856              	@ 0 "" 2
 4857              		.thumb
 4858              		.syntax unified
 4859 0022 FB60     		str	r3, [r7, #12]
 203:Middlewares/Third_Party/FreeRTOS/Source/portable/GCC/ARM_CM4F/portmacro.h **** 
 4860              		.loc 2 203 1
 4861 0024 00BF     		nop
 4862              	.L312:
 4863              	.LBE233:
 4864              	.LBE232:
 4865              		.loc 1 2317 2 discriminator 1
 4866 0026 FEE7     		b	.L312
 4867              	.L311:
2318:Middlewares/Third_Party/FreeRTOS/Source/queue.c **** 	if( pxQueue->uxMessagesWaiting == ( UBaseType_t ) 0 )
 4868              		.loc 1 2318 13
 4869 0028 3B69     		ldr	r3, [r7, #16]
 4870 002a 9B6B     		ldr	r3, [r3, #56]
 4871              		.loc 1 2318 4
 4872 002c 002B     		cmp	r3, #0
 4873 002e 02D1     		bne	.L313
2319:Middlewares/Third_Party/FreeRTOS/Source/queue.c **** 	{
2320:Middlewares/Third_Party/FreeRTOS/Source/queue.c **** 		xReturn = pdTRUE;
 4874              		.loc 1 2320 11
 4875 0030 0123     		movs	r3, #1
 4876 0032 7B61     		str	r3, [r7, #20]
 4877 0034 01E0     		b	.L314
 4878              	.L313:
2321:Middlewares/Third_Party/FreeRTOS/Source/queue.c **** 	}
2322:Middlewares/Third_Party/FreeRTOS/Source/queue.c **** 	else
2323:Middlewares/Third_Party/FreeRTOS/Source/queue.c **** 	{
2324:Middlewares/Third_Party/FreeRTOS/Source/queue.c **** 		xReturn = pdFALSE;
 4879              		.loc 1 2324 11
 4880 0036 0023     		movs	r3, #0
 4881 0038 7B61     		str	r3, [r7, #20]
 4882              	.L314:
2325:Middlewares/Third_Party/FreeRTOS/Source/queue.c **** 	}
2326:Middlewares/Third_Party/FreeRTOS/Source/queue.c **** 
2327:Middlewares/Third_Party/FreeRTOS/Source/queue.c **** 	return xReturn;
 4883              		.loc 1 2327 9
 4884 003a 7B69     		ldr	r3, [r7, #20]
2328:Middlewares/Third_Party/FreeRTOS/Source/queue.c **** } /*lint !e818 xQueue could not be pointer to const because it is a typedef. */
 4885              		.loc 1 2328 1
 4886 003c 1846     		mov	r0, r3
 4887 003e 1C37     		adds	r7, r7, #28
 4888              	.LCFI174:
 4889              		.cfi_def_cfa_offset 4
 4890 0040 BD46     		mov	sp, r7
 4891              	.LCFI175:
 4892              		.cfi_def_cfa_register 13
ARM GAS  C:\Users\EI\AppData\Local\Temp\cc6xPaa5.s 			page 132


 4893              		@ sp needed
 4894 0042 5DF8047B 		ldr	r7, [sp], #4
 4895              	.LCFI176:
 4896              		.cfi_restore 7
 4897              		.cfi_def_cfa_offset 0
 4898 0046 7047     		bx	lr
 4899              		.cfi_endproc
 4900              	.LFE37:
 4902              		.section	.text.prvIsQueueFull,"ax",%progbits
 4903              		.align	1
 4904              		.syntax unified
 4905              		.thumb
 4906              		.thumb_func
 4907              		.fpu fpv4-sp-d16
 4909              	prvIsQueueFull:
 4910              	.LFB38:
2329:Middlewares/Third_Party/FreeRTOS/Source/queue.c **** /*-----------------------------------------------------------*/
2330:Middlewares/Third_Party/FreeRTOS/Source/queue.c **** 
2331:Middlewares/Third_Party/FreeRTOS/Source/queue.c **** static BaseType_t prvIsQueueFull( const Queue_t *pxQueue )
2332:Middlewares/Third_Party/FreeRTOS/Source/queue.c **** {
 4911              		.loc 1 2332 1
 4912              		.cfi_startproc
 4913              		@ args = 0, pretend = 0, frame = 16
 4914              		@ frame_needed = 1, uses_anonymous_args = 0
 4915 0000 80B5     		push	{r7, lr}
 4916              	.LCFI177:
 4917              		.cfi_def_cfa_offset 8
 4918              		.cfi_offset 7, -8
 4919              		.cfi_offset 14, -4
 4920 0002 84B0     		sub	sp, sp, #16
 4921              	.LCFI178:
 4922              		.cfi_def_cfa_offset 24
 4923 0004 00AF     		add	r7, sp, #0
 4924              	.LCFI179:
 4925              		.cfi_def_cfa_register 7
 4926 0006 7860     		str	r0, [r7, #4]
2333:Middlewares/Third_Party/FreeRTOS/Source/queue.c **** BaseType_t xReturn;
2334:Middlewares/Third_Party/FreeRTOS/Source/queue.c **** 
2335:Middlewares/Third_Party/FreeRTOS/Source/queue.c **** 	taskENTER_CRITICAL();
 4927              		.loc 1 2335 2
 4928 0008 FFF7FEFF 		bl	vPortEnterCritical
2336:Middlewares/Third_Party/FreeRTOS/Source/queue.c **** 	{
2337:Middlewares/Third_Party/FreeRTOS/Source/queue.c **** 		if( pxQueue->uxMessagesWaiting == pxQueue->uxLength )
 4929              		.loc 1 2337 14
 4930 000c 7B68     		ldr	r3, [r7, #4]
 4931 000e 9A6B     		ldr	r2, [r3, #56]
 4932              		.loc 1 2337 44
 4933 0010 7B68     		ldr	r3, [r7, #4]
 4934 0012 DB6B     		ldr	r3, [r3, #60]
 4935              		.loc 1 2337 5
 4936 0014 9A42     		cmp	r2, r3
 4937 0016 02D1     		bne	.L317
2338:Middlewares/Third_Party/FreeRTOS/Source/queue.c **** 		{
2339:Middlewares/Third_Party/FreeRTOS/Source/queue.c **** 			xReturn = pdTRUE;
 4938              		.loc 1 2339 12
 4939 0018 0123     		movs	r3, #1
 4940 001a FB60     		str	r3, [r7, #12]
ARM GAS  C:\Users\EI\AppData\Local\Temp\cc6xPaa5.s 			page 133


 4941 001c 01E0     		b	.L318
 4942              	.L317:
2340:Middlewares/Third_Party/FreeRTOS/Source/queue.c **** 		}
2341:Middlewares/Third_Party/FreeRTOS/Source/queue.c **** 		else
2342:Middlewares/Third_Party/FreeRTOS/Source/queue.c **** 		{
2343:Middlewares/Third_Party/FreeRTOS/Source/queue.c **** 			xReturn = pdFALSE;
 4943              		.loc 1 2343 12
 4944 001e 0023     		movs	r3, #0
 4945 0020 FB60     		str	r3, [r7, #12]
 4946              	.L318:
2344:Middlewares/Third_Party/FreeRTOS/Source/queue.c **** 		}
2345:Middlewares/Third_Party/FreeRTOS/Source/queue.c **** 	}
2346:Middlewares/Third_Party/FreeRTOS/Source/queue.c **** 	taskEXIT_CRITICAL();
 4947              		.loc 1 2346 2
 4948 0022 FFF7FEFF 		bl	vPortExitCritical
2347:Middlewares/Third_Party/FreeRTOS/Source/queue.c **** 
2348:Middlewares/Third_Party/FreeRTOS/Source/queue.c **** 	return xReturn;
 4949              		.loc 1 2348 9
 4950 0026 FB68     		ldr	r3, [r7, #12]
2349:Middlewares/Third_Party/FreeRTOS/Source/queue.c **** }
 4951              		.loc 1 2349 1
 4952 0028 1846     		mov	r0, r3
 4953 002a 1037     		adds	r7, r7, #16
 4954              	.LCFI180:
 4955              		.cfi_def_cfa_offset 8
 4956 002c BD46     		mov	sp, r7
 4957              	.LCFI181:
 4958              		.cfi_def_cfa_register 13
 4959              		@ sp needed
 4960 002e 80BD     		pop	{r7, pc}
 4961              		.cfi_endproc
 4962              	.LFE38:
 4964              		.section	.text.xQueueIsQueueFullFromISR,"ax",%progbits
 4965              		.align	1
 4966              		.global	xQueueIsQueueFullFromISR
 4967              		.syntax unified
 4968              		.thumb
 4969              		.thumb_func
 4970              		.fpu fpv4-sp-d16
 4972              	xQueueIsQueueFullFromISR:
 4973              	.LFB39:
2350:Middlewares/Third_Party/FreeRTOS/Source/queue.c **** /*-----------------------------------------------------------*/
2351:Middlewares/Third_Party/FreeRTOS/Source/queue.c **** 
2352:Middlewares/Third_Party/FreeRTOS/Source/queue.c **** BaseType_t xQueueIsQueueFullFromISR( const QueueHandle_t xQueue )
2353:Middlewares/Third_Party/FreeRTOS/Source/queue.c **** {
 4974              		.loc 1 2353 1
 4975              		.cfi_startproc
 4976              		@ args = 0, pretend = 0, frame = 24
 4977              		@ frame_needed = 1, uses_anonymous_args = 0
 4978              		@ link register save eliminated.
 4979 0000 80B4     		push	{r7}
 4980              	.LCFI182:
 4981              		.cfi_def_cfa_offset 4
 4982              		.cfi_offset 7, -4
 4983 0002 87B0     		sub	sp, sp, #28
 4984              	.LCFI183:
 4985              		.cfi_def_cfa_offset 32
ARM GAS  C:\Users\EI\AppData\Local\Temp\cc6xPaa5.s 			page 134


 4986 0004 00AF     		add	r7, sp, #0
 4987              	.LCFI184:
 4988              		.cfi_def_cfa_register 7
 4989 0006 7860     		str	r0, [r7, #4]
2354:Middlewares/Third_Party/FreeRTOS/Source/queue.c **** BaseType_t xReturn;
2355:Middlewares/Third_Party/FreeRTOS/Source/queue.c **** Queue_t * const pxQueue = xQueue;
 4990              		.loc 1 2355 17
 4991 0008 7B68     		ldr	r3, [r7, #4]
 4992 000a 3B61     		str	r3, [r7, #16]
2356:Middlewares/Third_Party/FreeRTOS/Source/queue.c **** 
2357:Middlewares/Third_Party/FreeRTOS/Source/queue.c **** 	configASSERT( pxQueue );
 4993              		.loc 1 2357 2
 4994 000c 3B69     		ldr	r3, [r7, #16]
 4995 000e 002B     		cmp	r3, #0
 4996 0010 0AD1     		bne	.L321
 4997              	.LBB234:
 4998              	.LBB235:
 195:Middlewares/Third_Party/FreeRTOS/Source/portable/GCC/ARM_CM4F/portmacro.h **** 	(
 4999              		.loc 2 195 2
 5000              		.syntax unified
 5001              	@ 195 "Middlewares/Third_Party/FreeRTOS/Source/portable/GCC/ARM_CM4F/portmacro.h" 1
 5002 0012 4FF05003 			mov r3, #80												
 5003 0016 83F31188 		msr basepri, r3											
 5004 001a BFF36F8F 		isb														
 5005 001e BFF34F8F 		dsb														
 5006              	
 5007              	@ 0 "" 2
 5008              		.thumb
 5009              		.syntax unified
 5010 0022 FB60     		str	r3, [r7, #12]
 203:Middlewares/Third_Party/FreeRTOS/Source/portable/GCC/ARM_CM4F/portmacro.h **** 
 5011              		.loc 2 203 1
 5012 0024 00BF     		nop
 5013              	.L322:
 5014              	.LBE235:
 5015              	.LBE234:
 5016              		.loc 1 2357 2 discriminator 1
 5017 0026 FEE7     		b	.L322
 5018              	.L321:
2358:Middlewares/Third_Party/FreeRTOS/Source/queue.c **** 	if( pxQueue->uxMessagesWaiting == pxQueue->uxLength )
 5019              		.loc 1 2358 13
 5020 0028 3B69     		ldr	r3, [r7, #16]
 5021 002a 9A6B     		ldr	r2, [r3, #56]
 5022              		.loc 1 2358 43
 5023 002c 3B69     		ldr	r3, [r7, #16]
 5024 002e DB6B     		ldr	r3, [r3, #60]
 5025              		.loc 1 2358 4
 5026 0030 9A42     		cmp	r2, r3
 5027 0032 02D1     		bne	.L323
2359:Middlewares/Third_Party/FreeRTOS/Source/queue.c **** 	{
2360:Middlewares/Third_Party/FreeRTOS/Source/queue.c **** 		xReturn = pdTRUE;
 5028              		.loc 1 2360 11
 5029 0034 0123     		movs	r3, #1
 5030 0036 7B61     		str	r3, [r7, #20]
 5031 0038 01E0     		b	.L324
 5032              	.L323:
2361:Middlewares/Third_Party/FreeRTOS/Source/queue.c **** 	}
ARM GAS  C:\Users\EI\AppData\Local\Temp\cc6xPaa5.s 			page 135


2362:Middlewares/Third_Party/FreeRTOS/Source/queue.c **** 	else
2363:Middlewares/Third_Party/FreeRTOS/Source/queue.c **** 	{
2364:Middlewares/Third_Party/FreeRTOS/Source/queue.c **** 		xReturn = pdFALSE;
 5033              		.loc 1 2364 11
 5034 003a 0023     		movs	r3, #0
 5035 003c 7B61     		str	r3, [r7, #20]
 5036              	.L324:
2365:Middlewares/Third_Party/FreeRTOS/Source/queue.c **** 	}
2366:Middlewares/Third_Party/FreeRTOS/Source/queue.c **** 
2367:Middlewares/Third_Party/FreeRTOS/Source/queue.c **** 	return xReturn;
 5037              		.loc 1 2367 9
 5038 003e 7B69     		ldr	r3, [r7, #20]
2368:Middlewares/Third_Party/FreeRTOS/Source/queue.c **** } /*lint !e818 xQueue could not be pointer to const because it is a typedef. */
 5039              		.loc 1 2368 1
 5040 0040 1846     		mov	r0, r3
 5041 0042 1C37     		adds	r7, r7, #28
 5042              	.LCFI185:
 5043              		.cfi_def_cfa_offset 4
 5044 0044 BD46     		mov	sp, r7
 5045              	.LCFI186:
 5046              		.cfi_def_cfa_register 13
 5047              		@ sp needed
 5048 0046 5DF8047B 		ldr	r7, [sp], #4
 5049              	.LCFI187:
 5050              		.cfi_restore 7
 5051              		.cfi_def_cfa_offset 0
 5052 004a 7047     		bx	lr
 5053              		.cfi_endproc
 5054              	.LFE39:
 5056              		.section	.text.vQueueAddToRegistry,"ax",%progbits
 5057              		.align	1
 5058              		.global	vQueueAddToRegistry
 5059              		.syntax unified
 5060              		.thumb
 5061              		.thumb_func
 5062              		.fpu fpv4-sp-d16
 5064              	vQueueAddToRegistry:
 5065              	.LFB40:
2369:Middlewares/Third_Party/FreeRTOS/Source/queue.c **** /*-----------------------------------------------------------*/
2370:Middlewares/Third_Party/FreeRTOS/Source/queue.c **** 
2371:Middlewares/Third_Party/FreeRTOS/Source/queue.c **** #if ( configUSE_CO_ROUTINES == 1 )
2372:Middlewares/Third_Party/FreeRTOS/Source/queue.c **** 
2373:Middlewares/Third_Party/FreeRTOS/Source/queue.c **** 	BaseType_t xQueueCRSend( QueueHandle_t xQueue, const void *pvItemToQueue, TickType_t xTicksToWait 
2374:Middlewares/Third_Party/FreeRTOS/Source/queue.c **** 	{
2375:Middlewares/Third_Party/FreeRTOS/Source/queue.c **** 	BaseType_t xReturn;
2376:Middlewares/Third_Party/FreeRTOS/Source/queue.c **** 	Queue_t * const pxQueue = xQueue;
2377:Middlewares/Third_Party/FreeRTOS/Source/queue.c **** 
2378:Middlewares/Third_Party/FreeRTOS/Source/queue.c **** 		/* If the queue is already full we may have to block.  A critical section
2379:Middlewares/Third_Party/FreeRTOS/Source/queue.c **** 		is required to prevent an interrupt removing something from the queue
2380:Middlewares/Third_Party/FreeRTOS/Source/queue.c **** 		between the check to see if the queue is full and blocking on the queue. */
2381:Middlewares/Third_Party/FreeRTOS/Source/queue.c **** 		portDISABLE_INTERRUPTS();
2382:Middlewares/Third_Party/FreeRTOS/Source/queue.c **** 		{
2383:Middlewares/Third_Party/FreeRTOS/Source/queue.c **** 			if( prvIsQueueFull( pxQueue ) != pdFALSE )
2384:Middlewares/Third_Party/FreeRTOS/Source/queue.c **** 			{
2385:Middlewares/Third_Party/FreeRTOS/Source/queue.c **** 				/* The queue is full - do we want to block or just leave without
2386:Middlewares/Third_Party/FreeRTOS/Source/queue.c **** 				posting? */
2387:Middlewares/Third_Party/FreeRTOS/Source/queue.c **** 				if( xTicksToWait > ( TickType_t ) 0 )
ARM GAS  C:\Users\EI\AppData\Local\Temp\cc6xPaa5.s 			page 136


2388:Middlewares/Third_Party/FreeRTOS/Source/queue.c **** 				{
2389:Middlewares/Third_Party/FreeRTOS/Source/queue.c **** 					/* As this is called from a coroutine we cannot block directly, but
2390:Middlewares/Third_Party/FreeRTOS/Source/queue.c **** 					return indicating that we need to block. */
2391:Middlewares/Third_Party/FreeRTOS/Source/queue.c **** 					vCoRoutineAddToDelayedList( xTicksToWait, &( pxQueue->xTasksWaitingToSend ) );
2392:Middlewares/Third_Party/FreeRTOS/Source/queue.c **** 					portENABLE_INTERRUPTS();
2393:Middlewares/Third_Party/FreeRTOS/Source/queue.c **** 					return errQUEUE_BLOCKED;
2394:Middlewares/Third_Party/FreeRTOS/Source/queue.c **** 				}
2395:Middlewares/Third_Party/FreeRTOS/Source/queue.c **** 				else
2396:Middlewares/Third_Party/FreeRTOS/Source/queue.c **** 				{
2397:Middlewares/Third_Party/FreeRTOS/Source/queue.c **** 					portENABLE_INTERRUPTS();
2398:Middlewares/Third_Party/FreeRTOS/Source/queue.c **** 					return errQUEUE_FULL;
2399:Middlewares/Third_Party/FreeRTOS/Source/queue.c **** 				}
2400:Middlewares/Third_Party/FreeRTOS/Source/queue.c **** 			}
2401:Middlewares/Third_Party/FreeRTOS/Source/queue.c **** 		}
2402:Middlewares/Third_Party/FreeRTOS/Source/queue.c **** 		portENABLE_INTERRUPTS();
2403:Middlewares/Third_Party/FreeRTOS/Source/queue.c **** 
2404:Middlewares/Third_Party/FreeRTOS/Source/queue.c **** 		portDISABLE_INTERRUPTS();
2405:Middlewares/Third_Party/FreeRTOS/Source/queue.c **** 		{
2406:Middlewares/Third_Party/FreeRTOS/Source/queue.c **** 			if( pxQueue->uxMessagesWaiting < pxQueue->uxLength )
2407:Middlewares/Third_Party/FreeRTOS/Source/queue.c **** 			{
2408:Middlewares/Third_Party/FreeRTOS/Source/queue.c **** 				/* There is room in the queue, copy the data into the queue. */
2409:Middlewares/Third_Party/FreeRTOS/Source/queue.c **** 				prvCopyDataToQueue( pxQueue, pvItemToQueue, queueSEND_TO_BACK );
2410:Middlewares/Third_Party/FreeRTOS/Source/queue.c **** 				xReturn = pdPASS;
2411:Middlewares/Third_Party/FreeRTOS/Source/queue.c **** 
2412:Middlewares/Third_Party/FreeRTOS/Source/queue.c **** 				/* Were any co-routines waiting for data to become available? */
2413:Middlewares/Third_Party/FreeRTOS/Source/queue.c **** 				if( listLIST_IS_EMPTY( &( pxQueue->xTasksWaitingToReceive ) ) == pdFALSE )
2414:Middlewares/Third_Party/FreeRTOS/Source/queue.c **** 				{
2415:Middlewares/Third_Party/FreeRTOS/Source/queue.c **** 					/* In this instance the co-routine could be placed directly
2416:Middlewares/Third_Party/FreeRTOS/Source/queue.c **** 					into the ready list as we are within a critical section.
2417:Middlewares/Third_Party/FreeRTOS/Source/queue.c **** 					Instead the same pending ready list mechanism is used as if
2418:Middlewares/Third_Party/FreeRTOS/Source/queue.c **** 					the event were caused from within an interrupt. */
2419:Middlewares/Third_Party/FreeRTOS/Source/queue.c **** 					if( xCoRoutineRemoveFromEventList( &( pxQueue->xTasksWaitingToReceive ) ) != pdFALSE )
2420:Middlewares/Third_Party/FreeRTOS/Source/queue.c **** 					{
2421:Middlewares/Third_Party/FreeRTOS/Source/queue.c **** 						/* The co-routine waiting has a higher priority so record
2422:Middlewares/Third_Party/FreeRTOS/Source/queue.c **** 						that a yield might be appropriate. */
2423:Middlewares/Third_Party/FreeRTOS/Source/queue.c **** 						xReturn = errQUEUE_YIELD;
2424:Middlewares/Third_Party/FreeRTOS/Source/queue.c **** 					}
2425:Middlewares/Third_Party/FreeRTOS/Source/queue.c **** 					else
2426:Middlewares/Third_Party/FreeRTOS/Source/queue.c **** 					{
2427:Middlewares/Third_Party/FreeRTOS/Source/queue.c **** 						mtCOVERAGE_TEST_MARKER();
2428:Middlewares/Third_Party/FreeRTOS/Source/queue.c **** 					}
2429:Middlewares/Third_Party/FreeRTOS/Source/queue.c **** 				}
2430:Middlewares/Third_Party/FreeRTOS/Source/queue.c **** 				else
2431:Middlewares/Third_Party/FreeRTOS/Source/queue.c **** 				{
2432:Middlewares/Third_Party/FreeRTOS/Source/queue.c **** 					mtCOVERAGE_TEST_MARKER();
2433:Middlewares/Third_Party/FreeRTOS/Source/queue.c **** 				}
2434:Middlewares/Third_Party/FreeRTOS/Source/queue.c **** 			}
2435:Middlewares/Third_Party/FreeRTOS/Source/queue.c **** 			else
2436:Middlewares/Third_Party/FreeRTOS/Source/queue.c **** 			{
2437:Middlewares/Third_Party/FreeRTOS/Source/queue.c **** 				xReturn = errQUEUE_FULL;
2438:Middlewares/Third_Party/FreeRTOS/Source/queue.c **** 			}
2439:Middlewares/Third_Party/FreeRTOS/Source/queue.c **** 		}
2440:Middlewares/Third_Party/FreeRTOS/Source/queue.c **** 		portENABLE_INTERRUPTS();
2441:Middlewares/Third_Party/FreeRTOS/Source/queue.c **** 
2442:Middlewares/Third_Party/FreeRTOS/Source/queue.c **** 		return xReturn;
2443:Middlewares/Third_Party/FreeRTOS/Source/queue.c **** 	}
2444:Middlewares/Third_Party/FreeRTOS/Source/queue.c **** 
ARM GAS  C:\Users\EI\AppData\Local\Temp\cc6xPaa5.s 			page 137


2445:Middlewares/Third_Party/FreeRTOS/Source/queue.c **** #endif /* configUSE_CO_ROUTINES */
2446:Middlewares/Third_Party/FreeRTOS/Source/queue.c **** /*-----------------------------------------------------------*/
2447:Middlewares/Third_Party/FreeRTOS/Source/queue.c **** 
2448:Middlewares/Third_Party/FreeRTOS/Source/queue.c **** #if ( configUSE_CO_ROUTINES == 1 )
2449:Middlewares/Third_Party/FreeRTOS/Source/queue.c **** 
2450:Middlewares/Third_Party/FreeRTOS/Source/queue.c **** 	BaseType_t xQueueCRReceive( QueueHandle_t xQueue, void *pvBuffer, TickType_t xTicksToWait )
2451:Middlewares/Third_Party/FreeRTOS/Source/queue.c **** 	{
2452:Middlewares/Third_Party/FreeRTOS/Source/queue.c **** 	BaseType_t xReturn;
2453:Middlewares/Third_Party/FreeRTOS/Source/queue.c **** 	Queue_t * const pxQueue = xQueue;
2454:Middlewares/Third_Party/FreeRTOS/Source/queue.c **** 
2455:Middlewares/Third_Party/FreeRTOS/Source/queue.c **** 		/* If the queue is already empty we may have to block.  A critical section
2456:Middlewares/Third_Party/FreeRTOS/Source/queue.c **** 		is required to prevent an interrupt adding something to the queue
2457:Middlewares/Third_Party/FreeRTOS/Source/queue.c **** 		between the check to see if the queue is empty and blocking on the queue. */
2458:Middlewares/Third_Party/FreeRTOS/Source/queue.c **** 		portDISABLE_INTERRUPTS();
2459:Middlewares/Third_Party/FreeRTOS/Source/queue.c **** 		{
2460:Middlewares/Third_Party/FreeRTOS/Source/queue.c **** 			if( pxQueue->uxMessagesWaiting == ( UBaseType_t ) 0 )
2461:Middlewares/Third_Party/FreeRTOS/Source/queue.c **** 			{
2462:Middlewares/Third_Party/FreeRTOS/Source/queue.c **** 				/* There are no messages in the queue, do we want to block or just
2463:Middlewares/Third_Party/FreeRTOS/Source/queue.c **** 				leave with nothing? */
2464:Middlewares/Third_Party/FreeRTOS/Source/queue.c **** 				if( xTicksToWait > ( TickType_t ) 0 )
2465:Middlewares/Third_Party/FreeRTOS/Source/queue.c **** 				{
2466:Middlewares/Third_Party/FreeRTOS/Source/queue.c **** 					/* As this is a co-routine we cannot block directly, but return
2467:Middlewares/Third_Party/FreeRTOS/Source/queue.c **** 					indicating that we need to block. */
2468:Middlewares/Third_Party/FreeRTOS/Source/queue.c **** 					vCoRoutineAddToDelayedList( xTicksToWait, &( pxQueue->xTasksWaitingToReceive ) );
2469:Middlewares/Third_Party/FreeRTOS/Source/queue.c **** 					portENABLE_INTERRUPTS();
2470:Middlewares/Third_Party/FreeRTOS/Source/queue.c **** 					return errQUEUE_BLOCKED;
2471:Middlewares/Third_Party/FreeRTOS/Source/queue.c **** 				}
2472:Middlewares/Third_Party/FreeRTOS/Source/queue.c **** 				else
2473:Middlewares/Third_Party/FreeRTOS/Source/queue.c **** 				{
2474:Middlewares/Third_Party/FreeRTOS/Source/queue.c **** 					portENABLE_INTERRUPTS();
2475:Middlewares/Third_Party/FreeRTOS/Source/queue.c **** 					return errQUEUE_FULL;
2476:Middlewares/Third_Party/FreeRTOS/Source/queue.c **** 				}
2477:Middlewares/Third_Party/FreeRTOS/Source/queue.c **** 			}
2478:Middlewares/Third_Party/FreeRTOS/Source/queue.c **** 			else
2479:Middlewares/Third_Party/FreeRTOS/Source/queue.c **** 			{
2480:Middlewares/Third_Party/FreeRTOS/Source/queue.c **** 				mtCOVERAGE_TEST_MARKER();
2481:Middlewares/Third_Party/FreeRTOS/Source/queue.c **** 			}
2482:Middlewares/Third_Party/FreeRTOS/Source/queue.c **** 		}
2483:Middlewares/Third_Party/FreeRTOS/Source/queue.c **** 		portENABLE_INTERRUPTS();
2484:Middlewares/Third_Party/FreeRTOS/Source/queue.c **** 
2485:Middlewares/Third_Party/FreeRTOS/Source/queue.c **** 		portDISABLE_INTERRUPTS();
2486:Middlewares/Third_Party/FreeRTOS/Source/queue.c **** 		{
2487:Middlewares/Third_Party/FreeRTOS/Source/queue.c **** 			if( pxQueue->uxMessagesWaiting > ( UBaseType_t ) 0 )
2488:Middlewares/Third_Party/FreeRTOS/Source/queue.c **** 			{
2489:Middlewares/Third_Party/FreeRTOS/Source/queue.c **** 				/* Data is available from the queue. */
2490:Middlewares/Third_Party/FreeRTOS/Source/queue.c **** 				pxQueue->u.xQueue.pcReadFrom += pxQueue->uxItemSize;
2491:Middlewares/Third_Party/FreeRTOS/Source/queue.c **** 				if( pxQueue->u.xQueue.pcReadFrom >= pxQueue->u.xQueue.pcTail )
2492:Middlewares/Third_Party/FreeRTOS/Source/queue.c **** 				{
2493:Middlewares/Third_Party/FreeRTOS/Source/queue.c **** 					pxQueue->u.xQueue.pcReadFrom = pxQueue->pcHead;
2494:Middlewares/Third_Party/FreeRTOS/Source/queue.c **** 				}
2495:Middlewares/Third_Party/FreeRTOS/Source/queue.c **** 				else
2496:Middlewares/Third_Party/FreeRTOS/Source/queue.c **** 				{
2497:Middlewares/Third_Party/FreeRTOS/Source/queue.c **** 					mtCOVERAGE_TEST_MARKER();
2498:Middlewares/Third_Party/FreeRTOS/Source/queue.c **** 				}
2499:Middlewares/Third_Party/FreeRTOS/Source/queue.c **** 				--( pxQueue->uxMessagesWaiting );
2500:Middlewares/Third_Party/FreeRTOS/Source/queue.c **** 				( void ) memcpy( ( void * ) pvBuffer, ( void * ) pxQueue->u.xQueue.pcReadFrom, ( unsigned ) pxQ
2501:Middlewares/Third_Party/FreeRTOS/Source/queue.c **** 
ARM GAS  C:\Users\EI\AppData\Local\Temp\cc6xPaa5.s 			page 138


2502:Middlewares/Third_Party/FreeRTOS/Source/queue.c **** 				xReturn = pdPASS;
2503:Middlewares/Third_Party/FreeRTOS/Source/queue.c **** 
2504:Middlewares/Third_Party/FreeRTOS/Source/queue.c **** 				/* Were any co-routines waiting for space to become available? */
2505:Middlewares/Third_Party/FreeRTOS/Source/queue.c **** 				if( listLIST_IS_EMPTY( &( pxQueue->xTasksWaitingToSend ) ) == pdFALSE )
2506:Middlewares/Third_Party/FreeRTOS/Source/queue.c **** 				{
2507:Middlewares/Third_Party/FreeRTOS/Source/queue.c **** 					/* In this instance the co-routine could be placed directly
2508:Middlewares/Third_Party/FreeRTOS/Source/queue.c **** 					into the ready list as we are within a critical section.
2509:Middlewares/Third_Party/FreeRTOS/Source/queue.c **** 					Instead the same pending ready list mechanism is used as if
2510:Middlewares/Third_Party/FreeRTOS/Source/queue.c **** 					the event were caused from within an interrupt. */
2511:Middlewares/Third_Party/FreeRTOS/Source/queue.c **** 					if( xCoRoutineRemoveFromEventList( &( pxQueue->xTasksWaitingToSend ) ) != pdFALSE )
2512:Middlewares/Third_Party/FreeRTOS/Source/queue.c **** 					{
2513:Middlewares/Third_Party/FreeRTOS/Source/queue.c **** 						xReturn = errQUEUE_YIELD;
2514:Middlewares/Third_Party/FreeRTOS/Source/queue.c **** 					}
2515:Middlewares/Third_Party/FreeRTOS/Source/queue.c **** 					else
2516:Middlewares/Third_Party/FreeRTOS/Source/queue.c **** 					{
2517:Middlewares/Third_Party/FreeRTOS/Source/queue.c **** 						mtCOVERAGE_TEST_MARKER();
2518:Middlewares/Third_Party/FreeRTOS/Source/queue.c **** 					}
2519:Middlewares/Third_Party/FreeRTOS/Source/queue.c **** 				}
2520:Middlewares/Third_Party/FreeRTOS/Source/queue.c **** 				else
2521:Middlewares/Third_Party/FreeRTOS/Source/queue.c **** 				{
2522:Middlewares/Third_Party/FreeRTOS/Source/queue.c **** 					mtCOVERAGE_TEST_MARKER();
2523:Middlewares/Third_Party/FreeRTOS/Source/queue.c **** 				}
2524:Middlewares/Third_Party/FreeRTOS/Source/queue.c **** 			}
2525:Middlewares/Third_Party/FreeRTOS/Source/queue.c **** 			else
2526:Middlewares/Third_Party/FreeRTOS/Source/queue.c **** 			{
2527:Middlewares/Third_Party/FreeRTOS/Source/queue.c **** 				xReturn = pdFAIL;
2528:Middlewares/Third_Party/FreeRTOS/Source/queue.c **** 			}
2529:Middlewares/Third_Party/FreeRTOS/Source/queue.c **** 		}
2530:Middlewares/Third_Party/FreeRTOS/Source/queue.c **** 		portENABLE_INTERRUPTS();
2531:Middlewares/Third_Party/FreeRTOS/Source/queue.c **** 
2532:Middlewares/Third_Party/FreeRTOS/Source/queue.c **** 		return xReturn;
2533:Middlewares/Third_Party/FreeRTOS/Source/queue.c **** 	}
2534:Middlewares/Third_Party/FreeRTOS/Source/queue.c **** 
2535:Middlewares/Third_Party/FreeRTOS/Source/queue.c **** #endif /* configUSE_CO_ROUTINES */
2536:Middlewares/Third_Party/FreeRTOS/Source/queue.c **** /*-----------------------------------------------------------*/
2537:Middlewares/Third_Party/FreeRTOS/Source/queue.c **** 
2538:Middlewares/Third_Party/FreeRTOS/Source/queue.c **** #if ( configUSE_CO_ROUTINES == 1 )
2539:Middlewares/Third_Party/FreeRTOS/Source/queue.c **** 
2540:Middlewares/Third_Party/FreeRTOS/Source/queue.c **** 	BaseType_t xQueueCRSendFromISR( QueueHandle_t xQueue, const void *pvItemToQueue, BaseType_t xCoRou
2541:Middlewares/Third_Party/FreeRTOS/Source/queue.c **** 	{
2542:Middlewares/Third_Party/FreeRTOS/Source/queue.c **** 	Queue_t * const pxQueue = xQueue;
2543:Middlewares/Third_Party/FreeRTOS/Source/queue.c **** 
2544:Middlewares/Third_Party/FreeRTOS/Source/queue.c **** 		/* Cannot block within an ISR so if there is no space on the queue then
2545:Middlewares/Third_Party/FreeRTOS/Source/queue.c **** 		exit without doing anything. */
2546:Middlewares/Third_Party/FreeRTOS/Source/queue.c **** 		if( pxQueue->uxMessagesWaiting < pxQueue->uxLength )
2547:Middlewares/Third_Party/FreeRTOS/Source/queue.c **** 		{
2548:Middlewares/Third_Party/FreeRTOS/Source/queue.c **** 			prvCopyDataToQueue( pxQueue, pvItemToQueue, queueSEND_TO_BACK );
2549:Middlewares/Third_Party/FreeRTOS/Source/queue.c **** 
2550:Middlewares/Third_Party/FreeRTOS/Source/queue.c **** 			/* We only want to wake one co-routine per ISR, so check that a
2551:Middlewares/Third_Party/FreeRTOS/Source/queue.c **** 			co-routine has not already been woken. */
2552:Middlewares/Third_Party/FreeRTOS/Source/queue.c **** 			if( xCoRoutinePreviouslyWoken == pdFALSE )
2553:Middlewares/Third_Party/FreeRTOS/Source/queue.c **** 			{
2554:Middlewares/Third_Party/FreeRTOS/Source/queue.c **** 				if( listLIST_IS_EMPTY( &( pxQueue->xTasksWaitingToReceive ) ) == pdFALSE )
2555:Middlewares/Third_Party/FreeRTOS/Source/queue.c **** 				{
2556:Middlewares/Third_Party/FreeRTOS/Source/queue.c **** 					if( xCoRoutineRemoveFromEventList( &( pxQueue->xTasksWaitingToReceive ) ) != pdFALSE )
2557:Middlewares/Third_Party/FreeRTOS/Source/queue.c **** 					{
2558:Middlewares/Third_Party/FreeRTOS/Source/queue.c **** 						return pdTRUE;
ARM GAS  C:\Users\EI\AppData\Local\Temp\cc6xPaa5.s 			page 139


2559:Middlewares/Third_Party/FreeRTOS/Source/queue.c **** 					}
2560:Middlewares/Third_Party/FreeRTOS/Source/queue.c **** 					else
2561:Middlewares/Third_Party/FreeRTOS/Source/queue.c **** 					{
2562:Middlewares/Third_Party/FreeRTOS/Source/queue.c **** 						mtCOVERAGE_TEST_MARKER();
2563:Middlewares/Third_Party/FreeRTOS/Source/queue.c **** 					}
2564:Middlewares/Third_Party/FreeRTOS/Source/queue.c **** 				}
2565:Middlewares/Third_Party/FreeRTOS/Source/queue.c **** 				else
2566:Middlewares/Third_Party/FreeRTOS/Source/queue.c **** 				{
2567:Middlewares/Third_Party/FreeRTOS/Source/queue.c **** 					mtCOVERAGE_TEST_MARKER();
2568:Middlewares/Third_Party/FreeRTOS/Source/queue.c **** 				}
2569:Middlewares/Third_Party/FreeRTOS/Source/queue.c **** 			}
2570:Middlewares/Third_Party/FreeRTOS/Source/queue.c **** 			else
2571:Middlewares/Third_Party/FreeRTOS/Source/queue.c **** 			{
2572:Middlewares/Third_Party/FreeRTOS/Source/queue.c **** 				mtCOVERAGE_TEST_MARKER();
2573:Middlewares/Third_Party/FreeRTOS/Source/queue.c **** 			}
2574:Middlewares/Third_Party/FreeRTOS/Source/queue.c **** 		}
2575:Middlewares/Third_Party/FreeRTOS/Source/queue.c **** 		else
2576:Middlewares/Third_Party/FreeRTOS/Source/queue.c **** 		{
2577:Middlewares/Third_Party/FreeRTOS/Source/queue.c **** 			mtCOVERAGE_TEST_MARKER();
2578:Middlewares/Third_Party/FreeRTOS/Source/queue.c **** 		}
2579:Middlewares/Third_Party/FreeRTOS/Source/queue.c **** 
2580:Middlewares/Third_Party/FreeRTOS/Source/queue.c **** 		return xCoRoutinePreviouslyWoken;
2581:Middlewares/Third_Party/FreeRTOS/Source/queue.c **** 	}
2582:Middlewares/Third_Party/FreeRTOS/Source/queue.c **** 
2583:Middlewares/Third_Party/FreeRTOS/Source/queue.c **** #endif /* configUSE_CO_ROUTINES */
2584:Middlewares/Third_Party/FreeRTOS/Source/queue.c **** /*-----------------------------------------------------------*/
2585:Middlewares/Third_Party/FreeRTOS/Source/queue.c **** 
2586:Middlewares/Third_Party/FreeRTOS/Source/queue.c **** #if ( configUSE_CO_ROUTINES == 1 )
2587:Middlewares/Third_Party/FreeRTOS/Source/queue.c **** 
2588:Middlewares/Third_Party/FreeRTOS/Source/queue.c **** 	BaseType_t xQueueCRReceiveFromISR( QueueHandle_t xQueue, void *pvBuffer, BaseType_t *pxCoRoutineWo
2589:Middlewares/Third_Party/FreeRTOS/Source/queue.c **** 	{
2590:Middlewares/Third_Party/FreeRTOS/Source/queue.c **** 	BaseType_t xReturn;
2591:Middlewares/Third_Party/FreeRTOS/Source/queue.c **** 	Queue_t * const pxQueue = xQueue;
2592:Middlewares/Third_Party/FreeRTOS/Source/queue.c **** 
2593:Middlewares/Third_Party/FreeRTOS/Source/queue.c **** 		/* We cannot block from an ISR, so check there is data available. If
2594:Middlewares/Third_Party/FreeRTOS/Source/queue.c **** 		not then just leave without doing anything. */
2595:Middlewares/Third_Party/FreeRTOS/Source/queue.c **** 		if( pxQueue->uxMessagesWaiting > ( UBaseType_t ) 0 )
2596:Middlewares/Third_Party/FreeRTOS/Source/queue.c **** 		{
2597:Middlewares/Third_Party/FreeRTOS/Source/queue.c **** 			/* Copy the data from the queue. */
2598:Middlewares/Third_Party/FreeRTOS/Source/queue.c **** 			pxQueue->u.xQueue.pcReadFrom += pxQueue->uxItemSize;
2599:Middlewares/Third_Party/FreeRTOS/Source/queue.c **** 			if( pxQueue->u.xQueue.pcReadFrom >= pxQueue->u.xQueue.pcTail )
2600:Middlewares/Third_Party/FreeRTOS/Source/queue.c **** 			{
2601:Middlewares/Third_Party/FreeRTOS/Source/queue.c **** 				pxQueue->u.xQueue.pcReadFrom = pxQueue->pcHead;
2602:Middlewares/Third_Party/FreeRTOS/Source/queue.c **** 			}
2603:Middlewares/Third_Party/FreeRTOS/Source/queue.c **** 			else
2604:Middlewares/Third_Party/FreeRTOS/Source/queue.c **** 			{
2605:Middlewares/Third_Party/FreeRTOS/Source/queue.c **** 				mtCOVERAGE_TEST_MARKER();
2606:Middlewares/Third_Party/FreeRTOS/Source/queue.c **** 			}
2607:Middlewares/Third_Party/FreeRTOS/Source/queue.c **** 			--( pxQueue->uxMessagesWaiting );
2608:Middlewares/Third_Party/FreeRTOS/Source/queue.c **** 			( void ) memcpy( ( void * ) pvBuffer, ( void * ) pxQueue->u.xQueue.pcReadFrom, ( unsigned ) pxQu
2609:Middlewares/Third_Party/FreeRTOS/Source/queue.c **** 
2610:Middlewares/Third_Party/FreeRTOS/Source/queue.c **** 			if( ( *pxCoRoutineWoken ) == pdFALSE )
2611:Middlewares/Third_Party/FreeRTOS/Source/queue.c **** 			{
2612:Middlewares/Third_Party/FreeRTOS/Source/queue.c **** 				if( listLIST_IS_EMPTY( &( pxQueue->xTasksWaitingToSend ) ) == pdFALSE )
2613:Middlewares/Third_Party/FreeRTOS/Source/queue.c **** 				{
2614:Middlewares/Third_Party/FreeRTOS/Source/queue.c **** 					if( xCoRoutineRemoveFromEventList( &( pxQueue->xTasksWaitingToSend ) ) != pdFALSE )
2615:Middlewares/Third_Party/FreeRTOS/Source/queue.c **** 					{
ARM GAS  C:\Users\EI\AppData\Local\Temp\cc6xPaa5.s 			page 140


2616:Middlewares/Third_Party/FreeRTOS/Source/queue.c **** 						*pxCoRoutineWoken = pdTRUE;
2617:Middlewares/Third_Party/FreeRTOS/Source/queue.c **** 					}
2618:Middlewares/Third_Party/FreeRTOS/Source/queue.c **** 					else
2619:Middlewares/Third_Party/FreeRTOS/Source/queue.c **** 					{
2620:Middlewares/Third_Party/FreeRTOS/Source/queue.c **** 						mtCOVERAGE_TEST_MARKER();
2621:Middlewares/Third_Party/FreeRTOS/Source/queue.c **** 					}
2622:Middlewares/Third_Party/FreeRTOS/Source/queue.c **** 				}
2623:Middlewares/Third_Party/FreeRTOS/Source/queue.c **** 				else
2624:Middlewares/Third_Party/FreeRTOS/Source/queue.c **** 				{
2625:Middlewares/Third_Party/FreeRTOS/Source/queue.c **** 					mtCOVERAGE_TEST_MARKER();
2626:Middlewares/Third_Party/FreeRTOS/Source/queue.c **** 				}
2627:Middlewares/Third_Party/FreeRTOS/Source/queue.c **** 			}
2628:Middlewares/Third_Party/FreeRTOS/Source/queue.c **** 			else
2629:Middlewares/Third_Party/FreeRTOS/Source/queue.c **** 			{
2630:Middlewares/Third_Party/FreeRTOS/Source/queue.c **** 				mtCOVERAGE_TEST_MARKER();
2631:Middlewares/Third_Party/FreeRTOS/Source/queue.c **** 			}
2632:Middlewares/Third_Party/FreeRTOS/Source/queue.c **** 
2633:Middlewares/Third_Party/FreeRTOS/Source/queue.c **** 			xReturn = pdPASS;
2634:Middlewares/Third_Party/FreeRTOS/Source/queue.c **** 		}
2635:Middlewares/Third_Party/FreeRTOS/Source/queue.c **** 		else
2636:Middlewares/Third_Party/FreeRTOS/Source/queue.c **** 		{
2637:Middlewares/Third_Party/FreeRTOS/Source/queue.c **** 			xReturn = pdFAIL;
2638:Middlewares/Third_Party/FreeRTOS/Source/queue.c **** 		}
2639:Middlewares/Third_Party/FreeRTOS/Source/queue.c **** 
2640:Middlewares/Third_Party/FreeRTOS/Source/queue.c **** 		return xReturn;
2641:Middlewares/Third_Party/FreeRTOS/Source/queue.c **** 	}
2642:Middlewares/Third_Party/FreeRTOS/Source/queue.c **** 
2643:Middlewares/Third_Party/FreeRTOS/Source/queue.c **** #endif /* configUSE_CO_ROUTINES */
2644:Middlewares/Third_Party/FreeRTOS/Source/queue.c **** /*-----------------------------------------------------------*/
2645:Middlewares/Third_Party/FreeRTOS/Source/queue.c **** 
2646:Middlewares/Third_Party/FreeRTOS/Source/queue.c **** #if ( configQUEUE_REGISTRY_SIZE > 0 )
2647:Middlewares/Third_Party/FreeRTOS/Source/queue.c **** 
2648:Middlewares/Third_Party/FreeRTOS/Source/queue.c **** 	void vQueueAddToRegistry( QueueHandle_t xQueue, const char *pcQueueName ) /*lint !e971 Unqualified
2649:Middlewares/Third_Party/FreeRTOS/Source/queue.c **** 	{
 5066              		.loc 1 2649 2
 5067              		.cfi_startproc
 5068              		@ args = 0, pretend = 0, frame = 16
 5069              		@ frame_needed = 1, uses_anonymous_args = 0
 5070              		@ link register save eliminated.
 5071 0000 80B4     		push	{r7}
 5072              	.LCFI188:
 5073              		.cfi_def_cfa_offset 4
 5074              		.cfi_offset 7, -4
 5075 0002 85B0     		sub	sp, sp, #20
 5076              	.LCFI189:
 5077              		.cfi_def_cfa_offset 24
 5078 0004 00AF     		add	r7, sp, #0
 5079              	.LCFI190:
 5080              		.cfi_def_cfa_register 7
 5081 0006 7860     		str	r0, [r7, #4]
 5082 0008 3960     		str	r1, [r7]
2650:Middlewares/Third_Party/FreeRTOS/Source/queue.c **** 	UBaseType_t ux;
2651:Middlewares/Third_Party/FreeRTOS/Source/queue.c **** 
2652:Middlewares/Third_Party/FreeRTOS/Source/queue.c **** 		/* See if there is an empty space in the registry.  A NULL name denotes
2653:Middlewares/Third_Party/FreeRTOS/Source/queue.c **** 		a free slot. */
2654:Middlewares/Third_Party/FreeRTOS/Source/queue.c **** 		for( ux = ( UBaseType_t ) 0U; ux < ( UBaseType_t ) configQUEUE_REGISTRY_SIZE; ux++ )
 5083              		.loc 1 2654 11
ARM GAS  C:\Users\EI\AppData\Local\Temp\cc6xPaa5.s 			page 141


 5084 000a 0023     		movs	r3, #0
 5085 000c FB60     		str	r3, [r7, #12]
 5086              		.loc 1 2654 3
 5087 000e 14E0     		b	.L327
 5088              	.L330:
2655:Middlewares/Third_Party/FreeRTOS/Source/queue.c **** 		{
2656:Middlewares/Third_Party/FreeRTOS/Source/queue.c **** 			if( xQueueRegistry[ ux ].pcQueueName == NULL )
 5089              		.loc 1 2656 28
 5090 0010 0F4A     		ldr	r2, .L331
 5091 0012 FB68     		ldr	r3, [r7, #12]
 5092 0014 52F83330 		ldr	r3, [r2, r3, lsl #3]
 5093              		.loc 1 2656 6
 5094 0018 002B     		cmp	r3, #0
 5095 001a 0BD1     		bne	.L328
2657:Middlewares/Third_Party/FreeRTOS/Source/queue.c **** 			{
2658:Middlewares/Third_Party/FreeRTOS/Source/queue.c **** 				/* Store the information on this queue. */
2659:Middlewares/Third_Party/FreeRTOS/Source/queue.c **** 				xQueueRegistry[ ux ].pcQueueName = pcQueueName;
 5096              		.loc 1 2659 38
 5097 001c 0C49     		ldr	r1, .L331
 5098 001e FB68     		ldr	r3, [r7, #12]
 5099 0020 3A68     		ldr	r2, [r7]
 5100 0022 41F83320 		str	r2, [r1, r3, lsl #3]
2660:Middlewares/Third_Party/FreeRTOS/Source/queue.c **** 				xQueueRegistry[ ux ].xHandle = xQueue;
 5101              		.loc 1 2660 34
 5102 0026 0A4A     		ldr	r2, .L331
 5103 0028 FB68     		ldr	r3, [r7, #12]
 5104 002a DB00     		lsls	r3, r3, #3
 5105 002c 1344     		add	r3, r3, r2
 5106 002e 7A68     		ldr	r2, [r7, #4]
 5107 0030 5A60     		str	r2, [r3, #4]
2661:Middlewares/Third_Party/FreeRTOS/Source/queue.c **** 
2662:Middlewares/Third_Party/FreeRTOS/Source/queue.c **** 				traceQUEUE_REGISTRY_ADD( xQueue, pcQueueName );
2663:Middlewares/Third_Party/FreeRTOS/Source/queue.c **** 				break;
 5108              		.loc 1 2663 5
 5109 0032 06E0     		b	.L329
 5110              	.L328:
2654:Middlewares/Third_Party/FreeRTOS/Source/queue.c **** 		{
 5111              		.loc 1 2654 83 discriminator 2
 5112 0034 FB68     		ldr	r3, [r7, #12]
 5113 0036 0133     		adds	r3, r3, #1
 5114 0038 FB60     		str	r3, [r7, #12]
 5115              	.L327:
2654:Middlewares/Third_Party/FreeRTOS/Source/queue.c **** 		{
 5116              		.loc 1 2654 3 discriminator 1
 5117 003a FB68     		ldr	r3, [r7, #12]
 5118 003c 072B     		cmp	r3, #7
 5119 003e E7D9     		bls	.L330
2664:Middlewares/Third_Party/FreeRTOS/Source/queue.c **** 			}
2665:Middlewares/Third_Party/FreeRTOS/Source/queue.c **** 			else
2666:Middlewares/Third_Party/FreeRTOS/Source/queue.c **** 			{
2667:Middlewares/Third_Party/FreeRTOS/Source/queue.c **** 				mtCOVERAGE_TEST_MARKER();
2668:Middlewares/Third_Party/FreeRTOS/Source/queue.c **** 			}
2669:Middlewares/Third_Party/FreeRTOS/Source/queue.c **** 		}
2670:Middlewares/Third_Party/FreeRTOS/Source/queue.c **** 	}
 5120              		.loc 1 2670 2
 5121 0040 00BF     		nop
 5122              	.L329:
ARM GAS  C:\Users\EI\AppData\Local\Temp\cc6xPaa5.s 			page 142


 5123 0042 00BF     		nop
 5124 0044 1437     		adds	r7, r7, #20
 5125              	.LCFI191:
 5126              		.cfi_def_cfa_offset 4
 5127 0046 BD46     		mov	sp, r7
 5128              	.LCFI192:
 5129              		.cfi_def_cfa_register 13
 5130              		@ sp needed
 5131 0048 5DF8047B 		ldr	r7, [sp], #4
 5132              	.LCFI193:
 5133              		.cfi_restore 7
 5134              		.cfi_def_cfa_offset 0
 5135 004c 7047     		bx	lr
 5136              	.L332:
 5137 004e 00BF     		.align	2
 5138              	.L331:
 5139 0050 00000000 		.word	xQueueRegistry
 5140              		.cfi_endproc
 5141              	.LFE40:
 5143              		.section	.text.pcQueueGetName,"ax",%progbits
 5144              		.align	1
 5145              		.global	pcQueueGetName
 5146              		.syntax unified
 5147              		.thumb
 5148              		.thumb_func
 5149              		.fpu fpv4-sp-d16
 5151              	pcQueueGetName:
 5152              	.LFB41:
2671:Middlewares/Third_Party/FreeRTOS/Source/queue.c **** 
2672:Middlewares/Third_Party/FreeRTOS/Source/queue.c **** #endif /* configQUEUE_REGISTRY_SIZE */
2673:Middlewares/Third_Party/FreeRTOS/Source/queue.c **** /*-----------------------------------------------------------*/
2674:Middlewares/Third_Party/FreeRTOS/Source/queue.c **** 
2675:Middlewares/Third_Party/FreeRTOS/Source/queue.c **** #if ( configQUEUE_REGISTRY_SIZE > 0 )
2676:Middlewares/Third_Party/FreeRTOS/Source/queue.c **** 
2677:Middlewares/Third_Party/FreeRTOS/Source/queue.c **** 	const char *pcQueueGetName( QueueHandle_t xQueue ) /*lint !e971 Unqualified char types are allowed
2678:Middlewares/Third_Party/FreeRTOS/Source/queue.c **** 	{
 5153              		.loc 1 2678 2
 5154              		.cfi_startproc
 5155              		@ args = 0, pretend = 0, frame = 16
 5156              		@ frame_needed = 1, uses_anonymous_args = 0
 5157              		@ link register save eliminated.
 5158 0000 80B4     		push	{r7}
 5159              	.LCFI194:
 5160              		.cfi_def_cfa_offset 4
 5161              		.cfi_offset 7, -4
 5162 0002 85B0     		sub	sp, sp, #20
 5163              	.LCFI195:
 5164              		.cfi_def_cfa_offset 24
 5165 0004 00AF     		add	r7, sp, #0
 5166              	.LCFI196:
 5167              		.cfi_def_cfa_register 7
 5168 0006 7860     		str	r0, [r7, #4]
2679:Middlewares/Third_Party/FreeRTOS/Source/queue.c **** 	UBaseType_t ux;
2680:Middlewares/Third_Party/FreeRTOS/Source/queue.c **** 	const char *pcReturn = NULL; /*lint !e971 Unqualified char types are allowed for strings and singl
 5169              		.loc 1 2680 14
 5170 0008 0023     		movs	r3, #0
 5171 000a BB60     		str	r3, [r7, #8]
ARM GAS  C:\Users\EI\AppData\Local\Temp\cc6xPaa5.s 			page 143


2681:Middlewares/Third_Party/FreeRTOS/Source/queue.c **** 
2682:Middlewares/Third_Party/FreeRTOS/Source/queue.c **** 		/* Note there is nothing here to protect against another task adding or
2683:Middlewares/Third_Party/FreeRTOS/Source/queue.c **** 		removing entries from the registry while it is being searched. */
2684:Middlewares/Third_Party/FreeRTOS/Source/queue.c **** 		for( ux = ( UBaseType_t ) 0U; ux < ( UBaseType_t ) configQUEUE_REGISTRY_SIZE; ux++ )
 5172              		.loc 1 2684 11
 5173 000c 0023     		movs	r3, #0
 5174 000e FB60     		str	r3, [r7, #12]
 5175              		.loc 1 2684 3
 5176 0010 10E0     		b	.L334
 5177              	.L337:
2685:Middlewares/Third_Party/FreeRTOS/Source/queue.c **** 		{
2686:Middlewares/Third_Party/FreeRTOS/Source/queue.c **** 			if( xQueueRegistry[ ux ].xHandle == xQueue )
 5178              		.loc 1 2686 28
 5179 0012 0D4A     		ldr	r2, .L339
 5180 0014 FB68     		ldr	r3, [r7, #12]
 5181 0016 DB00     		lsls	r3, r3, #3
 5182 0018 1344     		add	r3, r3, r2
 5183 001a 5B68     		ldr	r3, [r3, #4]
 5184              		.loc 1 2686 6
 5185 001c 7A68     		ldr	r2, [r7, #4]
 5186 001e 9A42     		cmp	r2, r3
 5187 0020 05D1     		bne	.L335
2687:Middlewares/Third_Party/FreeRTOS/Source/queue.c **** 			{
2688:Middlewares/Third_Party/FreeRTOS/Source/queue.c **** 				pcReturn = xQueueRegistry[ ux ].pcQueueName;
 5188              		.loc 1 2688 14
 5189 0022 094A     		ldr	r2, .L339
 5190 0024 FB68     		ldr	r3, [r7, #12]
 5191 0026 52F83330 		ldr	r3, [r2, r3, lsl #3]
 5192 002a BB60     		str	r3, [r7, #8]
2689:Middlewares/Third_Party/FreeRTOS/Source/queue.c **** 				break;
 5193              		.loc 1 2689 5
 5194 002c 05E0     		b	.L336
 5195              	.L335:
2684:Middlewares/Third_Party/FreeRTOS/Source/queue.c **** 		{
 5196              		.loc 1 2684 83 discriminator 2
 5197 002e FB68     		ldr	r3, [r7, #12]
 5198 0030 0133     		adds	r3, r3, #1
 5199 0032 FB60     		str	r3, [r7, #12]
 5200              	.L334:
2684:Middlewares/Third_Party/FreeRTOS/Source/queue.c **** 		{
 5201              		.loc 1 2684 3 discriminator 1
 5202 0034 FB68     		ldr	r3, [r7, #12]
 5203 0036 072B     		cmp	r3, #7
 5204 0038 EBD9     		bls	.L337
 5205              	.L336:
2690:Middlewares/Third_Party/FreeRTOS/Source/queue.c **** 			}
2691:Middlewares/Third_Party/FreeRTOS/Source/queue.c **** 			else
2692:Middlewares/Third_Party/FreeRTOS/Source/queue.c **** 			{
2693:Middlewares/Third_Party/FreeRTOS/Source/queue.c **** 				mtCOVERAGE_TEST_MARKER();
2694:Middlewares/Third_Party/FreeRTOS/Source/queue.c **** 			}
2695:Middlewares/Third_Party/FreeRTOS/Source/queue.c **** 		}
2696:Middlewares/Third_Party/FreeRTOS/Source/queue.c **** 
2697:Middlewares/Third_Party/FreeRTOS/Source/queue.c **** 		return pcReturn;
 5206              		.loc 1 2697 10
 5207 003a BB68     		ldr	r3, [r7, #8]
2698:Middlewares/Third_Party/FreeRTOS/Source/queue.c **** 	} /*lint !e818 xQueue cannot be a pointer to const because it is a typedef. */
 5208              		.loc 1 2698 2
ARM GAS  C:\Users\EI\AppData\Local\Temp\cc6xPaa5.s 			page 144


 5209 003c 1846     		mov	r0, r3
 5210 003e 1437     		adds	r7, r7, #20
 5211              	.LCFI197:
 5212              		.cfi_def_cfa_offset 4
 5213 0040 BD46     		mov	sp, r7
 5214              	.LCFI198:
 5215              		.cfi_def_cfa_register 13
 5216              		@ sp needed
 5217 0042 5DF8047B 		ldr	r7, [sp], #4
 5218              	.LCFI199:
 5219              		.cfi_restore 7
 5220              		.cfi_def_cfa_offset 0
 5221 0046 7047     		bx	lr
 5222              	.L340:
 5223              		.align	2
 5224              	.L339:
 5225 0048 00000000 		.word	xQueueRegistry
 5226              		.cfi_endproc
 5227              	.LFE41:
 5229              		.section	.text.vQueueUnregisterQueue,"ax",%progbits
 5230              		.align	1
 5231              		.global	vQueueUnregisterQueue
 5232              		.syntax unified
 5233              		.thumb
 5234              		.thumb_func
 5235              		.fpu fpv4-sp-d16
 5237              	vQueueUnregisterQueue:
 5238              	.LFB42:
2699:Middlewares/Third_Party/FreeRTOS/Source/queue.c **** 
2700:Middlewares/Third_Party/FreeRTOS/Source/queue.c **** #endif /* configQUEUE_REGISTRY_SIZE */
2701:Middlewares/Third_Party/FreeRTOS/Source/queue.c **** /*-----------------------------------------------------------*/
2702:Middlewares/Third_Party/FreeRTOS/Source/queue.c **** 
2703:Middlewares/Third_Party/FreeRTOS/Source/queue.c **** #if ( configQUEUE_REGISTRY_SIZE > 0 )
2704:Middlewares/Third_Party/FreeRTOS/Source/queue.c **** 
2705:Middlewares/Third_Party/FreeRTOS/Source/queue.c **** 	void vQueueUnregisterQueue( QueueHandle_t xQueue )
2706:Middlewares/Third_Party/FreeRTOS/Source/queue.c **** 	{
 5239              		.loc 1 2706 2
 5240              		.cfi_startproc
 5241              		@ args = 0, pretend = 0, frame = 16
 5242              		@ frame_needed = 1, uses_anonymous_args = 0
 5243              		@ link register save eliminated.
 5244 0000 80B4     		push	{r7}
 5245              	.LCFI200:
 5246              		.cfi_def_cfa_offset 4
 5247              		.cfi_offset 7, -4
 5248 0002 85B0     		sub	sp, sp, #20
 5249              	.LCFI201:
 5250              		.cfi_def_cfa_offset 24
 5251 0004 00AF     		add	r7, sp, #0
 5252              	.LCFI202:
 5253              		.cfi_def_cfa_register 7
 5254 0006 7860     		str	r0, [r7, #4]
2707:Middlewares/Third_Party/FreeRTOS/Source/queue.c **** 	UBaseType_t ux;
2708:Middlewares/Third_Party/FreeRTOS/Source/queue.c **** 
2709:Middlewares/Third_Party/FreeRTOS/Source/queue.c **** 		/* See if the handle of the queue being unregistered in actually in the
2710:Middlewares/Third_Party/FreeRTOS/Source/queue.c **** 		registry. */
2711:Middlewares/Third_Party/FreeRTOS/Source/queue.c **** 		for( ux = ( UBaseType_t ) 0U; ux < ( UBaseType_t ) configQUEUE_REGISTRY_SIZE; ux++ )
ARM GAS  C:\Users\EI\AppData\Local\Temp\cc6xPaa5.s 			page 145


 5255              		.loc 1 2711 11
 5256 0008 0023     		movs	r3, #0
 5257 000a FB60     		str	r3, [r7, #12]
 5258              		.loc 1 2711 3
 5259 000c 16E0     		b	.L342
 5260              	.L345:
2712:Middlewares/Third_Party/FreeRTOS/Source/queue.c **** 		{
2713:Middlewares/Third_Party/FreeRTOS/Source/queue.c **** 			if( xQueueRegistry[ ux ].xHandle == xQueue )
 5261              		.loc 1 2713 28
 5262 000e 104A     		ldr	r2, .L346
 5263 0010 FB68     		ldr	r3, [r7, #12]
 5264 0012 DB00     		lsls	r3, r3, #3
 5265 0014 1344     		add	r3, r3, r2
 5266 0016 5B68     		ldr	r3, [r3, #4]
 5267              		.loc 1 2713 6
 5268 0018 7A68     		ldr	r2, [r7, #4]
 5269 001a 9A42     		cmp	r2, r3
 5270 001c 0BD1     		bne	.L343
2714:Middlewares/Third_Party/FreeRTOS/Source/queue.c **** 			{
2715:Middlewares/Third_Party/FreeRTOS/Source/queue.c **** 				/* Set the name to NULL to show that this slot if free again. */
2716:Middlewares/Third_Party/FreeRTOS/Source/queue.c **** 				xQueueRegistry[ ux ].pcQueueName = NULL;
 5271              		.loc 1 2716 38
 5272 001e 0C4A     		ldr	r2, .L346
 5273 0020 FB68     		ldr	r3, [r7, #12]
 5274 0022 0021     		movs	r1, #0
 5275 0024 42F83310 		str	r1, [r2, r3, lsl #3]
2717:Middlewares/Third_Party/FreeRTOS/Source/queue.c **** 
2718:Middlewares/Third_Party/FreeRTOS/Source/queue.c **** 				/* Set the handle to NULL to ensure the same queue handle cannot
2719:Middlewares/Third_Party/FreeRTOS/Source/queue.c **** 				appear in the registry twice if it is added, removed, then
2720:Middlewares/Third_Party/FreeRTOS/Source/queue.c **** 				added again. */
2721:Middlewares/Third_Party/FreeRTOS/Source/queue.c **** 				xQueueRegistry[ ux ].xHandle = ( QueueHandle_t ) 0;
 5276              		.loc 1 2721 34
 5277 0028 094A     		ldr	r2, .L346
 5278 002a FB68     		ldr	r3, [r7, #12]
 5279 002c DB00     		lsls	r3, r3, #3
 5280 002e 1344     		add	r3, r3, r2
 5281 0030 0022     		movs	r2, #0
 5282 0032 5A60     		str	r2, [r3, #4]
2722:Middlewares/Third_Party/FreeRTOS/Source/queue.c **** 				break;
 5283              		.loc 1 2722 5
 5284 0034 06E0     		b	.L344
 5285              	.L343:
2711:Middlewares/Third_Party/FreeRTOS/Source/queue.c **** 		{
 5286              		.loc 1 2711 83 discriminator 2
 5287 0036 FB68     		ldr	r3, [r7, #12]
 5288 0038 0133     		adds	r3, r3, #1
 5289 003a FB60     		str	r3, [r7, #12]
 5290              	.L342:
2711:Middlewares/Third_Party/FreeRTOS/Source/queue.c **** 		{
 5291              		.loc 1 2711 3 discriminator 1
 5292 003c FB68     		ldr	r3, [r7, #12]
 5293 003e 072B     		cmp	r3, #7
 5294 0040 E5D9     		bls	.L345
2723:Middlewares/Third_Party/FreeRTOS/Source/queue.c **** 			}
2724:Middlewares/Third_Party/FreeRTOS/Source/queue.c **** 			else
2725:Middlewares/Third_Party/FreeRTOS/Source/queue.c **** 			{
2726:Middlewares/Third_Party/FreeRTOS/Source/queue.c **** 				mtCOVERAGE_TEST_MARKER();
ARM GAS  C:\Users\EI\AppData\Local\Temp\cc6xPaa5.s 			page 146


2727:Middlewares/Third_Party/FreeRTOS/Source/queue.c **** 			}
2728:Middlewares/Third_Party/FreeRTOS/Source/queue.c **** 		}
2729:Middlewares/Third_Party/FreeRTOS/Source/queue.c **** 
2730:Middlewares/Third_Party/FreeRTOS/Source/queue.c **** 	} /*lint !e818 xQueue could not be pointer to const because it is a typedef. */
 5295              		.loc 1 2730 2
 5296 0042 00BF     		nop
 5297              	.L344:
 5298 0044 00BF     		nop
 5299 0046 1437     		adds	r7, r7, #20
 5300              	.LCFI203:
 5301              		.cfi_def_cfa_offset 4
 5302 0048 BD46     		mov	sp, r7
 5303              	.LCFI204:
 5304              		.cfi_def_cfa_register 13
 5305              		@ sp needed
 5306 004a 5DF8047B 		ldr	r7, [sp], #4
 5307              	.LCFI205:
 5308              		.cfi_restore 7
 5309              		.cfi_def_cfa_offset 0
 5310 004e 7047     		bx	lr
 5311              	.L347:
 5312              		.align	2
 5313              	.L346:
 5314 0050 00000000 		.word	xQueueRegistry
 5315              		.cfi_endproc
 5316              	.LFE42:
 5318              		.section	.text.vQueueWaitForMessageRestricted,"ax",%progbits
 5319              		.align	1
 5320              		.global	vQueueWaitForMessageRestricted
 5321              		.syntax unified
 5322              		.thumb
 5323              		.thumb_func
 5324              		.fpu fpv4-sp-d16
 5326              	vQueueWaitForMessageRestricted:
 5327              	.LFB43:
2731:Middlewares/Third_Party/FreeRTOS/Source/queue.c **** 
2732:Middlewares/Third_Party/FreeRTOS/Source/queue.c **** #endif /* configQUEUE_REGISTRY_SIZE */
2733:Middlewares/Third_Party/FreeRTOS/Source/queue.c **** /*-----------------------------------------------------------*/
2734:Middlewares/Third_Party/FreeRTOS/Source/queue.c **** 
2735:Middlewares/Third_Party/FreeRTOS/Source/queue.c **** #if ( configUSE_TIMERS == 1 )
2736:Middlewares/Third_Party/FreeRTOS/Source/queue.c **** 
2737:Middlewares/Third_Party/FreeRTOS/Source/queue.c **** 	void vQueueWaitForMessageRestricted( QueueHandle_t xQueue, TickType_t xTicksToWait, const BaseType
2738:Middlewares/Third_Party/FreeRTOS/Source/queue.c **** 	{
 5328              		.loc 1 2738 2
 5329              		.cfi_startproc
 5330              		@ args = 0, pretend = 0, frame = 24
 5331              		@ frame_needed = 1, uses_anonymous_args = 0
 5332 0000 80B5     		push	{r7, lr}
 5333              	.LCFI206:
 5334              		.cfi_def_cfa_offset 8
 5335              		.cfi_offset 7, -8
 5336              		.cfi_offset 14, -4
 5337 0002 86B0     		sub	sp, sp, #24
 5338              	.LCFI207:
 5339              		.cfi_def_cfa_offset 32
 5340 0004 00AF     		add	r7, sp, #0
 5341              	.LCFI208:
ARM GAS  C:\Users\EI\AppData\Local\Temp\cc6xPaa5.s 			page 147


 5342              		.cfi_def_cfa_register 7
 5343 0006 F860     		str	r0, [r7, #12]
 5344 0008 B960     		str	r1, [r7, #8]
 5345 000a 7A60     		str	r2, [r7, #4]
2739:Middlewares/Third_Party/FreeRTOS/Source/queue.c **** 	Queue_t * const pxQueue = xQueue;
 5346              		.loc 1 2739 18
 5347 000c FB68     		ldr	r3, [r7, #12]
 5348 000e 7B61     		str	r3, [r7, #20]
2740:Middlewares/Third_Party/FreeRTOS/Source/queue.c **** 
2741:Middlewares/Third_Party/FreeRTOS/Source/queue.c **** 		/* This function should not be called by application code hence the
2742:Middlewares/Third_Party/FreeRTOS/Source/queue.c **** 		'Restricted' in its name.  It is not part of the public API.  It is
2743:Middlewares/Third_Party/FreeRTOS/Source/queue.c **** 		designed for use by kernel code, and has special calling requirements.
2744:Middlewares/Third_Party/FreeRTOS/Source/queue.c **** 		It can result in vListInsert() being called on a list that can only
2745:Middlewares/Third_Party/FreeRTOS/Source/queue.c **** 		possibly ever have one item in it, so the list will be fast, but even
2746:Middlewares/Third_Party/FreeRTOS/Source/queue.c **** 		so it should be called with the scheduler locked and not from a critical
2747:Middlewares/Third_Party/FreeRTOS/Source/queue.c **** 		section. */
2748:Middlewares/Third_Party/FreeRTOS/Source/queue.c **** 
2749:Middlewares/Third_Party/FreeRTOS/Source/queue.c **** 		/* Only do anything if there are no messages in the queue.  This function
2750:Middlewares/Third_Party/FreeRTOS/Source/queue.c **** 		will not actually cause the task to block, just place it on a blocked
2751:Middlewares/Third_Party/FreeRTOS/Source/queue.c **** 		list.  It will not block until the scheduler is unlocked - at which
2752:Middlewares/Third_Party/FreeRTOS/Source/queue.c **** 		time a yield will be performed.  If an item is added to the queue while
2753:Middlewares/Third_Party/FreeRTOS/Source/queue.c **** 		the queue is locked, and the calling task blocks on the queue, then the
2754:Middlewares/Third_Party/FreeRTOS/Source/queue.c **** 		calling task will be immediately unblocked when the queue is unlocked. */
2755:Middlewares/Third_Party/FreeRTOS/Source/queue.c **** 		prvLockQueue( pxQueue );
 5349              		.loc 1 2755 3
 5350 0010 FFF7FEFF 		bl	vPortEnterCritical
 5351 0014 7B69     		ldr	r3, [r7, #20]
 5352 0016 93F84430 		ldrb	r3, [r3, #68]
 5353 001a 5BB2     		sxtb	r3, r3
 5354 001c B3F1FF3F 		cmp	r3, #-1
 5355 0020 03D1     		bne	.L349
 5356              		.loc 1 2755 3 is_stmt 0 discriminator 1
 5357 0022 7B69     		ldr	r3, [r7, #20]
 5358 0024 0022     		movs	r2, #0
 5359 0026 83F84420 		strb	r2, [r3, #68]
 5360              	.L349:
 5361              		.loc 1 2755 3 discriminator 3
 5362 002a 7B69     		ldr	r3, [r7, #20]
 5363 002c 93F84530 		ldrb	r3, [r3, #69]
 5364 0030 5BB2     		sxtb	r3, r3
 5365 0032 B3F1FF3F 		cmp	r3, #-1
 5366 0036 03D1     		bne	.L350
 5367              		.loc 1 2755 3 discriminator 4
 5368 0038 7B69     		ldr	r3, [r7, #20]
 5369 003a 0022     		movs	r2, #0
 5370 003c 83F84520 		strb	r2, [r3, #69]
 5371              	.L350:
 5372              		.loc 1 2755 3 discriminator 6
 5373 0040 FFF7FEFF 		bl	vPortExitCritical
2756:Middlewares/Third_Party/FreeRTOS/Source/queue.c **** 		if( pxQueue->uxMessagesWaiting == ( UBaseType_t ) 0U )
 5374              		.loc 1 2756 14 is_stmt 1 discriminator 6
 5375 0044 7B69     		ldr	r3, [r7, #20]
 5376 0046 9B6B     		ldr	r3, [r3, #56]
 5377              		.loc 1 2756 5 discriminator 6
 5378 0048 002B     		cmp	r3, #0
 5379 004a 06D1     		bne	.L351
2757:Middlewares/Third_Party/FreeRTOS/Source/queue.c **** 		{
ARM GAS  C:\Users\EI\AppData\Local\Temp\cc6xPaa5.s 			page 148


2758:Middlewares/Third_Party/FreeRTOS/Source/queue.c **** 			/* There is nothing in the queue, block for the specified period. */
2759:Middlewares/Third_Party/FreeRTOS/Source/queue.c **** 			vTaskPlaceOnEventListRestricted( &( pxQueue->xTasksWaitingToReceive ), xTicksToWait, xWaitIndefi
 5380              		.loc 1 2759 4
 5381 004c 7B69     		ldr	r3, [r7, #20]
 5382 004e 2433     		adds	r3, r3, #36
 5383 0050 7A68     		ldr	r2, [r7, #4]
 5384 0052 B968     		ldr	r1, [r7, #8]
 5385 0054 1846     		mov	r0, r3
 5386 0056 FFF7FEFF 		bl	vTaskPlaceOnEventListRestricted
 5387              	.L351:
2760:Middlewares/Third_Party/FreeRTOS/Source/queue.c **** 		}
2761:Middlewares/Third_Party/FreeRTOS/Source/queue.c **** 		else
2762:Middlewares/Third_Party/FreeRTOS/Source/queue.c **** 		{
2763:Middlewares/Third_Party/FreeRTOS/Source/queue.c **** 			mtCOVERAGE_TEST_MARKER();
2764:Middlewares/Third_Party/FreeRTOS/Source/queue.c **** 		}
2765:Middlewares/Third_Party/FreeRTOS/Source/queue.c **** 		prvUnlockQueue( pxQueue );
 5388              		.loc 1 2765 3
 5389 005a 7869     		ldr	r0, [r7, #20]
 5390 005c FFF7FEFF 		bl	prvUnlockQueue
2766:Middlewares/Third_Party/FreeRTOS/Source/queue.c **** 	}
 5391              		.loc 1 2766 2
 5392 0060 00BF     		nop
 5393 0062 1837     		adds	r7, r7, #24
 5394              	.LCFI209:
 5395              		.cfi_def_cfa_offset 8
 5396 0064 BD46     		mov	sp, r7
 5397              	.LCFI210:
 5398              		.cfi_def_cfa_register 13
 5399              		@ sp needed
 5400 0066 80BD     		pop	{r7, pc}
 5401              		.cfi_endproc
 5402              	.LFE43:
 5404              		.text
 5405              	.Letext0:
 5406              		.file 3 "c:\\arm-gcc\\tools\\gcc-arm-none-eabi-10-2020-q4-major\\lib\\gcc\\arm-none-eabi\\10.2.1\\
 5407              		.file 4 "c:\\arm-gcc\\tools\\gcc-arm-none-eabi-10-2020-q4-major\\arm-none-eabi\\include\\machine\\
 5408              		.file 5 "c:\\arm-gcc\\tools\\gcc-arm-none-eabi-10-2020-q4-major\\arm-none-eabi\\include\\sys\\_std
 5409              		.file 6 "Middlewares/Third_Party/FreeRTOS/Source/include/FreeRTOS.h"
 5410              		.file 7 "Middlewares/Third_Party/FreeRTOS/Source/include/list.h"
 5411              		.file 8 "Middlewares/Third_Party/FreeRTOS/Source/include/task.h"
 5412              		.file 9 "Middlewares/Third_Party/FreeRTOS/Source/include/queue.h"
ARM GAS  C:\Users\EI\AppData\Local\Temp\cc6xPaa5.s 			page 149


DEFINED SYMBOLS
                            *ABS*:00000000 queue.c
C:\Users\EI\AppData\Local\Temp\cc6xPaa5.s:22     .bss.xQueueRegistry:00000000 xQueueRegistry
C:\Users\EI\AppData\Local\Temp\cc6xPaa5.s:19     .bss.xQueueRegistry:00000000 $d
C:\Users\EI\AppData\Local\Temp\cc6xPaa5.s:25     .text.xQueueGenericReset:00000000 $t
C:\Users\EI\AppData\Local\Temp\cc6xPaa5.s:33     .text.xQueueGenericReset:00000000 xQueueGenericReset
C:\Users\EI\AppData\Local\Temp\cc6xPaa5.s:200    .text.xQueueGenericReset:000000cc $d
C:\Users\EI\AppData\Local\Temp\cc6xPaa5.s:205    .text.xQueueGenericCreateStatic:00000000 $t
C:\Users\EI\AppData\Local\Temp\cc6xPaa5.s:212    .text.xQueueGenericCreateStatic:00000000 xQueueGenericCreateStatic
C:\Users\EI\AppData\Local\Temp\cc6xPaa5.s:549    .text.prvInitialiseNewQueue:00000000 prvInitialiseNewQueue
C:\Users\EI\AppData\Local\Temp\cc6xPaa5.s:437    .text.xQueueGenericCreate:00000000 $t
C:\Users\EI\AppData\Local\Temp\cc6xPaa5.s:444    .text.xQueueGenericCreate:00000000 xQueueGenericCreate
C:\Users\EI\AppData\Local\Temp\cc6xPaa5.s:543    .text.prvInitialiseNewQueue:00000000 $t
C:\Users\EI\AppData\Local\Temp\cc6xPaa5.s:615    .text.prvInitialiseMutex:00000000 $t
C:\Users\EI\AppData\Local\Temp\cc6xPaa5.s:621    .text.prvInitialiseMutex:00000000 prvInitialiseMutex
C:\Users\EI\AppData\Local\Temp\cc6xPaa5.s:1396   .text.xQueueGenericSend:00000000 xQueueGenericSend
C:\Users\EI\AppData\Local\Temp\cc6xPaa5.s:676    .text.xQueueCreateMutex:00000000 $t
C:\Users\EI\AppData\Local\Temp\cc6xPaa5.s:683    .text.xQueueCreateMutex:00000000 xQueueCreateMutex
C:\Users\EI\AppData\Local\Temp\cc6xPaa5.s:734    .text.xQueueCreateMutexStatic:00000000 $t
C:\Users\EI\AppData\Local\Temp\cc6xPaa5.s:741    .text.xQueueCreateMutexStatic:00000000 xQueueCreateMutexStatic
C:\Users\EI\AppData\Local\Temp\cc6xPaa5.s:795    .text.xQueueGetMutexHolder:00000000 $t
C:\Users\EI\AppData\Local\Temp\cc6xPaa5.s:802    .text.xQueueGetMutexHolder:00000000 xQueueGetMutexHolder
C:\Users\EI\AppData\Local\Temp\cc6xPaa5.s:859    .text.xQueueGetMutexHolderFromISR:00000000 $t
C:\Users\EI\AppData\Local\Temp\cc6xPaa5.s:866    .text.xQueueGetMutexHolderFromISR:00000000 xQueueGetMutexHolderFromISR
C:\Users\EI\AppData\Local\Temp\cc6xPaa5.s:946    .text.xQueueGiveMutexRecursive:00000000 $t
C:\Users\EI\AppData\Local\Temp\cc6xPaa5.s:953    .text.xQueueGiveMutexRecursive:00000000 xQueueGiveMutexRecursive
C:\Users\EI\AppData\Local\Temp\cc6xPaa5.s:1055   .text.xQueueTakeMutexRecursive:00000000 $t
C:\Users\EI\AppData\Local\Temp\cc6xPaa5.s:1062   .text.xQueueTakeMutexRecursive:00000000 xQueueTakeMutexRecursive
C:\Users\EI\AppData\Local\Temp\cc6xPaa5.s:2664   .text.xQueueSemaphoreTake:00000000 xQueueSemaphoreTake
C:\Users\EI\AppData\Local\Temp\cc6xPaa5.s:1165   .text.xQueueCreateCountingSemaphoreStatic:00000000 $t
C:\Users\EI\AppData\Local\Temp\cc6xPaa5.s:1172   .text.xQueueCreateCountingSemaphoreStatic:00000000 xQueueCreateCountingSemaphoreStatic
C:\Users\EI\AppData\Local\Temp\cc6xPaa5.s:1279   .text.xQueueCreateCountingSemaphore:00000000 $t
C:\Users\EI\AppData\Local\Temp\cc6xPaa5.s:1286   .text.xQueueCreateCountingSemaphore:00000000 xQueueCreateCountingSemaphore
C:\Users\EI\AppData\Local\Temp\cc6xPaa5.s:1389   .text.xQueueGenericSend:00000000 $t
C:\Users\EI\AppData\Local\Temp\cc6xPaa5.s:4363   .text.prvCopyDataToQueue:00000000 prvCopyDataToQueue
C:\Users\EI\AppData\Local\Temp\cc6xPaa5.s:4909   .text.prvIsQueueFull:00000000 prvIsQueueFull
C:\Users\EI\AppData\Local\Temp\cc6xPaa5.s:4621   .text.prvUnlockQueue:00000000 prvUnlockQueue
C:\Users\EI\AppData\Local\Temp\cc6xPaa5.s:1780   .text.xQueueGenericSend:000001f8 $d
C:\Users\EI\AppData\Local\Temp\cc6xPaa5.s:1785   .text.xQueueGenericSendFromISR:00000000 $t
C:\Users\EI\AppData\Local\Temp\cc6xPaa5.s:1792   .text.xQueueGenericSendFromISR:00000000 xQueueGenericSendFromISR
C:\Users\EI\AppData\Local\Temp\cc6xPaa5.s:2061   .text.xQueueGiveFromISR:00000000 $t
C:\Users\EI\AppData\Local\Temp\cc6xPaa5.s:2068   .text.xQueueGiveFromISR:00000000 xQueueGiveFromISR
C:\Users\EI\AppData\Local\Temp\cc6xPaa5.s:2316   .text.xQueueReceive:00000000 $t
C:\Users\EI\AppData\Local\Temp\cc6xPaa5.s:2323   .text.xQueueReceive:00000000 xQueueReceive
C:\Users\EI\AppData\Local\Temp\cc6xPaa5.s:4539   .text.prvCopyDataFromQueue:00000000 prvCopyDataFromQueue
C:\Users\EI\AppData\Local\Temp\cc6xPaa5.s:4761   .text.prvIsQueueEmpty:00000000 prvIsQueueEmpty
C:\Users\EI\AppData\Local\Temp\cc6xPaa5.s:2652   .text.xQueueReceive:000001bc $d
C:\Users\EI\AppData\Local\Temp\cc6xPaa5.s:2657   .text.xQueueSemaphoreTake:00000000 $t
C:\Users\EI\AppData\Local\Temp\cc6xPaa5.s:4300   .text.prvGetDisinheritPriorityAfterTimeout:00000000 prvGetDisinheritPriorityAfterTimeout
C:\Users\EI\AppData\Local\Temp\cc6xPaa5.s:3053   .text.xQueueSemaphoreTake:00000214 $d
C:\Users\EI\AppData\Local\Temp\cc6xPaa5.s:3058   .text.xQueuePeek:00000000 $t
C:\Users\EI\AppData\Local\Temp\cc6xPaa5.s:3065   .text.xQueuePeek:00000000 xQueuePeek
C:\Users\EI\AppData\Local\Temp\cc6xPaa5.s:3396   .text.xQueuePeek:000001c0 $d
C:\Users\EI\AppData\Local\Temp\cc6xPaa5.s:3401   .text.xQueueReceiveFromISR:00000000 $t
C:\Users\EI\AppData\Local\Temp\cc6xPaa5.s:3408   .text.xQueueReceiveFromISR:00000000 xQueueReceiveFromISR
C:\Users\EI\AppData\Local\Temp\cc6xPaa5.s:3630   .text.xQueuePeekFromISR:00000000 $t
C:\Users\EI\AppData\Local\Temp\cc6xPaa5.s:3637   .text.xQueuePeekFromISR:00000000 xQueuePeekFromISR
ARM GAS  C:\Users\EI\AppData\Local\Temp\cc6xPaa5.s 			page 150


C:\Users\EI\AppData\Local\Temp\cc6xPaa5.s:3837   .text.uxQueueMessagesWaiting:00000000 $t
C:\Users\EI\AppData\Local\Temp\cc6xPaa5.s:3844   .text.uxQueueMessagesWaiting:00000000 uxQueueMessagesWaiting
C:\Users\EI\AppData\Local\Temp\cc6xPaa5.s:3912   .text.uxQueueSpacesAvailable:00000000 $t
C:\Users\EI\AppData\Local\Temp\cc6xPaa5.s:3919   .text.uxQueueSpacesAvailable:00000000 uxQueueSpacesAvailable
C:\Users\EI\AppData\Local\Temp\cc6xPaa5.s:3995   .text.uxQueueMessagesWaitingFromISR:00000000 $t
C:\Users\EI\AppData\Local\Temp\cc6xPaa5.s:4002   .text.uxQueueMessagesWaitingFromISR:00000000 uxQueueMessagesWaitingFromISR
C:\Users\EI\AppData\Local\Temp\cc6xPaa5.s:4073   .text.vQueueDelete:00000000 $t
C:\Users\EI\AppData\Local\Temp\cc6xPaa5.s:4080   .text.vQueueDelete:00000000 vQueueDelete
C:\Users\EI\AppData\Local\Temp\cc6xPaa5.s:5237   .text.vQueueUnregisterQueue:00000000 vQueueUnregisterQueue
C:\Users\EI\AppData\Local\Temp\cc6xPaa5.s:4154   .text.uxQueueGetQueueNumber:00000000 $t
C:\Users\EI\AppData\Local\Temp\cc6xPaa5.s:4161   .text.uxQueueGetQueueNumber:00000000 uxQueueGetQueueNumber
C:\Users\EI\AppData\Local\Temp\cc6xPaa5.s:4200   .text.vQueueSetQueueNumber:00000000 $t
C:\Users\EI\AppData\Local\Temp\cc6xPaa5.s:4207   .text.vQueueSetQueueNumber:00000000 vQueueSetQueueNumber
C:\Users\EI\AppData\Local\Temp\cc6xPaa5.s:4248   .text.ucQueueGetQueueType:00000000 $t
C:\Users\EI\AppData\Local\Temp\cc6xPaa5.s:4255   .text.ucQueueGetQueueType:00000000 ucQueueGetQueueType
C:\Users\EI\AppData\Local\Temp\cc6xPaa5.s:4294   .text.prvGetDisinheritPriorityAfterTimeout:00000000 $t
C:\Users\EI\AppData\Local\Temp\cc6xPaa5.s:4357   .text.prvCopyDataToQueue:00000000 $t
C:\Users\EI\AppData\Local\Temp\cc6xPaa5.s:4533   .text.prvCopyDataFromQueue:00000000 $t
C:\Users\EI\AppData\Local\Temp\cc6xPaa5.s:4615   .text.prvUnlockQueue:00000000 $t
C:\Users\EI\AppData\Local\Temp\cc6xPaa5.s:4755   .text.prvIsQueueEmpty:00000000 $t
C:\Users\EI\AppData\Local\Temp\cc6xPaa5.s:4814   .text.xQueueIsQueueEmptyFromISR:00000000 $t
C:\Users\EI\AppData\Local\Temp\cc6xPaa5.s:4821   .text.xQueueIsQueueEmptyFromISR:00000000 xQueueIsQueueEmptyFromISR
C:\Users\EI\AppData\Local\Temp\cc6xPaa5.s:4903   .text.prvIsQueueFull:00000000 $t
C:\Users\EI\AppData\Local\Temp\cc6xPaa5.s:4965   .text.xQueueIsQueueFullFromISR:00000000 $t
C:\Users\EI\AppData\Local\Temp\cc6xPaa5.s:4972   .text.xQueueIsQueueFullFromISR:00000000 xQueueIsQueueFullFromISR
C:\Users\EI\AppData\Local\Temp\cc6xPaa5.s:5057   .text.vQueueAddToRegistry:00000000 $t
C:\Users\EI\AppData\Local\Temp\cc6xPaa5.s:5064   .text.vQueueAddToRegistry:00000000 vQueueAddToRegistry
C:\Users\EI\AppData\Local\Temp\cc6xPaa5.s:5139   .text.vQueueAddToRegistry:00000050 $d
C:\Users\EI\AppData\Local\Temp\cc6xPaa5.s:5144   .text.pcQueueGetName:00000000 $t
C:\Users\EI\AppData\Local\Temp\cc6xPaa5.s:5151   .text.pcQueueGetName:00000000 pcQueueGetName
C:\Users\EI\AppData\Local\Temp\cc6xPaa5.s:5225   .text.pcQueueGetName:00000048 $d
C:\Users\EI\AppData\Local\Temp\cc6xPaa5.s:5230   .text.vQueueUnregisterQueue:00000000 $t
C:\Users\EI\AppData\Local\Temp\cc6xPaa5.s:5314   .text.vQueueUnregisterQueue:00000050 $d
C:\Users\EI\AppData\Local\Temp\cc6xPaa5.s:5319   .text.vQueueWaitForMessageRestricted:00000000 $t
C:\Users\EI\AppData\Local\Temp\cc6xPaa5.s:5326   .text.vQueueWaitForMessageRestricted:00000000 vQueueWaitForMessageRestricted

UNDEFINED SYMBOLS
vPortEnterCritical
xTaskRemoveFromEventList
vListInitialise
vPortExitCritical
pvPortMalloc
xTaskGetCurrentTaskHandle
xTaskGetSchedulerState
vTaskInternalSetTimeOutState
vTaskSuspendAll
xTaskCheckForTimeOut
vTaskPlaceOnEventList
xTaskResumeAll
vPortValidateInterruptPriority
pvTaskIncrementMutexHeldCount
xTaskPriorityInherit
vTaskPriorityDisinheritAfterTimeout
vPortFree
xTaskPriorityDisinherit
memcpy
vTaskMissedYield
ARM GAS  C:\Users\EI\AppData\Local\Temp\cc6xPaa5.s 			page 151


vTaskPlaceOnEventListRestricted
