ARM GAS  C:\Users\EI\AppData\Local\Temp\cc6xPaa5.s 			page 1


   1              		.cpu cortex-m4
   2              		.eabi_attribute 27, 1
   3              		.eabi_attribute 28, 1
   4              		.eabi_attribute 20, 1
   5              		.eabi_attribute 21, 1
   6              		.eabi_attribute 23, 3
   7              		.eabi_attribute 24, 1
   8              		.eabi_attribute 25, 1
   9              		.eabi_attribute 26, 1
  10              		.eabi_attribute 30, 6
  11              		.eabi_attribute 34, 1
  12              		.eabi_attribute 18, 4
  13              		.file	"queue.c"
  14              		.text
  15              	.Ltext0:
  16              		.cfi_sections	.debug_frame
  17              		.global	xQueueRegistry
  18              		.section	.bss.xQueueRegistry,"aw",%nobits
  19              		.align	2
  22              	xQueueRegistry:
  23 0000 00000000 		.space	64
  23      00000000 
  23      00000000 
  23      00000000 
  23      00000000 
  24              		.section	.text.xQueueGenericReset,"ax",%progbits
  25              		.align	1
  26              		.global	xQueueGenericReset
  27              		.arch armv7e-m
  28              		.syntax unified
  29              		.thumb
  30              		.thumb_func
  31              		.fpu fpv4-sp-d16
  33              	xQueueGenericReset:
  34              	.LFB4:
  35              		.file 1 "Middlewares/Third_Party/FreeRTOS/Source/queue.c"
   1:Middlewares/Third_Party/FreeRTOS/Source/queue.c **** /*
   2:Middlewares/Third_Party/FreeRTOS/Source/queue.c ****  * FreeRTOS Kernel V10.3.1
   3:Middlewares/Third_Party/FreeRTOS/Source/queue.c ****  * Copyright (C) 2020 Amazon.com, Inc. or its affiliates.  All Rights Reserved.
   4:Middlewares/Third_Party/FreeRTOS/Source/queue.c ****  *
   5:Middlewares/Third_Party/FreeRTOS/Source/queue.c ****  * Permission is hereby granted, free of charge, to any person obtaining a copy of
   6:Middlewares/Third_Party/FreeRTOS/Source/queue.c ****  * this software and associated documentation files (the "Software"), to deal in
   7:Middlewares/Third_Party/FreeRTOS/Source/queue.c ****  * the Software without restriction, including without limitation the rights to
   8:Middlewares/Third_Party/FreeRTOS/Source/queue.c ****  * use, copy, modify, merge, publish, distribute, sublicense, and/or sell copies of
   9:Middlewares/Third_Party/FreeRTOS/Source/queue.c ****  * the Software, and to permit persons to whom the Software is furnished to do so,
  10:Middlewares/Third_Party/FreeRTOS/Source/queue.c ****  * subject to the following conditions:
  11:Middlewares/Third_Party/FreeRTOS/Source/queue.c ****  *
  12:Middlewares/Third_Party/FreeRTOS/Source/queue.c ****  * The above copyright notice and this permission notice shall be included in all
  13:Middlewares/Third_Party/FreeRTOS/Source/queue.c ****  * copies or substantial portions of the Software.
  14:Middlewares/Third_Party/FreeRTOS/Source/queue.c ****  *
  15:Middlewares/Third_Party/FreeRTOS/Source/queue.c ****  * THE SOFTWARE IS PROVIDED "AS IS", WITHOUT WARRANTY OF ANY KIND, EXPRESS OR
  16:Middlewares/Third_Party/FreeRTOS/Source/queue.c ****  * IMPLIED, INCLUDING BUT NOT LIMITED TO THE WARRANTIES OF MERCHANTABILITY, FITNESS
  17:Middlewares/Third_Party/FreeRTOS/Source/queue.c ****  * FOR A PARTICULAR PURPOSE AND NONINFRINGEMENT. IN NO EVENT SHALL THE AUTHORS OR
  18:Middlewares/Third_Party/FreeRTOS/Source/queue.c ****  * COPYRIGHT HOLDERS BE LIABLE FOR ANY CLAIM, DAMAGES OR OTHER LIABILITY, WHETHER
  19:Middlewares/Third_Party/FreeRTOS/Source/queue.c ****  * IN AN ACTION OF CONTRACT, TORT OR OTHERWISE, ARISING FROM, OUT OF OR IN
  20:Middlewares/Third_Party/FreeRTOS/Source/queue.c ****  * CONNECTION WITH THE SOFTWARE OR THE USE OR OTHER DEALINGS IN THE SOFTWARE.
  21:Middlewares/Third_Party/FreeRTOS/Source/queue.c ****  *
ARM GAS  C:\Users\EI\AppData\Local\Temp\cc6xPaa5.s 			page 2


  22:Middlewares/Third_Party/FreeRTOS/Source/queue.c ****  * http://www.FreeRTOS.org
  23:Middlewares/Third_Party/FreeRTOS/Source/queue.c ****  * http://aws.amazon.com/freertos
  24:Middlewares/Third_Party/FreeRTOS/Source/queue.c ****  *
  25:Middlewares/Third_Party/FreeRTOS/Source/queue.c ****  * 1 tab == 4 spaces!
  26:Middlewares/Third_Party/FreeRTOS/Source/queue.c ****  */
  27:Middlewares/Third_Party/FreeRTOS/Source/queue.c **** 
  28:Middlewares/Third_Party/FreeRTOS/Source/queue.c **** #include <stdlib.h>
  29:Middlewares/Third_Party/FreeRTOS/Source/queue.c **** #include <string.h>
  30:Middlewares/Third_Party/FreeRTOS/Source/queue.c **** 
  31:Middlewares/Third_Party/FreeRTOS/Source/queue.c **** /* Defining MPU_WRAPPERS_INCLUDED_FROM_API_FILE prevents task.h from redefining
  32:Middlewares/Third_Party/FreeRTOS/Source/queue.c **** all the API functions to use the MPU wrappers.  That should only be done when
  33:Middlewares/Third_Party/FreeRTOS/Source/queue.c **** task.h is included from an application file. */
  34:Middlewares/Third_Party/FreeRTOS/Source/queue.c **** #define MPU_WRAPPERS_INCLUDED_FROM_API_FILE
  35:Middlewares/Third_Party/FreeRTOS/Source/queue.c **** 
  36:Middlewares/Third_Party/FreeRTOS/Source/queue.c **** #include "FreeRTOS.h"
  37:Middlewares/Third_Party/FreeRTOS/Source/queue.c **** #include "task.h"
  38:Middlewares/Third_Party/FreeRTOS/Source/queue.c **** #include "queue.h"
  39:Middlewares/Third_Party/FreeRTOS/Source/queue.c **** 
  40:Middlewares/Third_Party/FreeRTOS/Source/queue.c **** #if ( configUSE_CO_ROUTINES == 1 )
  41:Middlewares/Third_Party/FreeRTOS/Source/queue.c **** 	#include "croutine.h"
  42:Middlewares/Third_Party/FreeRTOS/Source/queue.c **** #endif
  43:Middlewares/Third_Party/FreeRTOS/Source/queue.c **** 
  44:Middlewares/Third_Party/FreeRTOS/Source/queue.c **** /* Lint e9021, e961 and e750 are suppressed as a MISRA exception justified
  45:Middlewares/Third_Party/FreeRTOS/Source/queue.c **** because the MPU ports require MPU_WRAPPERS_INCLUDED_FROM_API_FILE to be defined
  46:Middlewares/Third_Party/FreeRTOS/Source/queue.c **** for the header files above, but not in this file, in order to generate the
  47:Middlewares/Third_Party/FreeRTOS/Source/queue.c **** correct privileged Vs unprivileged linkage and placement. */
  48:Middlewares/Third_Party/FreeRTOS/Source/queue.c **** #undef MPU_WRAPPERS_INCLUDED_FROM_API_FILE /*lint !e961 !e750 !e9021. */
  49:Middlewares/Third_Party/FreeRTOS/Source/queue.c **** 
  50:Middlewares/Third_Party/FreeRTOS/Source/queue.c **** 
  51:Middlewares/Third_Party/FreeRTOS/Source/queue.c **** /* Constants used with the cRxLock and cTxLock structure members. */
  52:Middlewares/Third_Party/FreeRTOS/Source/queue.c **** #define queueUNLOCKED					( ( int8_t ) -1 )
  53:Middlewares/Third_Party/FreeRTOS/Source/queue.c **** #define queueLOCKED_UNMODIFIED			( ( int8_t ) 0 )
  54:Middlewares/Third_Party/FreeRTOS/Source/queue.c **** 
  55:Middlewares/Third_Party/FreeRTOS/Source/queue.c **** /* When the Queue_t structure is used to represent a base queue its pcHead and
  56:Middlewares/Third_Party/FreeRTOS/Source/queue.c **** pcTail members are used as pointers into the queue storage area.  When the
  57:Middlewares/Third_Party/FreeRTOS/Source/queue.c **** Queue_t structure is used to represent a mutex pcHead and pcTail pointers are
  58:Middlewares/Third_Party/FreeRTOS/Source/queue.c **** not necessary, and the pcHead pointer is set to NULL to indicate that the
  59:Middlewares/Third_Party/FreeRTOS/Source/queue.c **** structure instead holds a pointer to the mutex holder (if any).  Map alternative
  60:Middlewares/Third_Party/FreeRTOS/Source/queue.c **** names to the pcHead and structure member to ensure the readability of the code
  61:Middlewares/Third_Party/FreeRTOS/Source/queue.c **** is maintained.  The QueuePointers_t and SemaphoreData_t types are used to form
  62:Middlewares/Third_Party/FreeRTOS/Source/queue.c **** a union as their usage is mutually exclusive dependent on what the queue is
  63:Middlewares/Third_Party/FreeRTOS/Source/queue.c **** being used for. */
  64:Middlewares/Third_Party/FreeRTOS/Source/queue.c **** #define uxQueueType						pcHead
  65:Middlewares/Third_Party/FreeRTOS/Source/queue.c **** #define queueQUEUE_IS_MUTEX				NULL
  66:Middlewares/Third_Party/FreeRTOS/Source/queue.c **** 
  67:Middlewares/Third_Party/FreeRTOS/Source/queue.c **** typedef struct QueuePointers
  68:Middlewares/Third_Party/FreeRTOS/Source/queue.c **** {
  69:Middlewares/Third_Party/FreeRTOS/Source/queue.c **** 	int8_t *pcTail;					/*< Points to the byte at the end of the queue storage area.  Once more byte i
  70:Middlewares/Third_Party/FreeRTOS/Source/queue.c **** 	int8_t *pcReadFrom;				/*< Points to the last place that a queued item was read from when the stru
  71:Middlewares/Third_Party/FreeRTOS/Source/queue.c **** } QueuePointers_t;
  72:Middlewares/Third_Party/FreeRTOS/Source/queue.c **** 
  73:Middlewares/Third_Party/FreeRTOS/Source/queue.c **** typedef struct SemaphoreData
  74:Middlewares/Third_Party/FreeRTOS/Source/queue.c **** {
  75:Middlewares/Third_Party/FreeRTOS/Source/queue.c **** 	TaskHandle_t xMutexHolder;		 /*< The handle of the task that holds the mutex. */
  76:Middlewares/Third_Party/FreeRTOS/Source/queue.c **** 	UBaseType_t uxRecursiveCallCount;/*< Maintains a count of the number of times a recursive mutex ha
  77:Middlewares/Third_Party/FreeRTOS/Source/queue.c **** } SemaphoreData_t;
  78:Middlewares/Third_Party/FreeRTOS/Source/queue.c **** 
ARM GAS  C:\Users\EI\AppData\Local\Temp\cc6xPaa5.s 			page 3


  79:Middlewares/Third_Party/FreeRTOS/Source/queue.c **** /* Semaphores do not actually store or copy data, so have an item size of
  80:Middlewares/Third_Party/FreeRTOS/Source/queue.c **** zero. */
  81:Middlewares/Third_Party/FreeRTOS/Source/queue.c **** #define queueSEMAPHORE_QUEUE_ITEM_LENGTH ( ( UBaseType_t ) 0 )
  82:Middlewares/Third_Party/FreeRTOS/Source/queue.c **** #define queueMUTEX_GIVE_BLOCK_TIME		 ( ( TickType_t ) 0U )
  83:Middlewares/Third_Party/FreeRTOS/Source/queue.c **** 
  84:Middlewares/Third_Party/FreeRTOS/Source/queue.c **** #if( configUSE_PREEMPTION == 0 )
  85:Middlewares/Third_Party/FreeRTOS/Source/queue.c **** 	/* If the cooperative scheduler is being used then a yield should not be
  86:Middlewares/Third_Party/FreeRTOS/Source/queue.c **** 	performed just because a higher priority task has been woken. */
  87:Middlewares/Third_Party/FreeRTOS/Source/queue.c **** 	#define queueYIELD_IF_USING_PREEMPTION()
  88:Middlewares/Third_Party/FreeRTOS/Source/queue.c **** #else
  89:Middlewares/Third_Party/FreeRTOS/Source/queue.c **** 	#define queueYIELD_IF_USING_PREEMPTION() portYIELD_WITHIN_API()
  90:Middlewares/Third_Party/FreeRTOS/Source/queue.c **** #endif
  91:Middlewares/Third_Party/FreeRTOS/Source/queue.c **** 
  92:Middlewares/Third_Party/FreeRTOS/Source/queue.c **** /*
  93:Middlewares/Third_Party/FreeRTOS/Source/queue.c ****  * Definition of the queue used by the scheduler.
  94:Middlewares/Third_Party/FreeRTOS/Source/queue.c ****  * Items are queued by copy, not reference.  See the following link for the
  95:Middlewares/Third_Party/FreeRTOS/Source/queue.c ****  * rationale: https://www.freertos.org/Embedded-RTOS-Queues.html
  96:Middlewares/Third_Party/FreeRTOS/Source/queue.c ****  */
  97:Middlewares/Third_Party/FreeRTOS/Source/queue.c **** typedef struct QueueDefinition 		/* The old naming convention is used to prevent breaking kernel aw
  98:Middlewares/Third_Party/FreeRTOS/Source/queue.c **** {
  99:Middlewares/Third_Party/FreeRTOS/Source/queue.c **** 	int8_t *pcHead;					/*< Points to the beginning of the queue storage area. */
 100:Middlewares/Third_Party/FreeRTOS/Source/queue.c **** 	int8_t *pcWriteTo;				/*< Points to the free next place in the storage area. */
 101:Middlewares/Third_Party/FreeRTOS/Source/queue.c **** 
 102:Middlewares/Third_Party/FreeRTOS/Source/queue.c **** 	union
 103:Middlewares/Third_Party/FreeRTOS/Source/queue.c **** 	{
 104:Middlewares/Third_Party/FreeRTOS/Source/queue.c **** 		QueuePointers_t xQueue;		/*< Data required exclusively when this structure is used as a queue. */
 105:Middlewares/Third_Party/FreeRTOS/Source/queue.c **** 		SemaphoreData_t xSemaphore; /*< Data required exclusively when this structure is used as a semaph
 106:Middlewares/Third_Party/FreeRTOS/Source/queue.c **** 	} u;
 107:Middlewares/Third_Party/FreeRTOS/Source/queue.c **** 
 108:Middlewares/Third_Party/FreeRTOS/Source/queue.c **** 	List_t xTasksWaitingToSend;		/*< List of tasks that are blocked waiting to post onto this queue.  
 109:Middlewares/Third_Party/FreeRTOS/Source/queue.c **** 	List_t xTasksWaitingToReceive;	/*< List of tasks that are blocked waiting to read from this queue.
 110:Middlewares/Third_Party/FreeRTOS/Source/queue.c **** 
 111:Middlewares/Third_Party/FreeRTOS/Source/queue.c **** 	volatile UBaseType_t uxMessagesWaiting;/*< The number of items currently in the queue. */
 112:Middlewares/Third_Party/FreeRTOS/Source/queue.c **** 	UBaseType_t uxLength;			/*< The length of the queue defined as the number of items it will hold, n
 113:Middlewares/Third_Party/FreeRTOS/Source/queue.c **** 	UBaseType_t uxItemSize;			/*< The size of each items that the queue will hold. */
 114:Middlewares/Third_Party/FreeRTOS/Source/queue.c **** 
 115:Middlewares/Third_Party/FreeRTOS/Source/queue.c **** 	volatile int8_t cRxLock;		/*< Stores the number of items received from the queue (removed from the
 116:Middlewares/Third_Party/FreeRTOS/Source/queue.c **** 	volatile int8_t cTxLock;		/*< Stores the number of items transmitted to the queue (added to the qu
 117:Middlewares/Third_Party/FreeRTOS/Source/queue.c **** 
 118:Middlewares/Third_Party/FreeRTOS/Source/queue.c **** 	#if( ( configSUPPORT_STATIC_ALLOCATION == 1 ) && ( configSUPPORT_DYNAMIC_ALLOCATION == 1 ) )
 119:Middlewares/Third_Party/FreeRTOS/Source/queue.c **** 		uint8_t ucStaticallyAllocated;	/*< Set to pdTRUE if the memory used by the queue was statically a
 120:Middlewares/Third_Party/FreeRTOS/Source/queue.c **** 	#endif
 121:Middlewares/Third_Party/FreeRTOS/Source/queue.c **** 
 122:Middlewares/Third_Party/FreeRTOS/Source/queue.c **** 	#if ( configUSE_QUEUE_SETS == 1 )
 123:Middlewares/Third_Party/FreeRTOS/Source/queue.c **** 		struct QueueDefinition *pxQueueSetContainer;
 124:Middlewares/Third_Party/FreeRTOS/Source/queue.c **** 	#endif
 125:Middlewares/Third_Party/FreeRTOS/Source/queue.c **** 
 126:Middlewares/Third_Party/FreeRTOS/Source/queue.c **** 	#if ( configUSE_TRACE_FACILITY == 1 )
 127:Middlewares/Third_Party/FreeRTOS/Source/queue.c **** 		UBaseType_t uxQueueNumber;
 128:Middlewares/Third_Party/FreeRTOS/Source/queue.c **** 		uint8_t ucQueueType;
 129:Middlewares/Third_Party/FreeRTOS/Source/queue.c **** 	#endif
 130:Middlewares/Third_Party/FreeRTOS/Source/queue.c **** 
 131:Middlewares/Third_Party/FreeRTOS/Source/queue.c **** } xQUEUE;
 132:Middlewares/Third_Party/FreeRTOS/Source/queue.c **** 
 133:Middlewares/Third_Party/FreeRTOS/Source/queue.c **** /* The old xQUEUE name is maintained above then typedefed to the new Queue_t
 134:Middlewares/Third_Party/FreeRTOS/Source/queue.c **** name below to enable the use of older kernel aware debuggers. */
 135:Middlewares/Third_Party/FreeRTOS/Source/queue.c **** typedef xQUEUE Queue_t;
ARM GAS  C:\Users\EI\AppData\Local\Temp\cc6xPaa5.s 			page 4


 136:Middlewares/Third_Party/FreeRTOS/Source/queue.c **** 
 137:Middlewares/Third_Party/FreeRTOS/Source/queue.c **** /*-----------------------------------------------------------*/
 138:Middlewares/Third_Party/FreeRTOS/Source/queue.c **** 
 139:Middlewares/Third_Party/FreeRTOS/Source/queue.c **** /*
 140:Middlewares/Third_Party/FreeRTOS/Source/queue.c ****  * The queue registry is just a means for kernel aware debuggers to locate
 141:Middlewares/Third_Party/FreeRTOS/Source/queue.c ****  * queue structures.  It has no other purpose so is an optional component.
 142:Middlewares/Third_Party/FreeRTOS/Source/queue.c ****  */
 143:Middlewares/Third_Party/FreeRTOS/Source/queue.c **** #if ( configQUEUE_REGISTRY_SIZE > 0 )
 144:Middlewares/Third_Party/FreeRTOS/Source/queue.c **** 
 145:Middlewares/Third_Party/FreeRTOS/Source/queue.c **** 	/* The type stored within the queue registry array.  This allows a name
 146:Middlewares/Third_Party/FreeRTOS/Source/queue.c **** 	to be assigned to each queue making kernel aware debugging a little
 147:Middlewares/Third_Party/FreeRTOS/Source/queue.c **** 	more user friendly. */
 148:Middlewares/Third_Party/FreeRTOS/Source/queue.c **** 	typedef struct QUEUE_REGISTRY_ITEM
 149:Middlewares/Third_Party/FreeRTOS/Source/queue.c **** 	{
 150:Middlewares/Third_Party/FreeRTOS/Source/queue.c **** 		const char *pcQueueName; /*lint !e971 Unqualified char types are allowed for strings and single c
 151:Middlewares/Third_Party/FreeRTOS/Source/queue.c **** 		QueueHandle_t xHandle;
 152:Middlewares/Third_Party/FreeRTOS/Source/queue.c **** 	} xQueueRegistryItem;
 153:Middlewares/Third_Party/FreeRTOS/Source/queue.c **** 
 154:Middlewares/Third_Party/FreeRTOS/Source/queue.c **** 	/* The old xQueueRegistryItem name is maintained above then typedefed to the
 155:Middlewares/Third_Party/FreeRTOS/Source/queue.c **** 	new xQueueRegistryItem name below to enable the use of older kernel aware
 156:Middlewares/Third_Party/FreeRTOS/Source/queue.c **** 	debuggers. */
 157:Middlewares/Third_Party/FreeRTOS/Source/queue.c **** 	typedef xQueueRegistryItem QueueRegistryItem_t;
 158:Middlewares/Third_Party/FreeRTOS/Source/queue.c **** 
 159:Middlewares/Third_Party/FreeRTOS/Source/queue.c **** 	/* The queue registry is simply an array of QueueRegistryItem_t structures.
 160:Middlewares/Third_Party/FreeRTOS/Source/queue.c **** 	The pcQueueName member of a structure being NULL is indicative of the
 161:Middlewares/Third_Party/FreeRTOS/Source/queue.c **** 	array position being vacant. */
 162:Middlewares/Third_Party/FreeRTOS/Source/queue.c **** 	PRIVILEGED_DATA QueueRegistryItem_t xQueueRegistry[ configQUEUE_REGISTRY_SIZE ];
 163:Middlewares/Third_Party/FreeRTOS/Source/queue.c **** 
 164:Middlewares/Third_Party/FreeRTOS/Source/queue.c **** #endif /* configQUEUE_REGISTRY_SIZE */
 165:Middlewares/Third_Party/FreeRTOS/Source/queue.c **** 
 166:Middlewares/Third_Party/FreeRTOS/Source/queue.c **** /*
 167:Middlewares/Third_Party/FreeRTOS/Source/queue.c ****  * Unlocks a queue locked by a call to prvLockQueue.  Locking a queue does not
 168:Middlewares/Third_Party/FreeRTOS/Source/queue.c ****  * prevent an ISR from adding or removing items to the queue, but does prevent
 169:Middlewares/Third_Party/FreeRTOS/Source/queue.c ****  * an ISR from removing tasks from the queue event lists.  If an ISR finds a
 170:Middlewares/Third_Party/FreeRTOS/Source/queue.c ****  * queue is locked it will instead increment the appropriate queue lock count
 171:Middlewares/Third_Party/FreeRTOS/Source/queue.c ****  * to indicate that a task may require unblocking.  When the queue in unlocked
 172:Middlewares/Third_Party/FreeRTOS/Source/queue.c ****  * these lock counts are inspected, and the appropriate action taken.
 173:Middlewares/Third_Party/FreeRTOS/Source/queue.c ****  */
 174:Middlewares/Third_Party/FreeRTOS/Source/queue.c **** static void prvUnlockQueue( Queue_t * const pxQueue ) PRIVILEGED_FUNCTION;
 175:Middlewares/Third_Party/FreeRTOS/Source/queue.c **** 
 176:Middlewares/Third_Party/FreeRTOS/Source/queue.c **** /*
 177:Middlewares/Third_Party/FreeRTOS/Source/queue.c ****  * Uses a critical section to determine if there is any data in a queue.
 178:Middlewares/Third_Party/FreeRTOS/Source/queue.c ****  *
 179:Middlewares/Third_Party/FreeRTOS/Source/queue.c ****  * @return pdTRUE if the queue contains no items, otherwise pdFALSE.
 180:Middlewares/Third_Party/FreeRTOS/Source/queue.c ****  */
 181:Middlewares/Third_Party/FreeRTOS/Source/queue.c **** static BaseType_t prvIsQueueEmpty( const Queue_t *pxQueue ) PRIVILEGED_FUNCTION;
 182:Middlewares/Third_Party/FreeRTOS/Source/queue.c **** 
 183:Middlewares/Third_Party/FreeRTOS/Source/queue.c **** /*
 184:Middlewares/Third_Party/FreeRTOS/Source/queue.c ****  * Uses a critical section to determine if there is any space in a queue.
 185:Middlewares/Third_Party/FreeRTOS/Source/queue.c ****  *
 186:Middlewares/Third_Party/FreeRTOS/Source/queue.c ****  * @return pdTRUE if there is no space, otherwise pdFALSE;
 187:Middlewares/Third_Party/FreeRTOS/Source/queue.c ****  */
 188:Middlewares/Third_Party/FreeRTOS/Source/queue.c **** static BaseType_t prvIsQueueFull( const Queue_t *pxQueue ) PRIVILEGED_FUNCTION;
 189:Middlewares/Third_Party/FreeRTOS/Source/queue.c **** 
 190:Middlewares/Third_Party/FreeRTOS/Source/queue.c **** /*
 191:Middlewares/Third_Party/FreeRTOS/Source/queue.c ****  * Copies an item into the queue, either at the front of the queue or the
 192:Middlewares/Third_Party/FreeRTOS/Source/queue.c ****  * back of the queue.
ARM GAS  C:\Users\EI\AppData\Local\Temp\cc6xPaa5.s 			page 5


 193:Middlewares/Third_Party/FreeRTOS/Source/queue.c ****  */
 194:Middlewares/Third_Party/FreeRTOS/Source/queue.c **** static BaseType_t prvCopyDataToQueue( Queue_t * const pxQueue, const void *pvItemToQueue, const Bas
 195:Middlewares/Third_Party/FreeRTOS/Source/queue.c **** 
 196:Middlewares/Third_Party/FreeRTOS/Source/queue.c **** /*
 197:Middlewares/Third_Party/FreeRTOS/Source/queue.c ****  * Copies an item out of a queue.
 198:Middlewares/Third_Party/FreeRTOS/Source/queue.c ****  */
 199:Middlewares/Third_Party/FreeRTOS/Source/queue.c **** static void prvCopyDataFromQueue( Queue_t * const pxQueue, void * const pvBuffer ) PRIVILEGED_FUNCT
 200:Middlewares/Third_Party/FreeRTOS/Source/queue.c **** 
 201:Middlewares/Third_Party/FreeRTOS/Source/queue.c **** #if ( configUSE_QUEUE_SETS == 1 )
 202:Middlewares/Third_Party/FreeRTOS/Source/queue.c **** 	/*
 203:Middlewares/Third_Party/FreeRTOS/Source/queue.c **** 	 * Checks to see if a queue is a member of a queue set, and if so, notifies
 204:Middlewares/Third_Party/FreeRTOS/Source/queue.c **** 	 * the queue set that the queue contains data.
 205:Middlewares/Third_Party/FreeRTOS/Source/queue.c **** 	 */
 206:Middlewares/Third_Party/FreeRTOS/Source/queue.c **** 	static BaseType_t prvNotifyQueueSetContainer( const Queue_t * const pxQueue ) PRIVILEGED_FUNCTION;
 207:Middlewares/Third_Party/FreeRTOS/Source/queue.c **** #endif
 208:Middlewares/Third_Party/FreeRTOS/Source/queue.c **** 
 209:Middlewares/Third_Party/FreeRTOS/Source/queue.c **** /*
 210:Middlewares/Third_Party/FreeRTOS/Source/queue.c ****  * Called after a Queue_t structure has been allocated either statically or
 211:Middlewares/Third_Party/FreeRTOS/Source/queue.c ****  * dynamically to fill in the structure's members.
 212:Middlewares/Third_Party/FreeRTOS/Source/queue.c ****  */
 213:Middlewares/Third_Party/FreeRTOS/Source/queue.c **** static void prvInitialiseNewQueue( const UBaseType_t uxQueueLength, const UBaseType_t uxItemSize, u
 214:Middlewares/Third_Party/FreeRTOS/Source/queue.c **** 
 215:Middlewares/Third_Party/FreeRTOS/Source/queue.c **** /*
 216:Middlewares/Third_Party/FreeRTOS/Source/queue.c ****  * Mutexes are a special type of queue.  When a mutex is created, first the
 217:Middlewares/Third_Party/FreeRTOS/Source/queue.c ****  * queue is created, then prvInitialiseMutex() is called to configure the queue
 218:Middlewares/Third_Party/FreeRTOS/Source/queue.c ****  * as a mutex.
 219:Middlewares/Third_Party/FreeRTOS/Source/queue.c ****  */
 220:Middlewares/Third_Party/FreeRTOS/Source/queue.c **** #if( configUSE_MUTEXES == 1 )
 221:Middlewares/Third_Party/FreeRTOS/Source/queue.c **** 	static void prvInitialiseMutex( Queue_t *pxNewQueue ) PRIVILEGED_FUNCTION;
 222:Middlewares/Third_Party/FreeRTOS/Source/queue.c **** #endif
 223:Middlewares/Third_Party/FreeRTOS/Source/queue.c **** 
 224:Middlewares/Third_Party/FreeRTOS/Source/queue.c **** #if( configUSE_MUTEXES == 1 )
 225:Middlewares/Third_Party/FreeRTOS/Source/queue.c **** 	/*
 226:Middlewares/Third_Party/FreeRTOS/Source/queue.c **** 	 * If a task waiting for a mutex causes the mutex holder to inherit a
 227:Middlewares/Third_Party/FreeRTOS/Source/queue.c **** 	 * priority, but the waiting task times out, then the holder should
 228:Middlewares/Third_Party/FreeRTOS/Source/queue.c **** 	 * disinherit the priority - but only down to the highest priority of any
 229:Middlewares/Third_Party/FreeRTOS/Source/queue.c **** 	 * other tasks that are waiting for the same mutex.  This function returns
 230:Middlewares/Third_Party/FreeRTOS/Source/queue.c **** 	 * that priority.
 231:Middlewares/Third_Party/FreeRTOS/Source/queue.c **** 	 */
 232:Middlewares/Third_Party/FreeRTOS/Source/queue.c **** 	static UBaseType_t prvGetDisinheritPriorityAfterTimeout( const Queue_t * const pxQueue ) PRIVILEGE
 233:Middlewares/Third_Party/FreeRTOS/Source/queue.c **** #endif
 234:Middlewares/Third_Party/FreeRTOS/Source/queue.c **** /*-----------------------------------------------------------*/
 235:Middlewares/Third_Party/FreeRTOS/Source/queue.c **** 
 236:Middlewares/Third_Party/FreeRTOS/Source/queue.c **** /*
 237:Middlewares/Third_Party/FreeRTOS/Source/queue.c ****  * Macro to mark a queue as locked.  Locking a queue prevents an ISR from
 238:Middlewares/Third_Party/FreeRTOS/Source/queue.c ****  * accessing the queue event lists.
 239:Middlewares/Third_Party/FreeRTOS/Source/queue.c ****  */
 240:Middlewares/Third_Party/FreeRTOS/Source/queue.c **** #define prvLockQueue( pxQueue )								\
 241:Middlewares/Third_Party/FreeRTOS/Source/queue.c **** 	taskENTER_CRITICAL();									\
 242:Middlewares/Third_Party/FreeRTOS/Source/queue.c **** 	{														\
 243:Middlewares/Third_Party/FreeRTOS/Source/queue.c **** 		if( ( pxQueue )->cRxLock == queueUNLOCKED )			\
 244:Middlewares/Third_Party/FreeRTOS/Source/queue.c **** 		{													\
 245:Middlewares/Third_Party/FreeRTOS/Source/queue.c **** 			( pxQueue )->cRxLock = queueLOCKED_UNMODIFIED;	\
 246:Middlewares/Third_Party/FreeRTOS/Source/queue.c **** 		}													\
 247:Middlewares/Third_Party/FreeRTOS/Source/queue.c **** 		if( ( pxQueue )->cTxLock == queueUNLOCKED )			\
 248:Middlewares/Third_Party/FreeRTOS/Source/queue.c **** 		{													\
 249:Middlewares/Third_Party/FreeRTOS/Source/queue.c **** 			( pxQueue )->cTxLock = queueLOCKED_UNMODIFIED;	\
ARM GAS  C:\Users\EI\AppData\Local\Temp\cc6xPaa5.s 			page 6


 250:Middlewares/Third_Party/FreeRTOS/Source/queue.c **** 		}													\
 251:Middlewares/Third_Party/FreeRTOS/Source/queue.c **** 	}														\
 252:Middlewares/Third_Party/FreeRTOS/Source/queue.c **** 	taskEXIT_CRITICAL()
 253:Middlewares/Third_Party/FreeRTOS/Source/queue.c **** /*-----------------------------------------------------------*/
 254:Middlewares/Third_Party/FreeRTOS/Source/queue.c **** 
 255:Middlewares/Third_Party/FreeRTOS/Source/queue.c **** BaseType_t xQueueGenericReset( QueueHandle_t xQueue, BaseType_t xNewQueue )
 256:Middlewares/Third_Party/FreeRTOS/Source/queue.c **** {
  36              		.loc 1 256 1
  37              		.cfi_startproc
  38              		@ args = 0, pretend = 0, frame = 16
  39              		@ frame_needed = 1, uses_anonymous_args = 0
  40 0000 80B5     		push	{r7, lr}
  41              	.LCFI0:
  42              		.cfi_def_cfa_offset 8
  43              		.cfi_offset 7, -8
  44              		.cfi_offset 14, -4
  45 0002 84B0     		sub	sp, sp, #16
  46              	.LCFI1:
  47              		.cfi_def_cfa_offset 24
  48 0004 00AF     		add	r7, sp, #0
  49              	.LCFI2:
  50              		.cfi_def_cfa_register 7
  51 0006 7860     		str	r0, [r7, #4]
  52 0008 3960     		str	r1, [r7]
 257:Middlewares/Third_Party/FreeRTOS/Source/queue.c **** Queue_t * const pxQueue = xQueue;
  53              		.loc 1 257 17
  54 000a 7B68     		ldr	r3, [r7, #4]
  55 000c FB60     		str	r3, [r7, #12]
 258:Middlewares/Third_Party/FreeRTOS/Source/queue.c **** 
 259:Middlewares/Third_Party/FreeRTOS/Source/queue.c **** 	configASSERT( pxQueue );
  56              		.loc 1 259 2
  57 000e FB68     		ldr	r3, [r7, #12]
  58 0010 002B     		cmp	r3, #0
  59 0012 0AD1     		bne	.L2
  60              	.LBB118:
  61              	.LBB119:
  62              		.file 2 "Middlewares/Third_Party/FreeRTOS/Source/portable/GCC/ARM_CM4F/portmacro.h"
   1:Middlewares/Third_Party/FreeRTOS/Source/portable/GCC/ARM_CM4F/portmacro.h **** /*
   2:Middlewares/Third_Party/FreeRTOS/Source/portable/GCC/ARM_CM4F/portmacro.h ****  * FreeRTOS Kernel V10.3.1
   3:Middlewares/Third_Party/FreeRTOS/Source/portable/GCC/ARM_CM4F/portmacro.h ****  * Copyright (C) 2020 Amazon.com, Inc. or its affiliates.  All Rights Reserved.
   4:Middlewares/Third_Party/FreeRTOS/Source/portable/GCC/ARM_CM4F/portmacro.h ****  *
   5:Middlewares/Third_Party/FreeRTOS/Source/portable/GCC/ARM_CM4F/portmacro.h ****  * Permission is hereby granted, free of charge, to any person obtaining a copy of
   6:Middlewares/Third_Party/FreeRTOS/Source/portable/GCC/ARM_CM4F/portmacro.h ****  * this software and associated documentation files (the "Software"), to deal in
   7:Middlewares/Third_Party/FreeRTOS/Source/portable/GCC/ARM_CM4F/portmacro.h ****  * the Software without restriction, including without limitation the rights to
   8:Middlewares/Third_Party/FreeRTOS/Source/portable/GCC/ARM_CM4F/portmacro.h ****  * use, copy, modify, merge, publish, distribute, sublicense, and/or sell copies of
   9:Middlewares/Third_Party/FreeRTOS/Source/portable/GCC/ARM_CM4F/portmacro.h ****  * the Software, and to permit persons to whom the Software is furnished to do so,
  10:Middlewares/Third_Party/FreeRTOS/Source/portable/GCC/ARM_CM4F/portmacro.h ****  * subject to the following conditions:
  11:Middlewares/Third_Party/FreeRTOS/Source/portable/GCC/ARM_CM4F/portmacro.h ****  *
  12:Middlewares/Third_Party/FreeRTOS/Source/portable/GCC/ARM_CM4F/portmacro.h ****  * The above copyright notice and this permission notice shall be included in all
  13:Middlewares/Third_Party/FreeRTOS/Source/portable/GCC/ARM_CM4F/portmacro.h ****  * copies or substantial portions of the Software.
  14:Middlewares/Third_Party/FreeRTOS/Source/portable/GCC/ARM_CM4F/portmacro.h ****  *
  15:Middlewares/Third_Party/FreeRTOS/Source/portable/GCC/ARM_CM4F/portmacro.h ****  * THE SOFTWARE IS PROVIDED "AS IS", WITHOUT WARRANTY OF ANY KIND, EXPRESS OR
  16:Middlewares/Third_Party/FreeRTOS/Source/portable/GCC/ARM_CM4F/portmacro.h ****  * IMPLIED, INCLUDING BUT NOT LIMITED TO THE WARRANTIES OF MERCHANTABILITY, FITNESS
  17:Middlewares/Third_Party/FreeRTOS/Source/portable/GCC/ARM_CM4F/portmacro.h ****  * FOR A PARTICULAR PURPOSE AND NONINFRINGEMENT. IN NO EVENT SHALL THE AUTHORS OR
  18:Middlewares/Third_Party/FreeRTOS/Source/portable/GCC/ARM_CM4F/portmacro.h ****  * COPYRIGHT HOLDERS BE LIABLE FOR ANY CLAIM, DAMAGES OR OTHER LIABILITY, WHETHER
  19:Middlewares/Third_Party/FreeRTOS/Source/portable/GCC/ARM_CM4F/portmacro.h ****  * IN AN ACTION OF CONTRACT, TORT OR OTHERWISE, ARISING FROM, OUT OF OR IN
  20:Middlewares/Third_Party/FreeRTOS/Source/portable/GCC/ARM_CM4F/portmacro.h ****  * CONNECTION WITH THE SOFTWARE OR THE USE OR OTHER DEALINGS IN THE SOFTWARE.
ARM GAS  C:\Users\EI\AppData\Local\Temp\cc6xPaa5.s 			page 7


  21:Middlewares/Third_Party/FreeRTOS/Source/portable/GCC/ARM_CM4F/portmacro.h ****  *
  22:Middlewares/Third_Party/FreeRTOS/Source/portable/GCC/ARM_CM4F/portmacro.h ****  * http://www.FreeRTOS.org
  23:Middlewares/Third_Party/FreeRTOS/Source/portable/GCC/ARM_CM4F/portmacro.h ****  * http://aws.amazon.com/freertos
  24:Middlewares/Third_Party/FreeRTOS/Source/portable/GCC/ARM_CM4F/portmacro.h ****  *
  25:Middlewares/Third_Party/FreeRTOS/Source/portable/GCC/ARM_CM4F/portmacro.h ****  * 1 tab == 4 spaces!
  26:Middlewares/Third_Party/FreeRTOS/Source/portable/GCC/ARM_CM4F/portmacro.h ****  */
  27:Middlewares/Third_Party/FreeRTOS/Source/portable/GCC/ARM_CM4F/portmacro.h **** 
  28:Middlewares/Third_Party/FreeRTOS/Source/portable/GCC/ARM_CM4F/portmacro.h **** 
  29:Middlewares/Third_Party/FreeRTOS/Source/portable/GCC/ARM_CM4F/portmacro.h **** #ifndef PORTMACRO_H
  30:Middlewares/Third_Party/FreeRTOS/Source/portable/GCC/ARM_CM4F/portmacro.h **** #define PORTMACRO_H
  31:Middlewares/Third_Party/FreeRTOS/Source/portable/GCC/ARM_CM4F/portmacro.h **** 
  32:Middlewares/Third_Party/FreeRTOS/Source/portable/GCC/ARM_CM4F/portmacro.h **** #ifdef __cplusplus
  33:Middlewares/Third_Party/FreeRTOS/Source/portable/GCC/ARM_CM4F/portmacro.h **** extern "C" {
  34:Middlewares/Third_Party/FreeRTOS/Source/portable/GCC/ARM_CM4F/portmacro.h **** #endif
  35:Middlewares/Third_Party/FreeRTOS/Source/portable/GCC/ARM_CM4F/portmacro.h **** 
  36:Middlewares/Third_Party/FreeRTOS/Source/portable/GCC/ARM_CM4F/portmacro.h **** /*-----------------------------------------------------------
  37:Middlewares/Third_Party/FreeRTOS/Source/portable/GCC/ARM_CM4F/portmacro.h ****  * Port specific definitions.
  38:Middlewares/Third_Party/FreeRTOS/Source/portable/GCC/ARM_CM4F/portmacro.h ****  *
  39:Middlewares/Third_Party/FreeRTOS/Source/portable/GCC/ARM_CM4F/portmacro.h ****  * The settings in this file configure FreeRTOS correctly for the
  40:Middlewares/Third_Party/FreeRTOS/Source/portable/GCC/ARM_CM4F/portmacro.h ****  * given hardware and compiler.
  41:Middlewares/Third_Party/FreeRTOS/Source/portable/GCC/ARM_CM4F/portmacro.h ****  *
  42:Middlewares/Third_Party/FreeRTOS/Source/portable/GCC/ARM_CM4F/portmacro.h ****  * These settings should not be altered.
  43:Middlewares/Third_Party/FreeRTOS/Source/portable/GCC/ARM_CM4F/portmacro.h ****  *-----------------------------------------------------------
  44:Middlewares/Third_Party/FreeRTOS/Source/portable/GCC/ARM_CM4F/portmacro.h ****  */
  45:Middlewares/Third_Party/FreeRTOS/Source/portable/GCC/ARM_CM4F/portmacro.h **** 
  46:Middlewares/Third_Party/FreeRTOS/Source/portable/GCC/ARM_CM4F/portmacro.h **** /* Type definitions. */
  47:Middlewares/Third_Party/FreeRTOS/Source/portable/GCC/ARM_CM4F/portmacro.h **** #define portCHAR		char
  48:Middlewares/Third_Party/FreeRTOS/Source/portable/GCC/ARM_CM4F/portmacro.h **** #define portFLOAT		float
  49:Middlewares/Third_Party/FreeRTOS/Source/portable/GCC/ARM_CM4F/portmacro.h **** #define portDOUBLE		double
  50:Middlewares/Third_Party/FreeRTOS/Source/portable/GCC/ARM_CM4F/portmacro.h **** #define portLONG		long
  51:Middlewares/Third_Party/FreeRTOS/Source/portable/GCC/ARM_CM4F/portmacro.h **** #define portSHORT		short
  52:Middlewares/Third_Party/FreeRTOS/Source/portable/GCC/ARM_CM4F/portmacro.h **** #define portSTACK_TYPE	uint32_t
  53:Middlewares/Third_Party/FreeRTOS/Source/portable/GCC/ARM_CM4F/portmacro.h **** #define portBASE_TYPE	long
  54:Middlewares/Third_Party/FreeRTOS/Source/portable/GCC/ARM_CM4F/portmacro.h **** 
  55:Middlewares/Third_Party/FreeRTOS/Source/portable/GCC/ARM_CM4F/portmacro.h **** typedef portSTACK_TYPE StackType_t;
  56:Middlewares/Third_Party/FreeRTOS/Source/portable/GCC/ARM_CM4F/portmacro.h **** typedef long BaseType_t;
  57:Middlewares/Third_Party/FreeRTOS/Source/portable/GCC/ARM_CM4F/portmacro.h **** typedef unsigned long UBaseType_t;
  58:Middlewares/Third_Party/FreeRTOS/Source/portable/GCC/ARM_CM4F/portmacro.h **** 
  59:Middlewares/Third_Party/FreeRTOS/Source/portable/GCC/ARM_CM4F/portmacro.h **** #if( configUSE_16_BIT_TICKS == 1 )
  60:Middlewares/Third_Party/FreeRTOS/Source/portable/GCC/ARM_CM4F/portmacro.h **** 	typedef uint16_t TickType_t;
  61:Middlewares/Third_Party/FreeRTOS/Source/portable/GCC/ARM_CM4F/portmacro.h **** 	#define portMAX_DELAY ( TickType_t ) 0xffff
  62:Middlewares/Third_Party/FreeRTOS/Source/portable/GCC/ARM_CM4F/portmacro.h **** #else
  63:Middlewares/Third_Party/FreeRTOS/Source/portable/GCC/ARM_CM4F/portmacro.h **** 	typedef uint32_t TickType_t;
  64:Middlewares/Third_Party/FreeRTOS/Source/portable/GCC/ARM_CM4F/portmacro.h **** 	#define portMAX_DELAY ( TickType_t ) 0xffffffffUL
  65:Middlewares/Third_Party/FreeRTOS/Source/portable/GCC/ARM_CM4F/portmacro.h **** 
  66:Middlewares/Third_Party/FreeRTOS/Source/portable/GCC/ARM_CM4F/portmacro.h **** 	/* 32-bit tick type on a 32-bit architecture, so reads of the tick count do
  67:Middlewares/Third_Party/FreeRTOS/Source/portable/GCC/ARM_CM4F/portmacro.h **** 	not need to be guarded with a critical section. */
  68:Middlewares/Third_Party/FreeRTOS/Source/portable/GCC/ARM_CM4F/portmacro.h **** 	#define portTICK_TYPE_IS_ATOMIC 1
  69:Middlewares/Third_Party/FreeRTOS/Source/portable/GCC/ARM_CM4F/portmacro.h **** #endif
  70:Middlewares/Third_Party/FreeRTOS/Source/portable/GCC/ARM_CM4F/portmacro.h **** /*-----------------------------------------------------------*/
  71:Middlewares/Third_Party/FreeRTOS/Source/portable/GCC/ARM_CM4F/portmacro.h **** 
  72:Middlewares/Third_Party/FreeRTOS/Source/portable/GCC/ARM_CM4F/portmacro.h **** /* Architecture specifics. */
  73:Middlewares/Third_Party/FreeRTOS/Source/portable/GCC/ARM_CM4F/portmacro.h **** #define portSTACK_GROWTH			( -1 )
  74:Middlewares/Third_Party/FreeRTOS/Source/portable/GCC/ARM_CM4F/portmacro.h **** #define portTICK_PERIOD_MS			( ( TickType_t ) 1000 / configTICK_RATE_HZ )
  75:Middlewares/Third_Party/FreeRTOS/Source/portable/GCC/ARM_CM4F/portmacro.h **** #define portBYTE_ALIGNMENT			8
  76:Middlewares/Third_Party/FreeRTOS/Source/portable/GCC/ARM_CM4F/portmacro.h **** /*-----------------------------------------------------------*/
  77:Middlewares/Third_Party/FreeRTOS/Source/portable/GCC/ARM_CM4F/portmacro.h **** 
ARM GAS  C:\Users\EI\AppData\Local\Temp\cc6xPaa5.s 			page 8


  78:Middlewares/Third_Party/FreeRTOS/Source/portable/GCC/ARM_CM4F/portmacro.h **** /* Scheduler utilities. */
  79:Middlewares/Third_Party/FreeRTOS/Source/portable/GCC/ARM_CM4F/portmacro.h **** #define portYIELD() 															\
  80:Middlewares/Third_Party/FreeRTOS/Source/portable/GCC/ARM_CM4F/portmacro.h **** {																				\
  81:Middlewares/Third_Party/FreeRTOS/Source/portable/GCC/ARM_CM4F/portmacro.h **** 	/* Set a PendSV to request a context switch. */								\
  82:Middlewares/Third_Party/FreeRTOS/Source/portable/GCC/ARM_CM4F/portmacro.h **** 	portNVIC_INT_CTRL_REG = portNVIC_PENDSVSET_BIT;								\
  83:Middlewares/Third_Party/FreeRTOS/Source/portable/GCC/ARM_CM4F/portmacro.h **** 																				\
  84:Middlewares/Third_Party/FreeRTOS/Source/portable/GCC/ARM_CM4F/portmacro.h **** 	/* Barriers are normally not required but do ensure the code is completely	\
  85:Middlewares/Third_Party/FreeRTOS/Source/portable/GCC/ARM_CM4F/portmacro.h **** 	within the specified behaviour for the architecture. */						\
  86:Middlewares/Third_Party/FreeRTOS/Source/portable/GCC/ARM_CM4F/portmacro.h **** 	__asm volatile( "dsb" ::: "memory" );										\
  87:Middlewares/Third_Party/FreeRTOS/Source/portable/GCC/ARM_CM4F/portmacro.h **** 	__asm volatile( "isb" );													\
  88:Middlewares/Third_Party/FreeRTOS/Source/portable/GCC/ARM_CM4F/portmacro.h **** }
  89:Middlewares/Third_Party/FreeRTOS/Source/portable/GCC/ARM_CM4F/portmacro.h **** 
  90:Middlewares/Third_Party/FreeRTOS/Source/portable/GCC/ARM_CM4F/portmacro.h **** #define portNVIC_INT_CTRL_REG		( * ( ( volatile uint32_t * ) 0xe000ed04 ) )
  91:Middlewares/Third_Party/FreeRTOS/Source/portable/GCC/ARM_CM4F/portmacro.h **** #define portNVIC_PENDSVSET_BIT		( 1UL << 28UL )
  92:Middlewares/Third_Party/FreeRTOS/Source/portable/GCC/ARM_CM4F/portmacro.h **** #define portEND_SWITCHING_ISR( xSwitchRequired ) if( xSwitchRequired != pdFALSE ) portYIELD()
  93:Middlewares/Third_Party/FreeRTOS/Source/portable/GCC/ARM_CM4F/portmacro.h **** #define portYIELD_FROM_ISR( x ) portEND_SWITCHING_ISR( x )
  94:Middlewares/Third_Party/FreeRTOS/Source/portable/GCC/ARM_CM4F/portmacro.h **** /*-----------------------------------------------------------*/
  95:Middlewares/Third_Party/FreeRTOS/Source/portable/GCC/ARM_CM4F/portmacro.h **** 
  96:Middlewares/Third_Party/FreeRTOS/Source/portable/GCC/ARM_CM4F/portmacro.h **** /* Critical section management. */
  97:Middlewares/Third_Party/FreeRTOS/Source/portable/GCC/ARM_CM4F/portmacro.h **** extern void vPortEnterCritical( void );
  98:Middlewares/Third_Party/FreeRTOS/Source/portable/GCC/ARM_CM4F/portmacro.h **** extern void vPortExitCritical( void );
  99:Middlewares/Third_Party/FreeRTOS/Source/portable/GCC/ARM_CM4F/portmacro.h **** #define portSET_INTERRUPT_MASK_FROM_ISR()		ulPortRaiseBASEPRI()
 100:Middlewares/Third_Party/FreeRTOS/Source/portable/GCC/ARM_CM4F/portmacro.h **** #define portCLEAR_INTERRUPT_MASK_FROM_ISR(x)	vPortSetBASEPRI(x)
 101:Middlewares/Third_Party/FreeRTOS/Source/portable/GCC/ARM_CM4F/portmacro.h **** #define portDISABLE_INTERRUPTS()				vPortRaiseBASEPRI()
 102:Middlewares/Third_Party/FreeRTOS/Source/portable/GCC/ARM_CM4F/portmacro.h **** #define portENABLE_INTERRUPTS()					vPortSetBASEPRI(0)
 103:Middlewares/Third_Party/FreeRTOS/Source/portable/GCC/ARM_CM4F/portmacro.h **** #define portENTER_CRITICAL()					vPortEnterCritical()
 104:Middlewares/Third_Party/FreeRTOS/Source/portable/GCC/ARM_CM4F/portmacro.h **** #define portEXIT_CRITICAL()						vPortExitCritical()
 105:Middlewares/Third_Party/FreeRTOS/Source/portable/GCC/ARM_CM4F/portmacro.h **** 
 106:Middlewares/Third_Party/FreeRTOS/Source/portable/GCC/ARM_CM4F/portmacro.h **** /*-----------------------------------------------------------*/
 107:Middlewares/Third_Party/FreeRTOS/Source/portable/GCC/ARM_CM4F/portmacro.h **** 
 108:Middlewares/Third_Party/FreeRTOS/Source/portable/GCC/ARM_CM4F/portmacro.h **** /* Task function macros as described on the FreeRTOS.org WEB site.  These are
 109:Middlewares/Third_Party/FreeRTOS/Source/portable/GCC/ARM_CM4F/portmacro.h **** not necessary for to use this port.  They are defined so the common demo files
 110:Middlewares/Third_Party/FreeRTOS/Source/portable/GCC/ARM_CM4F/portmacro.h **** (which build with all the ports) will build. */
 111:Middlewares/Third_Party/FreeRTOS/Source/portable/GCC/ARM_CM4F/portmacro.h **** #define portTASK_FUNCTION_PROTO( vFunction, pvParameters ) void vFunction( void *pvParameters )
 112:Middlewares/Third_Party/FreeRTOS/Source/portable/GCC/ARM_CM4F/portmacro.h **** #define portTASK_FUNCTION( vFunction, pvParameters ) void vFunction( void *pvParameters )
 113:Middlewares/Third_Party/FreeRTOS/Source/portable/GCC/ARM_CM4F/portmacro.h **** /*-----------------------------------------------------------*/
 114:Middlewares/Third_Party/FreeRTOS/Source/portable/GCC/ARM_CM4F/portmacro.h **** 
 115:Middlewares/Third_Party/FreeRTOS/Source/portable/GCC/ARM_CM4F/portmacro.h **** /* Tickless idle/low power functionality. */
 116:Middlewares/Third_Party/FreeRTOS/Source/portable/GCC/ARM_CM4F/portmacro.h **** #ifndef portSUPPRESS_TICKS_AND_SLEEP
 117:Middlewares/Third_Party/FreeRTOS/Source/portable/GCC/ARM_CM4F/portmacro.h **** 	extern void vPortSuppressTicksAndSleep( TickType_t xExpectedIdleTime );
 118:Middlewares/Third_Party/FreeRTOS/Source/portable/GCC/ARM_CM4F/portmacro.h **** 	#define portSUPPRESS_TICKS_AND_SLEEP( xExpectedIdleTime ) vPortSuppressTicksAndSleep( xExpectedIdl
 119:Middlewares/Third_Party/FreeRTOS/Source/portable/GCC/ARM_CM4F/portmacro.h **** #endif
 120:Middlewares/Third_Party/FreeRTOS/Source/portable/GCC/ARM_CM4F/portmacro.h **** /*-----------------------------------------------------------*/
 121:Middlewares/Third_Party/FreeRTOS/Source/portable/GCC/ARM_CM4F/portmacro.h **** 
 122:Middlewares/Third_Party/FreeRTOS/Source/portable/GCC/ARM_CM4F/portmacro.h **** /* Architecture specific optimisations. */
 123:Middlewares/Third_Party/FreeRTOS/Source/portable/GCC/ARM_CM4F/portmacro.h **** #ifndef configUSE_PORT_OPTIMISED_TASK_SELECTION
 124:Middlewares/Third_Party/FreeRTOS/Source/portable/GCC/ARM_CM4F/portmacro.h **** 	#define configUSE_PORT_OPTIMISED_TASK_SELECTION 1
 125:Middlewares/Third_Party/FreeRTOS/Source/portable/GCC/ARM_CM4F/portmacro.h **** #endif
 126:Middlewares/Third_Party/FreeRTOS/Source/portable/GCC/ARM_CM4F/portmacro.h **** 
 127:Middlewares/Third_Party/FreeRTOS/Source/portable/GCC/ARM_CM4F/portmacro.h **** #if configUSE_PORT_OPTIMISED_TASK_SELECTION == 1
 128:Middlewares/Third_Party/FreeRTOS/Source/portable/GCC/ARM_CM4F/portmacro.h **** 
 129:Middlewares/Third_Party/FreeRTOS/Source/portable/GCC/ARM_CM4F/portmacro.h **** 	/* Generic helper function. */
 130:Middlewares/Third_Party/FreeRTOS/Source/portable/GCC/ARM_CM4F/portmacro.h **** 	__attribute__( ( always_inline ) ) static inline uint8_t ucPortCountLeadingZeros( uint32_t ulBitma
 131:Middlewares/Third_Party/FreeRTOS/Source/portable/GCC/ARM_CM4F/portmacro.h **** 	{
 132:Middlewares/Third_Party/FreeRTOS/Source/portable/GCC/ARM_CM4F/portmacro.h **** 	uint8_t ucReturn;
 133:Middlewares/Third_Party/FreeRTOS/Source/portable/GCC/ARM_CM4F/portmacro.h **** 
 134:Middlewares/Third_Party/FreeRTOS/Source/portable/GCC/ARM_CM4F/portmacro.h **** 		__asm volatile ( "clz %0, %1" : "=r" ( ucReturn ) : "r" ( ulBitmap ) : "memory" );
ARM GAS  C:\Users\EI\AppData\Local\Temp\cc6xPaa5.s 			page 9


 135:Middlewares/Third_Party/FreeRTOS/Source/portable/GCC/ARM_CM4F/portmacro.h **** 		return ucReturn;
 136:Middlewares/Third_Party/FreeRTOS/Source/portable/GCC/ARM_CM4F/portmacro.h **** 	}
 137:Middlewares/Third_Party/FreeRTOS/Source/portable/GCC/ARM_CM4F/portmacro.h **** 
 138:Middlewares/Third_Party/FreeRTOS/Source/portable/GCC/ARM_CM4F/portmacro.h **** 	/* Check the configuration. */
 139:Middlewares/Third_Party/FreeRTOS/Source/portable/GCC/ARM_CM4F/portmacro.h **** 	#if( configMAX_PRIORITIES > 32 )
 140:Middlewares/Third_Party/FreeRTOS/Source/portable/GCC/ARM_CM4F/portmacro.h **** 		#error configUSE_PORT_OPTIMISED_TASK_SELECTION can only be set to 1 when configMAX_PRIORITIES is 
 141:Middlewares/Third_Party/FreeRTOS/Source/portable/GCC/ARM_CM4F/portmacro.h **** 	#endif
 142:Middlewares/Third_Party/FreeRTOS/Source/portable/GCC/ARM_CM4F/portmacro.h **** 
 143:Middlewares/Third_Party/FreeRTOS/Source/portable/GCC/ARM_CM4F/portmacro.h **** 	/* Store/clear the ready priorities in a bit map. */
 144:Middlewares/Third_Party/FreeRTOS/Source/portable/GCC/ARM_CM4F/portmacro.h **** 	#define portRECORD_READY_PRIORITY( uxPriority, uxReadyPriorities ) ( uxReadyPriorities ) |= ( 1UL 
 145:Middlewares/Third_Party/FreeRTOS/Source/portable/GCC/ARM_CM4F/portmacro.h **** 	#define portRESET_READY_PRIORITY( uxPriority, uxReadyPriorities ) ( uxReadyPriorities ) &= ~( 1UL 
 146:Middlewares/Third_Party/FreeRTOS/Source/portable/GCC/ARM_CM4F/portmacro.h **** 
 147:Middlewares/Third_Party/FreeRTOS/Source/portable/GCC/ARM_CM4F/portmacro.h **** 	/*-----------------------------------------------------------*/
 148:Middlewares/Third_Party/FreeRTOS/Source/portable/GCC/ARM_CM4F/portmacro.h **** 
 149:Middlewares/Third_Party/FreeRTOS/Source/portable/GCC/ARM_CM4F/portmacro.h **** 	#define portGET_HIGHEST_PRIORITY( uxTopPriority, uxReadyPriorities ) uxTopPriority = ( 31UL - ( ui
 150:Middlewares/Third_Party/FreeRTOS/Source/portable/GCC/ARM_CM4F/portmacro.h **** 
 151:Middlewares/Third_Party/FreeRTOS/Source/portable/GCC/ARM_CM4F/portmacro.h **** #endif /* configUSE_PORT_OPTIMISED_TASK_SELECTION */
 152:Middlewares/Third_Party/FreeRTOS/Source/portable/GCC/ARM_CM4F/portmacro.h **** 
 153:Middlewares/Third_Party/FreeRTOS/Source/portable/GCC/ARM_CM4F/portmacro.h **** /*-----------------------------------------------------------*/
 154:Middlewares/Third_Party/FreeRTOS/Source/portable/GCC/ARM_CM4F/portmacro.h **** 
 155:Middlewares/Third_Party/FreeRTOS/Source/portable/GCC/ARM_CM4F/portmacro.h **** #ifdef configASSERT
 156:Middlewares/Third_Party/FreeRTOS/Source/portable/GCC/ARM_CM4F/portmacro.h **** 	void vPortValidateInterruptPriority( void );
 157:Middlewares/Third_Party/FreeRTOS/Source/portable/GCC/ARM_CM4F/portmacro.h **** 	#define portASSERT_IF_INTERRUPT_PRIORITY_INVALID() 	vPortValidateInterruptPriority()
 158:Middlewares/Third_Party/FreeRTOS/Source/portable/GCC/ARM_CM4F/portmacro.h **** #endif
 159:Middlewares/Third_Party/FreeRTOS/Source/portable/GCC/ARM_CM4F/portmacro.h **** 
 160:Middlewares/Third_Party/FreeRTOS/Source/portable/GCC/ARM_CM4F/portmacro.h **** /* portNOP() is not required by this port. */
 161:Middlewares/Third_Party/FreeRTOS/Source/portable/GCC/ARM_CM4F/portmacro.h **** #define portNOP()
 162:Middlewares/Third_Party/FreeRTOS/Source/portable/GCC/ARM_CM4F/portmacro.h **** 
 163:Middlewares/Third_Party/FreeRTOS/Source/portable/GCC/ARM_CM4F/portmacro.h **** #define portINLINE	__inline
 164:Middlewares/Third_Party/FreeRTOS/Source/portable/GCC/ARM_CM4F/portmacro.h **** 
 165:Middlewares/Third_Party/FreeRTOS/Source/portable/GCC/ARM_CM4F/portmacro.h **** #ifndef portFORCE_INLINE
 166:Middlewares/Third_Party/FreeRTOS/Source/portable/GCC/ARM_CM4F/portmacro.h **** 	#define portFORCE_INLINE inline __attribute__(( always_inline))
 167:Middlewares/Third_Party/FreeRTOS/Source/portable/GCC/ARM_CM4F/portmacro.h **** #endif
 168:Middlewares/Third_Party/FreeRTOS/Source/portable/GCC/ARM_CM4F/portmacro.h **** 
 169:Middlewares/Third_Party/FreeRTOS/Source/portable/GCC/ARM_CM4F/portmacro.h **** portFORCE_INLINE static BaseType_t xPortIsInsideInterrupt( void )
 170:Middlewares/Third_Party/FreeRTOS/Source/portable/GCC/ARM_CM4F/portmacro.h **** {
 171:Middlewares/Third_Party/FreeRTOS/Source/portable/GCC/ARM_CM4F/portmacro.h **** uint32_t ulCurrentInterrupt;
 172:Middlewares/Third_Party/FreeRTOS/Source/portable/GCC/ARM_CM4F/portmacro.h **** BaseType_t xReturn;
 173:Middlewares/Third_Party/FreeRTOS/Source/portable/GCC/ARM_CM4F/portmacro.h **** 
 174:Middlewares/Third_Party/FreeRTOS/Source/portable/GCC/ARM_CM4F/portmacro.h **** 	/* Obtain the number of the currently executing interrupt. */
 175:Middlewares/Third_Party/FreeRTOS/Source/portable/GCC/ARM_CM4F/portmacro.h **** 	__asm volatile( "mrs %0, ipsr" : "=r"( ulCurrentInterrupt ) :: "memory" );
 176:Middlewares/Third_Party/FreeRTOS/Source/portable/GCC/ARM_CM4F/portmacro.h **** 
 177:Middlewares/Third_Party/FreeRTOS/Source/portable/GCC/ARM_CM4F/portmacro.h **** 	if( ulCurrentInterrupt == 0 )
 178:Middlewares/Third_Party/FreeRTOS/Source/portable/GCC/ARM_CM4F/portmacro.h **** 	{
 179:Middlewares/Third_Party/FreeRTOS/Source/portable/GCC/ARM_CM4F/portmacro.h **** 		xReturn = pdFALSE;
 180:Middlewares/Third_Party/FreeRTOS/Source/portable/GCC/ARM_CM4F/portmacro.h **** 	}
 181:Middlewares/Third_Party/FreeRTOS/Source/portable/GCC/ARM_CM4F/portmacro.h **** 	else
 182:Middlewares/Third_Party/FreeRTOS/Source/portable/GCC/ARM_CM4F/portmacro.h **** 	{
 183:Middlewares/Third_Party/FreeRTOS/Source/portable/GCC/ARM_CM4F/portmacro.h **** 		xReturn = pdTRUE;
 184:Middlewares/Third_Party/FreeRTOS/Source/portable/GCC/ARM_CM4F/portmacro.h **** 	}
 185:Middlewares/Third_Party/FreeRTOS/Source/portable/GCC/ARM_CM4F/portmacro.h **** 
 186:Middlewares/Third_Party/FreeRTOS/Source/portable/GCC/ARM_CM4F/portmacro.h **** 	return xReturn;
 187:Middlewares/Third_Party/FreeRTOS/Source/portable/GCC/ARM_CM4F/portmacro.h **** }
 188:Middlewares/Third_Party/FreeRTOS/Source/portable/GCC/ARM_CM4F/portmacro.h **** 
 189:Middlewares/Third_Party/FreeRTOS/Source/portable/GCC/ARM_CM4F/portmacro.h **** /*-----------------------------------------------------------*/
 190:Middlewares/Third_Party/FreeRTOS/Source/portable/GCC/ARM_CM4F/portmacro.h **** 
 191:Middlewares/Third_Party/FreeRTOS/Source/portable/GCC/ARM_CM4F/portmacro.h **** portFORCE_INLINE static void vPortRaiseBASEPRI( void )
ARM GAS  C:\Users\EI\AppData\Local\Temp\cc6xPaa5.s 			page 10


 192:Middlewares/Third_Party/FreeRTOS/Source/portable/GCC/ARM_CM4F/portmacro.h **** {
 193:Middlewares/Third_Party/FreeRTOS/Source/portable/GCC/ARM_CM4F/portmacro.h **** uint32_t ulNewBASEPRI;
 194:Middlewares/Third_Party/FreeRTOS/Source/portable/GCC/ARM_CM4F/portmacro.h **** 
 195:Middlewares/Third_Party/FreeRTOS/Source/portable/GCC/ARM_CM4F/portmacro.h **** 	__asm volatile
  63              		.loc 2 195 2
  64              		.syntax unified
  65              	@ 195 "Middlewares/Third_Party/FreeRTOS/Source/portable/GCC/ARM_CM4F/portmacro.h" 1
  66 0014 4FF05003 			mov r3, #80												
  67 0018 83F31188 		msr basepri, r3											
  68 001c BFF36F8F 		isb														
  69 0020 BFF34F8F 		dsb														
  70              	
  71              	@ 0 "" 2
  72              		.thumb
  73              		.syntax unified
  74 0024 BB60     		str	r3, [r7, #8]
 196:Middlewares/Third_Party/FreeRTOS/Source/portable/GCC/ARM_CM4F/portmacro.h **** 	(
 197:Middlewares/Third_Party/FreeRTOS/Source/portable/GCC/ARM_CM4F/portmacro.h **** 		"	mov %0, %1												\n"	\
 198:Middlewares/Third_Party/FreeRTOS/Source/portable/GCC/ARM_CM4F/portmacro.h **** 		"	msr basepri, %0											\n" \
 199:Middlewares/Third_Party/FreeRTOS/Source/portable/GCC/ARM_CM4F/portmacro.h **** 		"	isb														\n" \
 200:Middlewares/Third_Party/FreeRTOS/Source/portable/GCC/ARM_CM4F/portmacro.h **** 		"	dsb														\n" \
 201:Middlewares/Third_Party/FreeRTOS/Source/portable/GCC/ARM_CM4F/portmacro.h **** 		:"=r" (ulNewBASEPRI) : "i" ( configMAX_SYSCALL_INTERRUPT_PRIORITY ) : "memory"
 202:Middlewares/Third_Party/FreeRTOS/Source/portable/GCC/ARM_CM4F/portmacro.h **** 	);
 203:Middlewares/Third_Party/FreeRTOS/Source/portable/GCC/ARM_CM4F/portmacro.h **** }
  75              		.loc 2 203 1
  76 0026 00BF     		nop
  77              	.L3:
  78              	.LBE119:
  79              	.LBE118:
  80              		.loc 1 259 2 discriminator 1
  81 0028 FEE7     		b	.L3
  82              	.L2:
 260:Middlewares/Third_Party/FreeRTOS/Source/queue.c **** 
 261:Middlewares/Third_Party/FreeRTOS/Source/queue.c **** 	taskENTER_CRITICAL();
  83              		.loc 1 261 2
  84 002a FFF7FEFF 		bl	vPortEnterCritical
 262:Middlewares/Third_Party/FreeRTOS/Source/queue.c **** 	{
 263:Middlewares/Third_Party/FreeRTOS/Source/queue.c **** 		pxQueue->u.xQueue.pcTail = pxQueue->pcHead + ( pxQueue->uxLength * pxQueue->uxItemSize ); /*lint 
  85              		.loc 1 263 37
  86 002e FB68     		ldr	r3, [r7, #12]
  87 0030 1A68     		ldr	r2, [r3]
  88              		.loc 1 263 57
  89 0032 FB68     		ldr	r3, [r7, #12]
  90 0034 DB6B     		ldr	r3, [r3, #60]
  91              		.loc 1 263 77
  92 0036 F968     		ldr	r1, [r7, #12]
  93 0038 096C     		ldr	r1, [r1, #64]
  94              		.loc 1 263 68
  95 003a 01FB03F3 		mul	r3, r1, r3
  96              		.loc 1 263 46
  97 003e 1A44     		add	r2, r2, r3
  98              		.loc 1 263 28
  99 0040 FB68     		ldr	r3, [r7, #12]
 100 0042 9A60     		str	r2, [r3, #8]
 264:Middlewares/Third_Party/FreeRTOS/Source/queue.c **** 		pxQueue->uxMessagesWaiting = ( UBaseType_t ) 0U;
 101              		.loc 1 264 30
 102 0044 FB68     		ldr	r3, [r7, #12]
ARM GAS  C:\Users\EI\AppData\Local\Temp\cc6xPaa5.s 			page 11


 103 0046 0022     		movs	r2, #0
 104 0048 9A63     		str	r2, [r3, #56]
 265:Middlewares/Third_Party/FreeRTOS/Source/queue.c **** 		pxQueue->pcWriteTo = pxQueue->pcHead;
 105              		.loc 1 265 31
 106 004a FB68     		ldr	r3, [r7, #12]
 107 004c 1A68     		ldr	r2, [r3]
 108              		.loc 1 265 22
 109 004e FB68     		ldr	r3, [r7, #12]
 110 0050 5A60     		str	r2, [r3, #4]
 266:Middlewares/Third_Party/FreeRTOS/Source/queue.c **** 		pxQueue->u.xQueue.pcReadFrom = pxQueue->pcHead + ( ( pxQueue->uxLength - 1U ) * pxQueue->uxItemSi
 111              		.loc 1 266 41
 112 0052 FB68     		ldr	r3, [r7, #12]
 113 0054 1A68     		ldr	r2, [r3]
 114              		.loc 1 266 63
 115 0056 FB68     		ldr	r3, [r7, #12]
 116 0058 DB6B     		ldr	r3, [r3, #60]
 117              		.loc 1 266 74
 118 005a 013B     		subs	r3, r3, #1
 119              		.loc 1 266 90
 120 005c F968     		ldr	r1, [r7, #12]
 121 005e 096C     		ldr	r1, [r1, #64]
 122              		.loc 1 266 81
 123 0060 01FB03F3 		mul	r3, r1, r3
 124              		.loc 1 266 50
 125 0064 1A44     		add	r2, r2, r3
 126              		.loc 1 266 32
 127 0066 FB68     		ldr	r3, [r7, #12]
 128 0068 DA60     		str	r2, [r3, #12]
 267:Middlewares/Third_Party/FreeRTOS/Source/queue.c **** 		pxQueue->cRxLock = queueUNLOCKED;
 129              		.loc 1 267 20
 130 006a FB68     		ldr	r3, [r7, #12]
 131 006c FF22     		movs	r2, #255
 132 006e 83F84420 		strb	r2, [r3, #68]
 268:Middlewares/Third_Party/FreeRTOS/Source/queue.c **** 		pxQueue->cTxLock = queueUNLOCKED;
 133              		.loc 1 268 20
 134 0072 FB68     		ldr	r3, [r7, #12]
 135 0074 FF22     		movs	r2, #255
 136 0076 83F84520 		strb	r2, [r3, #69]
 269:Middlewares/Third_Party/FreeRTOS/Source/queue.c **** 
 270:Middlewares/Third_Party/FreeRTOS/Source/queue.c **** 		if( xNewQueue == pdFALSE )
 137              		.loc 1 270 5
 138 007a 3B68     		ldr	r3, [r7]
 139 007c 002B     		cmp	r3, #0
 140 007e 14D1     		bne	.L4
 271:Middlewares/Third_Party/FreeRTOS/Source/queue.c **** 		{
 272:Middlewares/Third_Party/FreeRTOS/Source/queue.c **** 			/* If there are tasks blocked waiting to read from the queue, then
 273:Middlewares/Third_Party/FreeRTOS/Source/queue.c **** 			the tasks will remain blocked as after this function exits the queue
 274:Middlewares/Third_Party/FreeRTOS/Source/queue.c **** 			will still be empty.  If there are tasks blocked waiting to write to
 275:Middlewares/Third_Party/FreeRTOS/Source/queue.c **** 			the queue, then one should be unblocked as after this function exits
 276:Middlewares/Third_Party/FreeRTOS/Source/queue.c **** 			it will be possible to write to it. */
 277:Middlewares/Third_Party/FreeRTOS/Source/queue.c **** 			if( listLIST_IS_EMPTY( &( pxQueue->xTasksWaitingToSend ) ) == pdFALSE )
 141              		.loc 1 277 8
 142 0080 FB68     		ldr	r3, [r7, #12]
 143 0082 1B69     		ldr	r3, [r3, #16]
 144              		.loc 1 277 6
 145 0084 002B     		cmp	r3, #0
 146 0086 1AD0     		beq	.L5
ARM GAS  C:\Users\EI\AppData\Local\Temp\cc6xPaa5.s 			page 12


 278:Middlewares/Third_Party/FreeRTOS/Source/queue.c **** 			{
 279:Middlewares/Third_Party/FreeRTOS/Source/queue.c **** 				if( xTaskRemoveFromEventList( &( pxQueue->xTasksWaitingToSend ) ) != pdFALSE )
 147              		.loc 1 279 35
 148 0088 FB68     		ldr	r3, [r7, #12]
 149 008a 1033     		adds	r3, r3, #16
 150              		.loc 1 279 9
 151 008c 1846     		mov	r0, r3
 152 008e FFF7FEFF 		bl	xTaskRemoveFromEventList
 153 0092 0346     		mov	r3, r0
 154              		.loc 1 279 7
 155 0094 002B     		cmp	r3, #0
 156 0096 12D0     		beq	.L5
 280:Middlewares/Third_Party/FreeRTOS/Source/queue.c **** 				{
 281:Middlewares/Third_Party/FreeRTOS/Source/queue.c **** 					queueYIELD_IF_USING_PREEMPTION();
 157              		.loc 1 281 6
 158 0098 0C4B     		ldr	r3, .L7
 159 009a 4FF08052 		mov	r2, #268435456
 160 009e 1A60     		str	r2, [r3]
 161              		.syntax unified
 162              	@ 281 "Middlewares/Third_Party/FreeRTOS/Source/queue.c" 1
 163 00a0 BFF34F8F 		dsb
 164              	@ 0 "" 2
 165              	@ 281 "Middlewares/Third_Party/FreeRTOS/Source/queue.c" 1
 166 00a4 BFF36F8F 		isb
 167              	@ 0 "" 2
 168              		.thumb
 169              		.syntax unified
 170 00a8 09E0     		b	.L5
 171              	.L4:
 282:Middlewares/Third_Party/FreeRTOS/Source/queue.c **** 				}
 283:Middlewares/Third_Party/FreeRTOS/Source/queue.c **** 				else
 284:Middlewares/Third_Party/FreeRTOS/Source/queue.c **** 				{
 285:Middlewares/Third_Party/FreeRTOS/Source/queue.c **** 					mtCOVERAGE_TEST_MARKER();
 286:Middlewares/Third_Party/FreeRTOS/Source/queue.c **** 				}
 287:Middlewares/Third_Party/FreeRTOS/Source/queue.c **** 			}
 288:Middlewares/Third_Party/FreeRTOS/Source/queue.c **** 			else
 289:Middlewares/Third_Party/FreeRTOS/Source/queue.c **** 			{
 290:Middlewares/Third_Party/FreeRTOS/Source/queue.c **** 				mtCOVERAGE_TEST_MARKER();
 291:Middlewares/Third_Party/FreeRTOS/Source/queue.c **** 			}
 292:Middlewares/Third_Party/FreeRTOS/Source/queue.c **** 		}
 293:Middlewares/Third_Party/FreeRTOS/Source/queue.c **** 		else
 294:Middlewares/Third_Party/FreeRTOS/Source/queue.c **** 		{
 295:Middlewares/Third_Party/FreeRTOS/Source/queue.c **** 			/* Ensure the event queues start in the correct state. */
 296:Middlewares/Third_Party/FreeRTOS/Source/queue.c **** 			vListInitialise( &( pxQueue->xTasksWaitingToSend ) );
 172              		.loc 1 296 4
 173 00aa FB68     		ldr	r3, [r7, #12]
 174 00ac 1033     		adds	r3, r3, #16
 175 00ae 1846     		mov	r0, r3
 176 00b0 FFF7FEFF 		bl	vListInitialise
 297:Middlewares/Third_Party/FreeRTOS/Source/queue.c **** 			vListInitialise( &( pxQueue->xTasksWaitingToReceive ) );
 177              		.loc 1 297 4
 178 00b4 FB68     		ldr	r3, [r7, #12]
 179 00b6 2433     		adds	r3, r3, #36
 180 00b8 1846     		mov	r0, r3
 181 00ba FFF7FEFF 		bl	vListInitialise
 182              	.L5:
 298:Middlewares/Third_Party/FreeRTOS/Source/queue.c **** 		}
ARM GAS  C:\Users\EI\AppData\Local\Temp\cc6xPaa5.s 			page 13


 299:Middlewares/Third_Party/FreeRTOS/Source/queue.c **** 	}
 300:Middlewares/Third_Party/FreeRTOS/Source/queue.c **** 	taskEXIT_CRITICAL();
 183              		.loc 1 300 2
 184 00be FFF7FEFF 		bl	vPortExitCritical
 301:Middlewares/Third_Party/FreeRTOS/Source/queue.c **** 
 302:Middlewares/Third_Party/FreeRTOS/Source/queue.c **** 	/* A value is returned for calling semantic consistency with previous
 303:Middlewares/Third_Party/FreeRTOS/Source/queue.c **** 	versions. */
 304:Middlewares/Third_Party/FreeRTOS/Source/queue.c **** 	return pdPASS;
 185              		.loc 1 304 9
 186 00c2 0123     		movs	r3, #1
 305:Middlewares/Third_Party/FreeRTOS/Source/queue.c **** }
 187              		.loc 1 305 1
 188 00c4 1846     		mov	r0, r3
 189 00c6 1037     		adds	r7, r7, #16
 190              	.LCFI3:
 191              		.cfi_def_cfa_offset 8
 192 00c8 BD46     		mov	sp, r7
 193              	.LCFI4:
 194              		.cfi_def_cfa_register 13
 195              		@ sp needed
 196 00ca 80BD     		pop	{r7, pc}
 197              	.L8:
 198              		.align	2
 199              	.L7:
 200 00cc 04ED00E0 		.word	-536810236
 201              		.cfi_endproc
 202              	.LFE4:
 204              		.section	.text.xQueueGenericCreateStatic,"ax",%progbits
 205              		.align	1
 206              		.global	xQueueGenericCreateStatic
 207              		.syntax unified
 208              		.thumb
 209              		.thumb_func
 210              		.fpu fpv4-sp-d16
 212              	xQueueGenericCreateStatic:
 213              	.LFB5:
 306:Middlewares/Third_Party/FreeRTOS/Source/queue.c **** /*-----------------------------------------------------------*/
 307:Middlewares/Third_Party/FreeRTOS/Source/queue.c **** 
 308:Middlewares/Third_Party/FreeRTOS/Source/queue.c **** #if( configSUPPORT_STATIC_ALLOCATION == 1 )
 309:Middlewares/Third_Party/FreeRTOS/Source/queue.c **** 
 310:Middlewares/Third_Party/FreeRTOS/Source/queue.c **** 	QueueHandle_t xQueueGenericCreateStatic( const UBaseType_t uxQueueLength, const UBaseType_t uxItem
 311:Middlewares/Third_Party/FreeRTOS/Source/queue.c **** 	{
 214              		.loc 1 311 2
 215              		.cfi_startproc
 216              		@ args = 4, pretend = 0, frame = 48
 217              		@ frame_needed = 1, uses_anonymous_args = 0
 218 0000 80B5     		push	{r7, lr}
 219              	.LCFI5:
 220              		.cfi_def_cfa_offset 8
 221              		.cfi_offset 7, -8
 222              		.cfi_offset 14, -4
 223 0002 8EB0     		sub	sp, sp, #56
 224              	.LCFI6:
 225              		.cfi_def_cfa_offset 64
 226 0004 02AF     		add	r7, sp, #8
 227              	.LCFI7:
 228              		.cfi_def_cfa 7, 56
ARM GAS  C:\Users\EI\AppData\Local\Temp\cc6xPaa5.s 			page 14


 229 0006 F860     		str	r0, [r7, #12]
 230 0008 B960     		str	r1, [r7, #8]
 231 000a 7A60     		str	r2, [r7, #4]
 232 000c 3B60     		str	r3, [r7]
 312:Middlewares/Third_Party/FreeRTOS/Source/queue.c **** 	Queue_t *pxNewQueue;
 313:Middlewares/Third_Party/FreeRTOS/Source/queue.c **** 
 314:Middlewares/Third_Party/FreeRTOS/Source/queue.c **** 		configASSERT( uxQueueLength > ( UBaseType_t ) 0 );
 233              		.loc 1 314 3
 234 000e FB68     		ldr	r3, [r7, #12]
 235 0010 002B     		cmp	r3, #0
 236 0012 0AD1     		bne	.L10
 237              	.LBB120:
 238              	.LBB121:
 195:Middlewares/Third_Party/FreeRTOS/Source/portable/GCC/ARM_CM4F/portmacro.h **** 	(
 239              		.loc 2 195 2
 240              		.syntax unified
 241              	@ 195 "Middlewares/Third_Party/FreeRTOS/Source/portable/GCC/ARM_CM4F/portmacro.h" 1
 242 0014 4FF05003 			mov r3, #80												
 243 0018 83F31188 		msr basepri, r3											
 244 001c BFF36F8F 		isb														
 245 0020 BFF34F8F 		dsb														
 246              	
 247              	@ 0 "" 2
 248              		.thumb
 249              		.syntax unified
 250 0024 BB62     		str	r3, [r7, #40]
 251              		.loc 2 203 1
 252 0026 00BF     		nop
 253              	.L11:
 254              	.LBE121:
 255              	.LBE120:
 256              		.loc 1 314 3 discriminator 1
 257 0028 FEE7     		b	.L11
 258              	.L10:
 315:Middlewares/Third_Party/FreeRTOS/Source/queue.c **** 
 316:Middlewares/Third_Party/FreeRTOS/Source/queue.c **** 		/* The StaticQueue_t structure and the queue storage area must be
 317:Middlewares/Third_Party/FreeRTOS/Source/queue.c **** 		supplied. */
 318:Middlewares/Third_Party/FreeRTOS/Source/queue.c **** 		configASSERT( pxStaticQueue != NULL );
 259              		.loc 1 318 3
 260 002a 3B68     		ldr	r3, [r7]
 261 002c 002B     		cmp	r3, #0
 262 002e 0AD1     		bne	.L12
 263              	.LBB122:
 264              	.LBB123:
 195:Middlewares/Third_Party/FreeRTOS/Source/portable/GCC/ARM_CM4F/portmacro.h **** 	(
 265              		.loc 2 195 2
 266              		.syntax unified
 267              	@ 195 "Middlewares/Third_Party/FreeRTOS/Source/portable/GCC/ARM_CM4F/portmacro.h" 1
 268 0030 4FF05003 			mov r3, #80												
 269 0034 83F31188 		msr basepri, r3											
 270 0038 BFF36F8F 		isb														
 271 003c BFF34F8F 		dsb														
 272              	
 273              	@ 0 "" 2
 274              		.thumb
 275              		.syntax unified
 276 0040 7B62     		str	r3, [r7, #36]
ARM GAS  C:\Users\EI\AppData\Local\Temp\cc6xPaa5.s 			page 15


 277              		.loc 2 203 1
 278 0042 00BF     		nop
 279              	.L13:
 280              	.LBE123:
 281              	.LBE122:
 282              		.loc 1 318 3 discriminator 2
 283 0044 FEE7     		b	.L13
 284              	.L12:
 319:Middlewares/Third_Party/FreeRTOS/Source/queue.c **** 
 320:Middlewares/Third_Party/FreeRTOS/Source/queue.c **** 		/* A queue storage area should be provided if the item size is not 0, and
 321:Middlewares/Third_Party/FreeRTOS/Source/queue.c **** 		should not be provided if the item size is 0. */
 322:Middlewares/Third_Party/FreeRTOS/Source/queue.c **** 		configASSERT( !( ( pucQueueStorage != NULL ) && ( uxItemSize == 0 ) ) );
 285              		.loc 1 322 3
 286 0046 7B68     		ldr	r3, [r7, #4]
 287 0048 002B     		cmp	r3, #0
 288 004a 02D0     		beq	.L14
 289              		.loc 1 322 3 is_stmt 0 discriminator 2
 290 004c BB68     		ldr	r3, [r7, #8]
 291 004e 002B     		cmp	r3, #0
 292 0050 01D0     		beq	.L15
 293              	.L14:
 294              		.loc 1 322 3 discriminator 3
 295 0052 0123     		movs	r3, #1
 296 0054 00E0     		b	.L16
 297              	.L15:
 298              		.loc 1 322 3 discriminator 4
 299 0056 0023     		movs	r3, #0
 300              	.L16:
 301              		.loc 1 322 3 discriminator 6
 302 0058 002B     		cmp	r3, #0
 303 005a 0AD1     		bne	.L17
 304              	.LBB124:
 305              	.LBB125:
 195:Middlewares/Third_Party/FreeRTOS/Source/portable/GCC/ARM_CM4F/portmacro.h **** 	(
 306              		.loc 2 195 2 is_stmt 1
 307              		.syntax unified
 308              	@ 195 "Middlewares/Third_Party/FreeRTOS/Source/portable/GCC/ARM_CM4F/portmacro.h" 1
 309 005c 4FF05003 			mov r3, #80												
 310 0060 83F31188 		msr basepri, r3											
 311 0064 BFF36F8F 		isb														
 312 0068 BFF34F8F 		dsb														
 313              	
 314              	@ 0 "" 2
 315              		.thumb
 316              		.syntax unified
 317 006c 3B62     		str	r3, [r7, #32]
 318              		.loc 2 203 1
 319 006e 00BF     		nop
 320              	.L18:
 321              	.LBE125:
 322              	.LBE124:
 323              		.loc 1 322 3 discriminator 3
 324 0070 FEE7     		b	.L18
 325              	.L17:
 323:Middlewares/Third_Party/FreeRTOS/Source/queue.c **** 		configASSERT( !( ( pucQueueStorage == NULL ) && ( uxItemSize != 0 ) ) );
 326              		.loc 1 323 3
 327 0072 7B68     		ldr	r3, [r7, #4]
ARM GAS  C:\Users\EI\AppData\Local\Temp\cc6xPaa5.s 			page 16


 328 0074 002B     		cmp	r3, #0
 329 0076 02D1     		bne	.L19
 330              		.loc 1 323 3 is_stmt 0 discriminator 2
 331 0078 BB68     		ldr	r3, [r7, #8]
 332 007a 002B     		cmp	r3, #0
 333 007c 01D1     		bne	.L20
 334              	.L19:
 335              		.loc 1 323 3 discriminator 3
 336 007e 0123     		movs	r3, #1
 337 0080 00E0     		b	.L21
 338              	.L20:
 339              		.loc 1 323 3 discriminator 4
 340 0082 0023     		movs	r3, #0
 341              	.L21:
 342              		.loc 1 323 3 discriminator 6
 343 0084 002B     		cmp	r3, #0
 344 0086 0AD1     		bne	.L22
 345              	.LBB126:
 346              	.LBB127:
 195:Middlewares/Third_Party/FreeRTOS/Source/portable/GCC/ARM_CM4F/portmacro.h **** 	(
 347              		.loc 2 195 2 is_stmt 1
 348              		.syntax unified
 349              	@ 195 "Middlewares/Third_Party/FreeRTOS/Source/portable/GCC/ARM_CM4F/portmacro.h" 1
 350 0088 4FF05003 			mov r3, #80												
 351 008c 83F31188 		msr basepri, r3											
 352 0090 BFF36F8F 		isb														
 353 0094 BFF34F8F 		dsb														
 354              	
 355              	@ 0 "" 2
 356              		.thumb
 357              		.syntax unified
 358 0098 FB61     		str	r3, [r7, #28]
 359              		.loc 2 203 1
 360 009a 00BF     		nop
 361              	.L23:
 362              	.LBE127:
 363              	.LBE126:
 364              		.loc 1 323 3 discriminator 4
 365 009c FEE7     		b	.L23
 366              	.L22:
 367              	.LBB128:
 324:Middlewares/Third_Party/FreeRTOS/Source/queue.c **** 
 325:Middlewares/Third_Party/FreeRTOS/Source/queue.c **** 		#if( configASSERT_DEFINED == 1 )
 326:Middlewares/Third_Party/FreeRTOS/Source/queue.c **** 		{
 327:Middlewares/Third_Party/FreeRTOS/Source/queue.c **** 			/* Sanity check that the size of the structure used to declare a
 328:Middlewares/Third_Party/FreeRTOS/Source/queue.c **** 			variable of type StaticQueue_t or StaticSemaphore_t equals the size of
 329:Middlewares/Third_Party/FreeRTOS/Source/queue.c **** 			the real queue and semaphore structures. */
 330:Middlewares/Third_Party/FreeRTOS/Source/queue.c **** 			volatile size_t xSize = sizeof( StaticQueue_t );
 368              		.loc 1 330 20
 369 009e 5023     		movs	r3, #80
 370 00a0 7B61     		str	r3, [r7, #20]
 331:Middlewares/Third_Party/FreeRTOS/Source/queue.c **** 			configASSERT( xSize == sizeof( Queue_t ) );
 371              		.loc 1 331 4
 372 00a2 7B69     		ldr	r3, [r7, #20]
 373 00a4 502B     		cmp	r3, #80
 374 00a6 0AD0     		beq	.L24
 375              	.LBB129:
ARM GAS  C:\Users\EI\AppData\Local\Temp\cc6xPaa5.s 			page 17


 376              	.LBB130:
 195:Middlewares/Third_Party/FreeRTOS/Source/portable/GCC/ARM_CM4F/portmacro.h **** 	(
 377              		.loc 2 195 2
 378              		.syntax unified
 379              	@ 195 "Middlewares/Third_Party/FreeRTOS/Source/portable/GCC/ARM_CM4F/portmacro.h" 1
 380 00a8 4FF05003 			mov r3, #80												
 381 00ac 83F31188 		msr basepri, r3											
 382 00b0 BFF36F8F 		isb														
 383 00b4 BFF34F8F 		dsb														
 384              	
 385              	@ 0 "" 2
 386              		.thumb
 387              		.syntax unified
 388 00b8 BB61     		str	r3, [r7, #24]
 389              		.loc 2 203 1
 390 00ba 00BF     		nop
 391              	.L25:
 392              	.LBE130:
 393              	.LBE129:
 394              		.loc 1 331 4 discriminator 5
 395 00bc FEE7     		b	.L25
 396              	.L24:
 332:Middlewares/Third_Party/FreeRTOS/Source/queue.c **** 			( void ) xSize; /* Keeps lint quiet when configASSERT() is not defined. */
 397              		.loc 1 332 4
 398 00be 7B69     		ldr	r3, [r7, #20]
 399              	.LBE128:
 333:Middlewares/Third_Party/FreeRTOS/Source/queue.c **** 		}
 334:Middlewares/Third_Party/FreeRTOS/Source/queue.c **** 		#endif /* configASSERT_DEFINED */
 335:Middlewares/Third_Party/FreeRTOS/Source/queue.c **** 
 336:Middlewares/Third_Party/FreeRTOS/Source/queue.c **** 		/* The address of a statically allocated queue was passed in, use it.
 337:Middlewares/Third_Party/FreeRTOS/Source/queue.c **** 		The address of a statically allocated storage area was also passed in
 338:Middlewares/Third_Party/FreeRTOS/Source/queue.c **** 		but is already set. */
 339:Middlewares/Third_Party/FreeRTOS/Source/queue.c **** 		pxNewQueue = ( Queue_t * ) pxStaticQueue; /*lint !e740 !e9087 Unusual cast is ok as the structure
 400              		.loc 1 339 14
 401 00c0 3B68     		ldr	r3, [r7]
 402 00c2 FB62     		str	r3, [r7, #44]
 340:Middlewares/Third_Party/FreeRTOS/Source/queue.c **** 
 341:Middlewares/Third_Party/FreeRTOS/Source/queue.c **** 		if( pxNewQueue != NULL )
 403              		.loc 1 341 5
 404 00c4 FB6A     		ldr	r3, [r7, #44]
 405 00c6 002B     		cmp	r3, #0
 406 00c8 0DD0     		beq	.L26
 342:Middlewares/Third_Party/FreeRTOS/Source/queue.c **** 		{
 343:Middlewares/Third_Party/FreeRTOS/Source/queue.c **** 			#if( configSUPPORT_DYNAMIC_ALLOCATION == 1 )
 344:Middlewares/Third_Party/FreeRTOS/Source/queue.c **** 			{
 345:Middlewares/Third_Party/FreeRTOS/Source/queue.c **** 				/* Queues can be allocated wither statically or dynamically, so
 346:Middlewares/Third_Party/FreeRTOS/Source/queue.c **** 				note this queue was allocated statically in case the queue is
 347:Middlewares/Third_Party/FreeRTOS/Source/queue.c **** 				later deleted. */
 348:Middlewares/Third_Party/FreeRTOS/Source/queue.c **** 				pxNewQueue->ucStaticallyAllocated = pdTRUE;
 407              		.loc 1 348 39
 408 00ca FB6A     		ldr	r3, [r7, #44]
 409 00cc 0122     		movs	r2, #1
 410 00ce 83F84620 		strb	r2, [r3, #70]
 349:Middlewares/Third_Party/FreeRTOS/Source/queue.c **** 			}
 350:Middlewares/Third_Party/FreeRTOS/Source/queue.c **** 			#endif /* configSUPPORT_DYNAMIC_ALLOCATION */
 351:Middlewares/Third_Party/FreeRTOS/Source/queue.c **** 
 352:Middlewares/Third_Party/FreeRTOS/Source/queue.c **** 			prvInitialiseNewQueue( uxQueueLength, uxItemSize, pucQueueStorage, ucQueueType, pxNewQueue );
ARM GAS  C:\Users\EI\AppData\Local\Temp\cc6xPaa5.s 			page 18


 411              		.loc 1 352 4
 412 00d2 97F83820 		ldrb	r2, [r7, #56]	@ zero_extendqisi2
 413 00d6 FB6A     		ldr	r3, [r7, #44]
 414 00d8 0093     		str	r3, [sp]
 415 00da 1346     		mov	r3, r2
 416 00dc 7A68     		ldr	r2, [r7, #4]
 417 00de B968     		ldr	r1, [r7, #8]
 418 00e0 F868     		ldr	r0, [r7, #12]
 419 00e2 FFF7FEFF 		bl	prvInitialiseNewQueue
 420              	.L26:
 353:Middlewares/Third_Party/FreeRTOS/Source/queue.c **** 		}
 354:Middlewares/Third_Party/FreeRTOS/Source/queue.c **** 		else
 355:Middlewares/Third_Party/FreeRTOS/Source/queue.c **** 		{
 356:Middlewares/Third_Party/FreeRTOS/Source/queue.c **** 			traceQUEUE_CREATE_FAILED( ucQueueType );
 357:Middlewares/Third_Party/FreeRTOS/Source/queue.c **** 			mtCOVERAGE_TEST_MARKER();
 358:Middlewares/Third_Party/FreeRTOS/Source/queue.c **** 		}
 359:Middlewares/Third_Party/FreeRTOS/Source/queue.c **** 
 360:Middlewares/Third_Party/FreeRTOS/Source/queue.c **** 		return pxNewQueue;
 421              		.loc 1 360 10
 422 00e6 FB6A     		ldr	r3, [r7, #44]
 361:Middlewares/Third_Party/FreeRTOS/Source/queue.c **** 	}
 423              		.loc 1 361 2
 424 00e8 1846     		mov	r0, r3
 425 00ea 3037     		adds	r7, r7, #48
 426              	.LCFI8:
 427              		.cfi_def_cfa_offset 8
 428 00ec BD46     		mov	sp, r7
 429              	.LCFI9:
 430              		.cfi_def_cfa_register 13
 431              		@ sp needed
 432 00ee 80BD     		pop	{r7, pc}
 433              		.cfi_endproc
 434              	.LFE5:
 436              		.section	.text.xQueueGenericCreate,"ax",%progbits
 437              		.align	1
 438              		.global	xQueueGenericCreate
 439              		.syntax unified
 440              		.thumb
 441              		.thumb_func
 442              		.fpu fpv4-sp-d16
 444              	xQueueGenericCreate:
 445              	.LFB6:
 362:Middlewares/Third_Party/FreeRTOS/Source/queue.c **** 
 363:Middlewares/Third_Party/FreeRTOS/Source/queue.c **** #endif /* configSUPPORT_STATIC_ALLOCATION */
 364:Middlewares/Third_Party/FreeRTOS/Source/queue.c **** /*-----------------------------------------------------------*/
 365:Middlewares/Third_Party/FreeRTOS/Source/queue.c **** 
 366:Middlewares/Third_Party/FreeRTOS/Source/queue.c **** #if( configSUPPORT_DYNAMIC_ALLOCATION == 1 )
 367:Middlewares/Third_Party/FreeRTOS/Source/queue.c **** 
 368:Middlewares/Third_Party/FreeRTOS/Source/queue.c **** 	QueueHandle_t xQueueGenericCreate( const UBaseType_t uxQueueLength, const UBaseType_t uxItemSize, 
 369:Middlewares/Third_Party/FreeRTOS/Source/queue.c **** 	{
 446              		.loc 1 369 2
 447              		.cfi_startproc
 448              		@ args = 0, pretend = 0, frame = 32
 449              		@ frame_needed = 1, uses_anonymous_args = 0
 450 0000 80B5     		push	{r7, lr}
 451              	.LCFI10:
 452              		.cfi_def_cfa_offset 8
ARM GAS  C:\Users\EI\AppData\Local\Temp\cc6xPaa5.s 			page 19


 453              		.cfi_offset 7, -8
 454              		.cfi_offset 14, -4
 455 0002 8AB0     		sub	sp, sp, #40
 456              	.LCFI11:
 457              		.cfi_def_cfa_offset 48
 458 0004 02AF     		add	r7, sp, #8
 459              	.LCFI12:
 460              		.cfi_def_cfa 7, 40
 461 0006 F860     		str	r0, [r7, #12]
 462 0008 B960     		str	r1, [r7, #8]
 463 000a 1346     		mov	r3, r2
 464 000c FB71     		strb	r3, [r7, #7]
 370:Middlewares/Third_Party/FreeRTOS/Source/queue.c **** 	Queue_t *pxNewQueue;
 371:Middlewares/Third_Party/FreeRTOS/Source/queue.c **** 	size_t xQueueSizeInBytes;
 372:Middlewares/Third_Party/FreeRTOS/Source/queue.c **** 	uint8_t *pucQueueStorage;
 373:Middlewares/Third_Party/FreeRTOS/Source/queue.c **** 
 374:Middlewares/Third_Party/FreeRTOS/Source/queue.c **** 		configASSERT( uxQueueLength > ( UBaseType_t ) 0 );
 465              		.loc 1 374 3
 466 000e FB68     		ldr	r3, [r7, #12]
 467 0010 002B     		cmp	r3, #0
 468 0012 0AD1     		bne	.L29
 469              	.LBB131:
 470              	.LBB132:
 195:Middlewares/Third_Party/FreeRTOS/Source/portable/GCC/ARM_CM4F/portmacro.h **** 	(
 471              		.loc 2 195 2
 472              		.syntax unified
 473              	@ 195 "Middlewares/Third_Party/FreeRTOS/Source/portable/GCC/ARM_CM4F/portmacro.h" 1
 474 0014 4FF05003 			mov r3, #80												
 475 0018 83F31188 		msr basepri, r3											
 476 001c BFF36F8F 		isb														
 477 0020 BFF34F8F 		dsb														
 478              	
 479              	@ 0 "" 2
 480              		.thumb
 481              		.syntax unified
 482 0024 3B61     		str	r3, [r7, #16]
 483              		.loc 2 203 1
 484 0026 00BF     		nop
 485              	.L30:
 486              	.LBE132:
 487              	.LBE131:
 488              		.loc 1 374 3 discriminator 1
 489 0028 FEE7     		b	.L30
 490              	.L29:
 375:Middlewares/Third_Party/FreeRTOS/Source/queue.c **** 
 376:Middlewares/Third_Party/FreeRTOS/Source/queue.c **** 		/* Allocate enough space to hold the maximum number of items that
 377:Middlewares/Third_Party/FreeRTOS/Source/queue.c **** 		can be in the queue at any time.  It is valid for uxItemSize to be
 378:Middlewares/Third_Party/FreeRTOS/Source/queue.c **** 		zero in the case the queue is used as a semaphore. */
 379:Middlewares/Third_Party/FreeRTOS/Source/queue.c **** 		xQueueSizeInBytes = ( size_t ) ( uxQueueLength * uxItemSize ); /*lint !e961 MISRA exception as th
 491              		.loc 1 379 21
 492 002a FB68     		ldr	r3, [r7, #12]
 493 002c BA68     		ldr	r2, [r7, #8]
 494 002e 02FB03F3 		mul	r3, r2, r3
 495 0032 FB61     		str	r3, [r7, #28]
 380:Middlewares/Third_Party/FreeRTOS/Source/queue.c **** 
 381:Middlewares/Third_Party/FreeRTOS/Source/queue.c **** 		/* Allocate the queue and storage area.  Justification for MISRA
 382:Middlewares/Third_Party/FreeRTOS/Source/queue.c **** 		deviation as follows:  pvPortMalloc() always ensures returned memory
ARM GAS  C:\Users\EI\AppData\Local\Temp\cc6xPaa5.s 			page 20


 383:Middlewares/Third_Party/FreeRTOS/Source/queue.c **** 		blocks are aligned per the requirements of the MCU stack.  In this case
 384:Middlewares/Third_Party/FreeRTOS/Source/queue.c **** 		pvPortMalloc() must return a pointer that is guaranteed to meet the
 385:Middlewares/Third_Party/FreeRTOS/Source/queue.c **** 		alignment requirements of the Queue_t structure - which in this case
 386:Middlewares/Third_Party/FreeRTOS/Source/queue.c **** 		is an int8_t *.  Therefore, whenever the stack alignment requirements
 387:Middlewares/Third_Party/FreeRTOS/Source/queue.c **** 		are greater than or equal to the pointer to char requirements the cast
 388:Middlewares/Third_Party/FreeRTOS/Source/queue.c **** 		is safe.  In other cases alignment requirements are not strict (one or
 389:Middlewares/Third_Party/FreeRTOS/Source/queue.c **** 		two bytes). */
 390:Middlewares/Third_Party/FreeRTOS/Source/queue.c **** 		pxNewQueue = ( Queue_t * ) pvPortMalloc( sizeof( Queue_t ) + xQueueSizeInBytes ); /*lint !e9087 !
 496              		.loc 1 390 30
 497 0034 FB69     		ldr	r3, [r7, #28]
 498 0036 5033     		adds	r3, r3, #80
 499 0038 1846     		mov	r0, r3
 500 003a FFF7FEFF 		bl	pvPortMalloc
 501 003e B861     		str	r0, [r7, #24]
 391:Middlewares/Third_Party/FreeRTOS/Source/queue.c **** 
 392:Middlewares/Third_Party/FreeRTOS/Source/queue.c **** 		if( pxNewQueue != NULL )
 502              		.loc 1 392 5
 503 0040 BB69     		ldr	r3, [r7, #24]
 504 0042 002B     		cmp	r3, #0
 505 0044 11D0     		beq	.L31
 393:Middlewares/Third_Party/FreeRTOS/Source/queue.c **** 		{
 394:Middlewares/Third_Party/FreeRTOS/Source/queue.c **** 			/* Jump past the queue structure to find the location of the queue
 395:Middlewares/Third_Party/FreeRTOS/Source/queue.c **** 			storage area. */
 396:Middlewares/Third_Party/FreeRTOS/Source/queue.c **** 			pucQueueStorage = ( uint8_t * ) pxNewQueue;
 506              		.loc 1 396 20
 507 0046 BB69     		ldr	r3, [r7, #24]
 508 0048 7B61     		str	r3, [r7, #20]
 397:Middlewares/Third_Party/FreeRTOS/Source/queue.c **** 			pucQueueStorage += sizeof( Queue_t ); /*lint !e9016 Pointer arithmetic allowed on char types, es
 509              		.loc 1 397 20
 510 004a 7B69     		ldr	r3, [r7, #20]
 511 004c 5033     		adds	r3, r3, #80
 512 004e 7B61     		str	r3, [r7, #20]
 398:Middlewares/Third_Party/FreeRTOS/Source/queue.c **** 
 399:Middlewares/Third_Party/FreeRTOS/Source/queue.c **** 			#if( configSUPPORT_STATIC_ALLOCATION == 1 )
 400:Middlewares/Third_Party/FreeRTOS/Source/queue.c **** 			{
 401:Middlewares/Third_Party/FreeRTOS/Source/queue.c **** 				/* Queues can be created either statically or dynamically, so
 402:Middlewares/Third_Party/FreeRTOS/Source/queue.c **** 				note this task was created dynamically in case it is later
 403:Middlewares/Third_Party/FreeRTOS/Source/queue.c **** 				deleted. */
 404:Middlewares/Third_Party/FreeRTOS/Source/queue.c **** 				pxNewQueue->ucStaticallyAllocated = pdFALSE;
 513              		.loc 1 404 39
 514 0050 BB69     		ldr	r3, [r7, #24]
 515 0052 0022     		movs	r2, #0
 516 0054 83F84620 		strb	r2, [r3, #70]
 405:Middlewares/Third_Party/FreeRTOS/Source/queue.c **** 			}
 406:Middlewares/Third_Party/FreeRTOS/Source/queue.c **** 			#endif /* configSUPPORT_STATIC_ALLOCATION */
 407:Middlewares/Third_Party/FreeRTOS/Source/queue.c **** 
 408:Middlewares/Third_Party/FreeRTOS/Source/queue.c **** 			prvInitialiseNewQueue( uxQueueLength, uxItemSize, pucQueueStorage, ucQueueType, pxNewQueue );
 517              		.loc 1 408 4
 518 0058 FA79     		ldrb	r2, [r7, #7]	@ zero_extendqisi2
 519 005a BB69     		ldr	r3, [r7, #24]
 520 005c 0093     		str	r3, [sp]
 521 005e 1346     		mov	r3, r2
 522 0060 7A69     		ldr	r2, [r7, #20]
 523 0062 B968     		ldr	r1, [r7, #8]
 524 0064 F868     		ldr	r0, [r7, #12]
 525 0066 FFF7FEFF 		bl	prvInitialiseNewQueue
 526              	.L31:
ARM GAS  C:\Users\EI\AppData\Local\Temp\cc6xPaa5.s 			page 21


 409:Middlewares/Third_Party/FreeRTOS/Source/queue.c **** 		}
 410:Middlewares/Third_Party/FreeRTOS/Source/queue.c **** 		else
 411:Middlewares/Third_Party/FreeRTOS/Source/queue.c **** 		{
 412:Middlewares/Third_Party/FreeRTOS/Source/queue.c **** 			traceQUEUE_CREATE_FAILED( ucQueueType );
 413:Middlewares/Third_Party/FreeRTOS/Source/queue.c **** 			mtCOVERAGE_TEST_MARKER();
 414:Middlewares/Third_Party/FreeRTOS/Source/queue.c **** 		}
 415:Middlewares/Third_Party/FreeRTOS/Source/queue.c **** 
 416:Middlewares/Third_Party/FreeRTOS/Source/queue.c **** 		return pxNewQueue;
 527              		.loc 1 416 10
 528 006a BB69     		ldr	r3, [r7, #24]
 417:Middlewares/Third_Party/FreeRTOS/Source/queue.c **** 	}
 529              		.loc 1 417 2
 530 006c 1846     		mov	r0, r3
 531 006e 2037     		adds	r7, r7, #32
 532              	.LCFI13:
 533              		.cfi_def_cfa_offset 8
 534 0070 BD46     		mov	sp, r7
 535              	.LCFI14:
 536              		.cfi_def_cfa_register 13
 537              		@ sp needed
 538 0072 80BD     		pop	{r7, pc}
 539              		.cfi_endproc
 540              	.LFE6:
 542              		.section	.text.prvInitialiseNewQueue,"ax",%progbits
 543              		.align	1
 544              		.syntax unified
 545              		.thumb
 546              		.thumb_func
 547              		.fpu fpv4-sp-d16
 549              	prvInitialiseNewQueue:
 550              	.LFB7:
 418:Middlewares/Third_Party/FreeRTOS/Source/queue.c **** 
 419:Middlewares/Third_Party/FreeRTOS/Source/queue.c **** #endif /* configSUPPORT_STATIC_ALLOCATION */
 420:Middlewares/Third_Party/FreeRTOS/Source/queue.c **** /*-----------------------------------------------------------*/
 421:Middlewares/Third_Party/FreeRTOS/Source/queue.c **** 
 422:Middlewares/Third_Party/FreeRTOS/Source/queue.c **** static void prvInitialiseNewQueue( const UBaseType_t uxQueueLength, const UBaseType_t uxItemSize, u
 423:Middlewares/Third_Party/FreeRTOS/Source/queue.c **** {
 551              		.loc 1 423 1
 552              		.cfi_startproc
 553              		@ args = 4, pretend = 0, frame = 16
 554              		@ frame_needed = 1, uses_anonymous_args = 0
 555 0000 80B5     		push	{r7, lr}
 556              	.LCFI15:
 557              		.cfi_def_cfa_offset 8
 558              		.cfi_offset 7, -8
 559              		.cfi_offset 14, -4
 560 0002 84B0     		sub	sp, sp, #16
 561              	.LCFI16:
 562              		.cfi_def_cfa_offset 24
 563 0004 00AF     		add	r7, sp, #0
 564              	.LCFI17:
 565              		.cfi_def_cfa_register 7
 566 0006 F860     		str	r0, [r7, #12]
 567 0008 B960     		str	r1, [r7, #8]
 568 000a 7A60     		str	r2, [r7, #4]
 569 000c FB70     		strb	r3, [r7, #3]
 424:Middlewares/Third_Party/FreeRTOS/Source/queue.c **** 	/* Remove compiler warnings about unused parameters should
ARM GAS  C:\Users\EI\AppData\Local\Temp\cc6xPaa5.s 			page 22


 425:Middlewares/Third_Party/FreeRTOS/Source/queue.c **** 	configUSE_TRACE_FACILITY not be set to 1. */
 426:Middlewares/Third_Party/FreeRTOS/Source/queue.c **** 	( void ) ucQueueType;
 427:Middlewares/Third_Party/FreeRTOS/Source/queue.c **** 
 428:Middlewares/Third_Party/FreeRTOS/Source/queue.c **** 	if( uxItemSize == ( UBaseType_t ) 0 )
 570              		.loc 1 428 4
 571 000e BB68     		ldr	r3, [r7, #8]
 572 0010 002B     		cmp	r3, #0
 573 0012 03D1     		bne	.L34
 429:Middlewares/Third_Party/FreeRTOS/Source/queue.c **** 	{
 430:Middlewares/Third_Party/FreeRTOS/Source/queue.c **** 		/* No RAM was allocated for the queue storage area, but PC head cannot
 431:Middlewares/Third_Party/FreeRTOS/Source/queue.c **** 		be set to NULL because NULL is used as a key to say the queue is used as
 432:Middlewares/Third_Party/FreeRTOS/Source/queue.c **** 		a mutex.  Therefore just set pcHead to point to the queue as a benign
 433:Middlewares/Third_Party/FreeRTOS/Source/queue.c **** 		value that is known to be within the memory map. */
 434:Middlewares/Third_Party/FreeRTOS/Source/queue.c **** 		pxNewQueue->pcHead = ( int8_t * ) pxNewQueue;
 574              		.loc 1 434 22
 575 0014 BB69     		ldr	r3, [r7, #24]
 576 0016 BA69     		ldr	r2, [r7, #24]
 577 0018 1A60     		str	r2, [r3]
 578 001a 02E0     		b	.L35
 579              	.L34:
 435:Middlewares/Third_Party/FreeRTOS/Source/queue.c **** 	}
 436:Middlewares/Third_Party/FreeRTOS/Source/queue.c **** 	else
 437:Middlewares/Third_Party/FreeRTOS/Source/queue.c **** 	{
 438:Middlewares/Third_Party/FreeRTOS/Source/queue.c **** 		/* Set the head to the start of the queue storage area. */
 439:Middlewares/Third_Party/FreeRTOS/Source/queue.c **** 		pxNewQueue->pcHead = ( int8_t * ) pucQueueStorage;
 580              		.loc 1 439 22
 581 001c BB69     		ldr	r3, [r7, #24]
 582 001e 7A68     		ldr	r2, [r7, #4]
 583 0020 1A60     		str	r2, [r3]
 584              	.L35:
 440:Middlewares/Third_Party/FreeRTOS/Source/queue.c **** 	}
 441:Middlewares/Third_Party/FreeRTOS/Source/queue.c **** 
 442:Middlewares/Third_Party/FreeRTOS/Source/queue.c **** 	/* Initialise the queue members as described where the queue type is
 443:Middlewares/Third_Party/FreeRTOS/Source/queue.c **** 	defined. */
 444:Middlewares/Third_Party/FreeRTOS/Source/queue.c **** 	pxNewQueue->uxLength = uxQueueLength;
 585              		.loc 1 444 23
 586 0022 BB69     		ldr	r3, [r7, #24]
 587 0024 FA68     		ldr	r2, [r7, #12]
 588 0026 DA63     		str	r2, [r3, #60]
 445:Middlewares/Third_Party/FreeRTOS/Source/queue.c **** 	pxNewQueue->uxItemSize = uxItemSize;
 589              		.loc 1 445 25
 590 0028 BB69     		ldr	r3, [r7, #24]
 591 002a BA68     		ldr	r2, [r7, #8]
 592 002c 1A64     		str	r2, [r3, #64]
 446:Middlewares/Third_Party/FreeRTOS/Source/queue.c **** 	( void ) xQueueGenericReset( pxNewQueue, pdTRUE );
 593              		.loc 1 446 11
 594 002e 0121     		movs	r1, #1
 595 0030 B869     		ldr	r0, [r7, #24]
 596 0032 FFF7FEFF 		bl	xQueueGenericReset
 447:Middlewares/Third_Party/FreeRTOS/Source/queue.c **** 
 448:Middlewares/Third_Party/FreeRTOS/Source/queue.c **** 	#if ( configUSE_TRACE_FACILITY == 1 )
 449:Middlewares/Third_Party/FreeRTOS/Source/queue.c **** 	{
 450:Middlewares/Third_Party/FreeRTOS/Source/queue.c **** 		pxNewQueue->ucQueueType = ucQueueType;
 597              		.loc 1 450 27
 598 0036 BB69     		ldr	r3, [r7, #24]
 599 0038 FA78     		ldrb	r2, [r7, #3]
 600 003a 83F84C20 		strb	r2, [r3, #76]
ARM GAS  C:\Users\EI\AppData\Local\Temp\cc6xPaa5.s 			page 23


 451:Middlewares/Third_Party/FreeRTOS/Source/queue.c **** 	}
 452:Middlewares/Third_Party/FreeRTOS/Source/queue.c **** 	#endif /* configUSE_TRACE_FACILITY */
 453:Middlewares/Third_Party/FreeRTOS/Source/queue.c **** 
 454:Middlewares/Third_Party/FreeRTOS/Source/queue.c **** 	#if( configUSE_QUEUE_SETS == 1 )
 455:Middlewares/Third_Party/FreeRTOS/Source/queue.c **** 	{
 456:Middlewares/Third_Party/FreeRTOS/Source/queue.c **** 		pxNewQueue->pxQueueSetContainer = NULL;
 457:Middlewares/Third_Party/FreeRTOS/Source/queue.c **** 	}
 458:Middlewares/Third_Party/FreeRTOS/Source/queue.c **** 	#endif /* configUSE_QUEUE_SETS */
 459:Middlewares/Third_Party/FreeRTOS/Source/queue.c **** 
 460:Middlewares/Third_Party/FreeRTOS/Source/queue.c **** 	traceQUEUE_CREATE( pxNewQueue );
 461:Middlewares/Third_Party/FreeRTOS/Source/queue.c **** }
 601              		.loc 1 461 1
 602 003e 00BF     		nop
 603 0040 1037     		adds	r7, r7, #16
 604              	.LCFI18:
 605              		.cfi_def_cfa_offset 8
 606 0042 BD46     		mov	sp, r7
 607              	.LCFI19:
 608              		.cfi_def_cfa_register 13
 609              		@ sp needed
 610 0044 80BD     		pop	{r7, pc}
 611              		.cfi_endproc
 612              	.LFE7:
 614              		.section	.text.prvInitialiseMutex,"ax",%progbits
 615              		.align	1
 616              		.syntax unified
 617              		.thumb
 618              		.thumb_func
 619              		.fpu fpv4-sp-d16
 621              	prvInitialiseMutex:
 622              	.LFB8:
 462:Middlewares/Third_Party/FreeRTOS/Source/queue.c **** /*-----------------------------------------------------------*/
 463:Middlewares/Third_Party/FreeRTOS/Source/queue.c **** 
 464:Middlewares/Third_Party/FreeRTOS/Source/queue.c **** #if( configUSE_MUTEXES == 1 )
 465:Middlewares/Third_Party/FreeRTOS/Source/queue.c **** 
 466:Middlewares/Third_Party/FreeRTOS/Source/queue.c **** 	static void prvInitialiseMutex( Queue_t *pxNewQueue )
 467:Middlewares/Third_Party/FreeRTOS/Source/queue.c **** 	{
 623              		.loc 1 467 2
 624              		.cfi_startproc
 625              		@ args = 0, pretend = 0, frame = 8
 626              		@ frame_needed = 1, uses_anonymous_args = 0
 627 0000 80B5     		push	{r7, lr}
 628              	.LCFI20:
 629              		.cfi_def_cfa_offset 8
 630              		.cfi_offset 7, -8
 631              		.cfi_offset 14, -4
 632 0002 82B0     		sub	sp, sp, #8
 633              	.LCFI21:
 634              		.cfi_def_cfa_offset 16
 635 0004 00AF     		add	r7, sp, #0
 636              	.LCFI22:
 637              		.cfi_def_cfa_register 7
 638 0006 7860     		str	r0, [r7, #4]
 468:Middlewares/Third_Party/FreeRTOS/Source/queue.c **** 		if( pxNewQueue != NULL )
 639              		.loc 1 468 5
 640 0008 7B68     		ldr	r3, [r7, #4]
 641 000a 002B     		cmp	r3, #0
ARM GAS  C:\Users\EI\AppData\Local\Temp\cc6xPaa5.s 			page 24


 642 000c 0ED0     		beq	.L38
 469:Middlewares/Third_Party/FreeRTOS/Source/queue.c **** 		{
 470:Middlewares/Third_Party/FreeRTOS/Source/queue.c **** 			/* The queue create function will set all the queue structure members
 471:Middlewares/Third_Party/FreeRTOS/Source/queue.c **** 			correctly for a generic queue, but this function is creating a
 472:Middlewares/Third_Party/FreeRTOS/Source/queue.c **** 			mutex.  Overwrite those members that need to be set differently -
 473:Middlewares/Third_Party/FreeRTOS/Source/queue.c **** 			in particular the information required for priority inheritance. */
 474:Middlewares/Third_Party/FreeRTOS/Source/queue.c **** 			pxNewQueue->u.xSemaphore.xMutexHolder = NULL;
 643              		.loc 1 474 42
 644 000e 7B68     		ldr	r3, [r7, #4]
 645 0010 0022     		movs	r2, #0
 646 0012 9A60     		str	r2, [r3, #8]
 475:Middlewares/Third_Party/FreeRTOS/Source/queue.c **** 			pxNewQueue->uxQueueType = queueQUEUE_IS_MUTEX;
 647              		.loc 1 475 28
 648 0014 7B68     		ldr	r3, [r7, #4]
 649 0016 0022     		movs	r2, #0
 650 0018 1A60     		str	r2, [r3]
 476:Middlewares/Third_Party/FreeRTOS/Source/queue.c **** 
 477:Middlewares/Third_Party/FreeRTOS/Source/queue.c **** 			/* In case this is a recursive mutex. */
 478:Middlewares/Third_Party/FreeRTOS/Source/queue.c **** 			pxNewQueue->u.xSemaphore.uxRecursiveCallCount = 0;
 651              		.loc 1 478 50
 652 001a 7B68     		ldr	r3, [r7, #4]
 653 001c 0022     		movs	r2, #0
 654 001e DA60     		str	r2, [r3, #12]
 479:Middlewares/Third_Party/FreeRTOS/Source/queue.c **** 
 480:Middlewares/Third_Party/FreeRTOS/Source/queue.c **** 			traceCREATE_MUTEX( pxNewQueue );
 481:Middlewares/Third_Party/FreeRTOS/Source/queue.c **** 
 482:Middlewares/Third_Party/FreeRTOS/Source/queue.c **** 			/* Start with the semaphore in the expected state. */
 483:Middlewares/Third_Party/FreeRTOS/Source/queue.c **** 			( void ) xQueueGenericSend( pxNewQueue, NULL, ( TickType_t ) 0U, queueSEND_TO_BACK );
 655              		.loc 1 483 13
 656 0020 0023     		movs	r3, #0
 657 0022 0022     		movs	r2, #0
 658 0024 0021     		movs	r1, #0
 659 0026 7868     		ldr	r0, [r7, #4]
 660 0028 FFF7FEFF 		bl	xQueueGenericSend
 661              	.L38:
 484:Middlewares/Third_Party/FreeRTOS/Source/queue.c **** 		}
 485:Middlewares/Third_Party/FreeRTOS/Source/queue.c **** 		else
 486:Middlewares/Third_Party/FreeRTOS/Source/queue.c **** 		{
 487:Middlewares/Third_Party/FreeRTOS/Source/queue.c **** 			traceCREATE_MUTEX_FAILED();
 488:Middlewares/Third_Party/FreeRTOS/Source/queue.c **** 		}
 489:Middlewares/Third_Party/FreeRTOS/Source/queue.c **** 	}
 662              		.loc 1 489 2
 663 002c 00BF     		nop
 664 002e 0837     		adds	r7, r7, #8
 665              	.LCFI23:
 666              		.cfi_def_cfa_offset 8
 667 0030 BD46     		mov	sp, r7
 668              	.LCFI24:
 669              		.cfi_def_cfa_register 13
 670              		@ sp needed
 671 0032 80BD     		pop	{r7, pc}
 672              		.cfi_endproc
 673              	.LFE8:
 675              		.section	.text.xQueueCreateMutex,"ax",%progbits
 676              		.align	1
 677              		.global	xQueueCreateMutex
 678              		.syntax unified
ARM GAS  C:\Users\EI\AppData\Local\Temp\cc6xPaa5.s 			page 25


 679              		.thumb
 680              		.thumb_func
 681              		.fpu fpv4-sp-d16
 683              	xQueueCreateMutex:
 684              	.LFB9:
 490:Middlewares/Third_Party/FreeRTOS/Source/queue.c **** 
 491:Middlewares/Third_Party/FreeRTOS/Source/queue.c **** #endif /* configUSE_MUTEXES */
 492:Middlewares/Third_Party/FreeRTOS/Source/queue.c **** /*-----------------------------------------------------------*/
 493:Middlewares/Third_Party/FreeRTOS/Source/queue.c **** 
 494:Middlewares/Third_Party/FreeRTOS/Source/queue.c **** #if( ( configUSE_MUTEXES == 1 ) && ( configSUPPORT_DYNAMIC_ALLOCATION == 1 ) )
 495:Middlewares/Third_Party/FreeRTOS/Source/queue.c **** 
 496:Middlewares/Third_Party/FreeRTOS/Source/queue.c **** 	QueueHandle_t xQueueCreateMutex( const uint8_t ucQueueType )
 497:Middlewares/Third_Party/FreeRTOS/Source/queue.c **** 	{
 685              		.loc 1 497 2
 686              		.cfi_startproc
 687              		@ args = 0, pretend = 0, frame = 24
 688              		@ frame_needed = 1, uses_anonymous_args = 0
 689 0000 80B5     		push	{r7, lr}
 690              	.LCFI25:
 691              		.cfi_def_cfa_offset 8
 692              		.cfi_offset 7, -8
 693              		.cfi_offset 14, -4
 694 0002 86B0     		sub	sp, sp, #24
 695              	.LCFI26:
 696              		.cfi_def_cfa_offset 32
 697 0004 00AF     		add	r7, sp, #0
 698              	.LCFI27:
 699              		.cfi_def_cfa_register 7
 700 0006 0346     		mov	r3, r0
 701 0008 FB71     		strb	r3, [r7, #7]
 498:Middlewares/Third_Party/FreeRTOS/Source/queue.c **** 	QueueHandle_t xNewQueue;
 499:Middlewares/Third_Party/FreeRTOS/Source/queue.c **** 	const UBaseType_t uxMutexLength = ( UBaseType_t ) 1, uxMutexSize = ( UBaseType_t ) 0;
 702              		.loc 1 499 20
 703 000a 0123     		movs	r3, #1
 704 000c 7B61     		str	r3, [r7, #20]
 705              		.loc 1 499 55
 706 000e 0023     		movs	r3, #0
 707 0010 3B61     		str	r3, [r7, #16]
 500:Middlewares/Third_Party/FreeRTOS/Source/queue.c **** 
 501:Middlewares/Third_Party/FreeRTOS/Source/queue.c **** 		xNewQueue = xQueueGenericCreate( uxMutexLength, uxMutexSize, ucQueueType );
 708              		.loc 1 501 15
 709 0012 FB79     		ldrb	r3, [r7, #7]	@ zero_extendqisi2
 710 0014 1A46     		mov	r2, r3
 711 0016 3969     		ldr	r1, [r7, #16]
 712 0018 7869     		ldr	r0, [r7, #20]
 713 001a FFF7FEFF 		bl	xQueueGenericCreate
 714 001e F860     		str	r0, [r7, #12]
 502:Middlewares/Third_Party/FreeRTOS/Source/queue.c **** 		prvInitialiseMutex( ( Queue_t * ) xNewQueue );
 715              		.loc 1 502 3
 716 0020 F868     		ldr	r0, [r7, #12]
 717 0022 FFF7FEFF 		bl	prvInitialiseMutex
 503:Middlewares/Third_Party/FreeRTOS/Source/queue.c **** 
 504:Middlewares/Third_Party/FreeRTOS/Source/queue.c **** 		return xNewQueue;
 718              		.loc 1 504 10
 719 0026 FB68     		ldr	r3, [r7, #12]
 505:Middlewares/Third_Party/FreeRTOS/Source/queue.c **** 	}
 720              		.loc 1 505 2
ARM GAS  C:\Users\EI\AppData\Local\Temp\cc6xPaa5.s 			page 26


 721 0028 1846     		mov	r0, r3
 722 002a 1837     		adds	r7, r7, #24
 723              	.LCFI28:
 724              		.cfi_def_cfa_offset 8
 725 002c BD46     		mov	sp, r7
 726              	.LCFI29:
 727              		.cfi_def_cfa_register 13
 728              		@ sp needed
 729 002e 80BD     		pop	{r7, pc}
 730              		.cfi_endproc
 731              	.LFE9:
 733              		.section	.text.xQueueCreateMutexStatic,"ax",%progbits
 734              		.align	1
 735              		.global	xQueueCreateMutexStatic
 736              		.syntax unified
 737              		.thumb
 738              		.thumb_func
 739              		.fpu fpv4-sp-d16
 741              	xQueueCreateMutexStatic:
 742              	.LFB10:
 506:Middlewares/Third_Party/FreeRTOS/Source/queue.c **** 
 507:Middlewares/Third_Party/FreeRTOS/Source/queue.c **** #endif /* configUSE_MUTEXES */
 508:Middlewares/Third_Party/FreeRTOS/Source/queue.c **** /*-----------------------------------------------------------*/
 509:Middlewares/Third_Party/FreeRTOS/Source/queue.c **** 
 510:Middlewares/Third_Party/FreeRTOS/Source/queue.c **** #if( ( configUSE_MUTEXES == 1 ) && ( configSUPPORT_STATIC_ALLOCATION == 1 ) )
 511:Middlewares/Third_Party/FreeRTOS/Source/queue.c **** 
 512:Middlewares/Third_Party/FreeRTOS/Source/queue.c **** 	QueueHandle_t xQueueCreateMutexStatic( const uint8_t ucQueueType, StaticQueue_t *pxStaticQueue )
 513:Middlewares/Third_Party/FreeRTOS/Source/queue.c **** 	{
 743              		.loc 1 513 2
 744              		.cfi_startproc
 745              		@ args = 0, pretend = 0, frame = 24
 746              		@ frame_needed = 1, uses_anonymous_args = 0
 747 0000 80B5     		push	{r7, lr}
 748              	.LCFI30:
 749              		.cfi_def_cfa_offset 8
 750              		.cfi_offset 7, -8
 751              		.cfi_offset 14, -4
 752 0002 88B0     		sub	sp, sp, #32
 753              	.LCFI31:
 754              		.cfi_def_cfa_offset 40
 755 0004 02AF     		add	r7, sp, #8
 756              	.LCFI32:
 757              		.cfi_def_cfa 7, 32
 758 0006 0346     		mov	r3, r0
 759 0008 3960     		str	r1, [r7]
 760 000a FB71     		strb	r3, [r7, #7]
 514:Middlewares/Third_Party/FreeRTOS/Source/queue.c **** 	QueueHandle_t xNewQueue;
 515:Middlewares/Third_Party/FreeRTOS/Source/queue.c **** 	const UBaseType_t uxMutexLength = ( UBaseType_t ) 1, uxMutexSize = ( UBaseType_t ) 0;
 761              		.loc 1 515 20
 762 000c 0123     		movs	r3, #1
 763 000e 7B61     		str	r3, [r7, #20]
 764              		.loc 1 515 55
 765 0010 0023     		movs	r3, #0
 766 0012 3B61     		str	r3, [r7, #16]
 516:Middlewares/Third_Party/FreeRTOS/Source/queue.c **** 
 517:Middlewares/Third_Party/FreeRTOS/Source/queue.c **** 		/* Prevent compiler warnings about unused parameters if
 518:Middlewares/Third_Party/FreeRTOS/Source/queue.c **** 		configUSE_TRACE_FACILITY does not equal 1. */
ARM GAS  C:\Users\EI\AppData\Local\Temp\cc6xPaa5.s 			page 27


 519:Middlewares/Third_Party/FreeRTOS/Source/queue.c **** 		( void ) ucQueueType;
 520:Middlewares/Third_Party/FreeRTOS/Source/queue.c **** 
 521:Middlewares/Third_Party/FreeRTOS/Source/queue.c **** 		xNewQueue = xQueueGenericCreateStatic( uxMutexLength, uxMutexSize, NULL, pxStaticQueue, ucQueueTy
 767              		.loc 1 521 15
 768 0014 FB79     		ldrb	r3, [r7, #7]	@ zero_extendqisi2
 769 0016 0093     		str	r3, [sp]
 770 0018 3B68     		ldr	r3, [r7]
 771 001a 0022     		movs	r2, #0
 772 001c 3969     		ldr	r1, [r7, #16]
 773 001e 7869     		ldr	r0, [r7, #20]
 774 0020 FFF7FEFF 		bl	xQueueGenericCreateStatic
 775 0024 F860     		str	r0, [r7, #12]
 522:Middlewares/Third_Party/FreeRTOS/Source/queue.c **** 		prvInitialiseMutex( ( Queue_t * ) xNewQueue );
 776              		.loc 1 522 3
 777 0026 F868     		ldr	r0, [r7, #12]
 778 0028 FFF7FEFF 		bl	prvInitialiseMutex
 523:Middlewares/Third_Party/FreeRTOS/Source/queue.c **** 
 524:Middlewares/Third_Party/FreeRTOS/Source/queue.c **** 		return xNewQueue;
 779              		.loc 1 524 10
 780 002c FB68     		ldr	r3, [r7, #12]
 525:Middlewares/Third_Party/FreeRTOS/Source/queue.c **** 	}
 781              		.loc 1 525 2
 782 002e 1846     		mov	r0, r3
 783 0030 1837     		adds	r7, r7, #24
 784              	.LCFI33:
 785              		.cfi_def_cfa_offset 8
 786 0032 BD46     		mov	sp, r7
 787              	.LCFI34:
 788              		.cfi_def_cfa_register 13
 789              		@ sp needed
 790 0034 80BD     		pop	{r7, pc}
 791              		.cfi_endproc
 792              	.LFE10:
 794              		.section	.text.xQueueGetMutexHolder,"ax",%progbits
 795              		.align	1
 796              		.global	xQueueGetMutexHolder
 797              		.syntax unified
 798              		.thumb
 799              		.thumb_func
 800              		.fpu fpv4-sp-d16
 802              	xQueueGetMutexHolder:
 803              	.LFB11:
 526:Middlewares/Third_Party/FreeRTOS/Source/queue.c **** 
 527:Middlewares/Third_Party/FreeRTOS/Source/queue.c **** #endif /* configUSE_MUTEXES */
 528:Middlewares/Third_Party/FreeRTOS/Source/queue.c **** /*-----------------------------------------------------------*/
 529:Middlewares/Third_Party/FreeRTOS/Source/queue.c **** 
 530:Middlewares/Third_Party/FreeRTOS/Source/queue.c **** #if ( ( configUSE_MUTEXES == 1 ) && ( INCLUDE_xSemaphoreGetMutexHolder == 1 ) )
 531:Middlewares/Third_Party/FreeRTOS/Source/queue.c **** 
 532:Middlewares/Third_Party/FreeRTOS/Source/queue.c **** 	TaskHandle_t xQueueGetMutexHolder( QueueHandle_t xSemaphore )
 533:Middlewares/Third_Party/FreeRTOS/Source/queue.c **** 	{
 804              		.loc 1 533 2
 805              		.cfi_startproc
 806              		@ args = 0, pretend = 0, frame = 16
 807              		@ frame_needed = 1, uses_anonymous_args = 0
 808 0000 80B5     		push	{r7, lr}
 809              	.LCFI35:
 810              		.cfi_def_cfa_offset 8
ARM GAS  C:\Users\EI\AppData\Local\Temp\cc6xPaa5.s 			page 28


 811              		.cfi_offset 7, -8
 812              		.cfi_offset 14, -4
 813 0002 84B0     		sub	sp, sp, #16
 814              	.LCFI36:
 815              		.cfi_def_cfa_offset 24
 816 0004 00AF     		add	r7, sp, #0
 817              	.LCFI37:
 818              		.cfi_def_cfa_register 7
 819 0006 7860     		str	r0, [r7, #4]
 534:Middlewares/Third_Party/FreeRTOS/Source/queue.c **** 	TaskHandle_t pxReturn;
 535:Middlewares/Third_Party/FreeRTOS/Source/queue.c **** 	Queue_t * const pxSemaphore = ( Queue_t * ) xSemaphore;
 820              		.loc 1 535 18
 821 0008 7B68     		ldr	r3, [r7, #4]
 822 000a BB60     		str	r3, [r7, #8]
 536:Middlewares/Third_Party/FreeRTOS/Source/queue.c **** 
 537:Middlewares/Third_Party/FreeRTOS/Source/queue.c **** 		/* This function is called by xSemaphoreGetMutexHolder(), and should not
 538:Middlewares/Third_Party/FreeRTOS/Source/queue.c **** 		be called directly.  Note:  This is a good way of determining if the
 539:Middlewares/Third_Party/FreeRTOS/Source/queue.c **** 		calling task is the mutex holder, but not a good way of determining the
 540:Middlewares/Third_Party/FreeRTOS/Source/queue.c **** 		identity of the mutex holder, as the holder may change between the
 541:Middlewares/Third_Party/FreeRTOS/Source/queue.c **** 		following critical section exiting and the function returning. */
 542:Middlewares/Third_Party/FreeRTOS/Source/queue.c **** 		taskENTER_CRITICAL();
 823              		.loc 1 542 3
 824 000c FFF7FEFF 		bl	vPortEnterCritical
 543:Middlewares/Third_Party/FreeRTOS/Source/queue.c **** 		{
 544:Middlewares/Third_Party/FreeRTOS/Source/queue.c **** 			if( pxSemaphore->uxQueueType == queueQUEUE_IS_MUTEX )
 825              		.loc 1 544 19
 826 0010 BB68     		ldr	r3, [r7, #8]
 827 0012 1B68     		ldr	r3, [r3]
 828              		.loc 1 544 6
 829 0014 002B     		cmp	r3, #0
 830 0016 03D1     		bne	.L44
 545:Middlewares/Third_Party/FreeRTOS/Source/queue.c **** 			{
 546:Middlewares/Third_Party/FreeRTOS/Source/queue.c **** 				pxReturn = pxSemaphore->u.xSemaphore.xMutexHolder;
 831              		.loc 1 546 14
 832 0018 BB68     		ldr	r3, [r7, #8]
 833 001a 9B68     		ldr	r3, [r3, #8]
 834 001c FB60     		str	r3, [r7, #12]
 835 001e 01E0     		b	.L45
 836              	.L44:
 547:Middlewares/Third_Party/FreeRTOS/Source/queue.c **** 			}
 548:Middlewares/Third_Party/FreeRTOS/Source/queue.c **** 			else
 549:Middlewares/Third_Party/FreeRTOS/Source/queue.c **** 			{
 550:Middlewares/Third_Party/FreeRTOS/Source/queue.c **** 				pxReturn = NULL;
 837              		.loc 1 550 14
 838 0020 0023     		movs	r3, #0
 839 0022 FB60     		str	r3, [r7, #12]
 840              	.L45:
 551:Middlewares/Third_Party/FreeRTOS/Source/queue.c **** 			}
 552:Middlewares/Third_Party/FreeRTOS/Source/queue.c **** 		}
 553:Middlewares/Third_Party/FreeRTOS/Source/queue.c **** 		taskEXIT_CRITICAL();
 841              		.loc 1 553 3
 842 0024 FFF7FEFF 		bl	vPortExitCritical
 554:Middlewares/Third_Party/FreeRTOS/Source/queue.c **** 
 555:Middlewares/Third_Party/FreeRTOS/Source/queue.c **** 		return pxReturn;
 843              		.loc 1 555 10
 844 0028 FB68     		ldr	r3, [r7, #12]
 556:Middlewares/Third_Party/FreeRTOS/Source/queue.c **** 	} /*lint !e818 xSemaphore cannot be a pointer to const because it is a typedef. */
ARM GAS  C:\Users\EI\AppData\Local\Temp\cc6xPaa5.s 			page 29


 845              		.loc 1 556 2
 846 002a 1846     		mov	r0, r3
 847 002c 1037     		adds	r7, r7, #16
 848              	.LCFI38:
 849              		.cfi_def_cfa_offset 8
 850 002e BD46     		mov	sp, r7
 851              	.LCFI39:
 852              		.cfi_def_cfa_register 13
 853              		@ sp needed
 854 0030 80BD     		pop	{r7, pc}
 855              		.cfi_endproc
 856              	.LFE11:
 858              		.section	.text.xQueueGetMutexHolderFromISR,"ax",%progbits
 859              		.align	1
 860              		.global	xQueueGetMutexHolderFromISR
 861              		.syntax unified
 862              		.thumb
 863              		.thumb_func
 864              		.fpu fpv4-sp-d16
 866              	xQueueGetMutexHolderFromISR:
 867              	.LFB12:
 557:Middlewares/Third_Party/FreeRTOS/Source/queue.c **** 
 558:Middlewares/Third_Party/FreeRTOS/Source/queue.c **** #endif
 559:Middlewares/Third_Party/FreeRTOS/Source/queue.c **** /*-----------------------------------------------------------*/
 560:Middlewares/Third_Party/FreeRTOS/Source/queue.c **** 
 561:Middlewares/Third_Party/FreeRTOS/Source/queue.c **** #if ( ( configUSE_MUTEXES == 1 ) && ( INCLUDE_xSemaphoreGetMutexHolder == 1 ) )
 562:Middlewares/Third_Party/FreeRTOS/Source/queue.c **** 
 563:Middlewares/Third_Party/FreeRTOS/Source/queue.c **** 	TaskHandle_t xQueueGetMutexHolderFromISR( QueueHandle_t xSemaphore )
 564:Middlewares/Third_Party/FreeRTOS/Source/queue.c **** 	{
 868              		.loc 1 564 2
 869              		.cfi_startproc
 870              		@ args = 0, pretend = 0, frame = 16
 871              		@ frame_needed = 1, uses_anonymous_args = 0
 872              		@ link register save eliminated.
 873 0000 80B4     		push	{r7}
 874              	.LCFI40:
 875              		.cfi_def_cfa_offset 4
 876              		.cfi_offset 7, -4
 877 0002 85B0     		sub	sp, sp, #20
 878              	.LCFI41:
 879              		.cfi_def_cfa_offset 24
 880 0004 00AF     		add	r7, sp, #0
 881              	.LCFI42:
 882              		.cfi_def_cfa_register 7
 883 0006 7860     		str	r0, [r7, #4]
 565:Middlewares/Third_Party/FreeRTOS/Source/queue.c **** 	TaskHandle_t pxReturn;
 566:Middlewares/Third_Party/FreeRTOS/Source/queue.c **** 
 567:Middlewares/Third_Party/FreeRTOS/Source/queue.c **** 		configASSERT( xSemaphore );
 884              		.loc 1 567 3
 885 0008 7B68     		ldr	r3, [r7, #4]
 886 000a 002B     		cmp	r3, #0
 887 000c 0AD1     		bne	.L48
 888              	.LBB133:
 889              	.LBB134:
 195:Middlewares/Third_Party/FreeRTOS/Source/portable/GCC/ARM_CM4F/portmacro.h **** 	(
 890              		.loc 2 195 2
 891              		.syntax unified
ARM GAS  C:\Users\EI\AppData\Local\Temp\cc6xPaa5.s 			page 30


 892              	@ 195 "Middlewares/Third_Party/FreeRTOS/Source/portable/GCC/ARM_CM4F/portmacro.h" 1
 893 000e 4FF05003 			mov r3, #80												
 894 0012 83F31188 		msr basepri, r3											
 895 0016 BFF36F8F 		isb														
 896 001a BFF34F8F 		dsb														
 897              	
 898              	@ 0 "" 2
 899              		.thumb
 900              		.syntax unified
 901 001e BB60     		str	r3, [r7, #8]
 902              		.loc 2 203 1
 903 0020 00BF     		nop
 904              	.L49:
 905              	.LBE134:
 906              	.LBE133:
 907              		.loc 1 567 3 discriminator 1
 908 0022 FEE7     		b	.L49
 909              	.L48:
 568:Middlewares/Third_Party/FreeRTOS/Source/queue.c **** 
 569:Middlewares/Third_Party/FreeRTOS/Source/queue.c **** 		/* Mutexes cannot be used in interrupt service routines, so the mutex
 570:Middlewares/Third_Party/FreeRTOS/Source/queue.c **** 		holder should not change in an ISR, and therefore a critical section is
 571:Middlewares/Third_Party/FreeRTOS/Source/queue.c **** 		not required here. */
 572:Middlewares/Third_Party/FreeRTOS/Source/queue.c **** 		if( ( ( Queue_t * ) xSemaphore )->uxQueueType == queueQUEUE_IS_MUTEX )
 910              		.loc 1 572 35
 911 0024 7B68     		ldr	r3, [r7, #4]
 912 0026 1B68     		ldr	r3, [r3]
 913              		.loc 1 572 5
 914 0028 002B     		cmp	r3, #0
 915 002a 03D1     		bne	.L50
 573:Middlewares/Third_Party/FreeRTOS/Source/queue.c **** 		{
 574:Middlewares/Third_Party/FreeRTOS/Source/queue.c **** 			pxReturn = ( ( Queue_t * ) xSemaphore )->u.xSemaphore.xMutexHolder;
 916              		.loc 1 574 13
 917 002c 7B68     		ldr	r3, [r7, #4]
 918 002e 9B68     		ldr	r3, [r3, #8]
 919 0030 FB60     		str	r3, [r7, #12]
 920 0032 01E0     		b	.L51
 921              	.L50:
 575:Middlewares/Third_Party/FreeRTOS/Source/queue.c **** 		}
 576:Middlewares/Third_Party/FreeRTOS/Source/queue.c **** 		else
 577:Middlewares/Third_Party/FreeRTOS/Source/queue.c **** 		{
 578:Middlewares/Third_Party/FreeRTOS/Source/queue.c **** 			pxReturn = NULL;
 922              		.loc 1 578 13
 923 0034 0023     		movs	r3, #0
 924 0036 FB60     		str	r3, [r7, #12]
 925              	.L51:
 579:Middlewares/Third_Party/FreeRTOS/Source/queue.c **** 		}
 580:Middlewares/Third_Party/FreeRTOS/Source/queue.c **** 
 581:Middlewares/Third_Party/FreeRTOS/Source/queue.c **** 		return pxReturn;
 926              		.loc 1 581 10
 927 0038 FB68     		ldr	r3, [r7, #12]
 582:Middlewares/Third_Party/FreeRTOS/Source/queue.c **** 	} /*lint !e818 xSemaphore cannot be a pointer to const because it is a typedef. */
 928              		.loc 1 582 2
 929 003a 1846     		mov	r0, r3
 930 003c 1437     		adds	r7, r7, #20
 931              	.LCFI43:
 932              		.cfi_def_cfa_offset 4
 933 003e BD46     		mov	sp, r7
ARM GAS  C:\Users\EI\AppData\Local\Temp\cc6xPaa5.s 			page 31


 934              	.LCFI44:
 935              		.cfi_def_cfa_register 13
 936              		@ sp needed
 937 0040 5DF8047B 		ldr	r7, [sp], #4
 938              	.LCFI45:
 939              		.cfi_restore 7
 940              		.cfi_def_cfa_offset 0
 941 0044 7047     		bx	lr
 942              		.cfi_endproc
 943              	.LFE12:
 945              		.section	.text.xQueueGiveMutexRecursive,"ax",%progbits
 946              		.align	1
 947              		.global	xQueueGiveMutexRecursive
 948              		.syntax unified
 949              		.thumb
 950              		.thumb_func
 951              		.fpu fpv4-sp-d16
 953              	xQueueGiveMutexRecursive:
 954              	.LFB13:
 583:Middlewares/Third_Party/FreeRTOS/Source/queue.c **** 
 584:Middlewares/Third_Party/FreeRTOS/Source/queue.c **** #endif
 585:Middlewares/Third_Party/FreeRTOS/Source/queue.c **** /*-----------------------------------------------------------*/
 586:Middlewares/Third_Party/FreeRTOS/Source/queue.c **** 
 587:Middlewares/Third_Party/FreeRTOS/Source/queue.c **** #if ( configUSE_RECURSIVE_MUTEXES == 1 )
 588:Middlewares/Third_Party/FreeRTOS/Source/queue.c **** 
 589:Middlewares/Third_Party/FreeRTOS/Source/queue.c **** 	BaseType_t xQueueGiveMutexRecursive( QueueHandle_t xMutex )
 590:Middlewares/Third_Party/FreeRTOS/Source/queue.c **** 	{
 955              		.loc 1 590 2
 956              		.cfi_startproc
 957              		@ args = 0, pretend = 0, frame = 24
 958              		@ frame_needed = 1, uses_anonymous_args = 0
 959 0000 90B5     		push	{r4, r7, lr}
 960              	.LCFI46:
 961              		.cfi_def_cfa_offset 12
 962              		.cfi_offset 4, -12
 963              		.cfi_offset 7, -8
 964              		.cfi_offset 14, -4
 965 0002 87B0     		sub	sp, sp, #28
 966              	.LCFI47:
 967              		.cfi_def_cfa_offset 40
 968 0004 00AF     		add	r7, sp, #0
 969              	.LCFI48:
 970              		.cfi_def_cfa_register 7
 971 0006 7860     		str	r0, [r7, #4]
 591:Middlewares/Third_Party/FreeRTOS/Source/queue.c **** 	BaseType_t xReturn;
 592:Middlewares/Third_Party/FreeRTOS/Source/queue.c **** 	Queue_t * const pxMutex = ( Queue_t * ) xMutex;
 972              		.loc 1 592 18
 973 0008 7B68     		ldr	r3, [r7, #4]
 974 000a 3B61     		str	r3, [r7, #16]
 593:Middlewares/Third_Party/FreeRTOS/Source/queue.c **** 
 594:Middlewares/Third_Party/FreeRTOS/Source/queue.c **** 		configASSERT( pxMutex );
 975              		.loc 1 594 3
 976 000c 3B69     		ldr	r3, [r7, #16]
 977 000e 002B     		cmp	r3, #0
 978 0010 0AD1     		bne	.L54
 979              	.LBB135:
 980              	.LBB136:
ARM GAS  C:\Users\EI\AppData\Local\Temp\cc6xPaa5.s 			page 32


 195:Middlewares/Third_Party/FreeRTOS/Source/portable/GCC/ARM_CM4F/portmacro.h **** 	(
 981              		.loc 2 195 2
 982              		.syntax unified
 983              	@ 195 "Middlewares/Third_Party/FreeRTOS/Source/portable/GCC/ARM_CM4F/portmacro.h" 1
 984 0012 4FF05003 			mov r3, #80												
 985 0016 83F31188 		msr basepri, r3											
 986 001a BFF36F8F 		isb														
 987 001e BFF34F8F 		dsb														
 988              	
 989              	@ 0 "" 2
 990              		.thumb
 991              		.syntax unified
 992 0022 FB60     		str	r3, [r7, #12]
 993              		.loc 2 203 1
 994 0024 00BF     		nop
 995              	.L55:
 996              	.LBE136:
 997              	.LBE135:
 998              		.loc 1 594 3 discriminator 1
 999 0026 FEE7     		b	.L55
 1000              	.L54:
 595:Middlewares/Third_Party/FreeRTOS/Source/queue.c **** 
 596:Middlewares/Third_Party/FreeRTOS/Source/queue.c **** 		/* If this is the task that holds the mutex then xMutexHolder will not
 597:Middlewares/Third_Party/FreeRTOS/Source/queue.c **** 		change outside of this task.  If this task does not hold the mutex then
 598:Middlewares/Third_Party/FreeRTOS/Source/queue.c **** 		pxMutexHolder can never coincidentally equal the tasks handle, and as
 599:Middlewares/Third_Party/FreeRTOS/Source/queue.c **** 		this is the only condition we are interested in it does not matter if
 600:Middlewares/Third_Party/FreeRTOS/Source/queue.c **** 		pxMutexHolder is accessed simultaneously by another task.  Therefore no
 601:Middlewares/Third_Party/FreeRTOS/Source/queue.c **** 		mutual exclusion is required to test the pxMutexHolder variable. */
 602:Middlewares/Third_Party/FreeRTOS/Source/queue.c **** 		if( pxMutex->u.xSemaphore.xMutexHolder == xTaskGetCurrentTaskHandle() )
 1001              		.loc 1 602 28
 1002 0028 3B69     		ldr	r3, [r7, #16]
 1003 002a 9C68     		ldr	r4, [r3, #8]
 1004              		.loc 1 602 45
 1005 002c FFF7FEFF 		bl	xTaskGetCurrentTaskHandle
 1006 0030 0346     		mov	r3, r0
 1007              		.loc 1 602 5
 1008 0032 9C42     		cmp	r4, r3
 1009 0034 11D1     		bne	.L56
 603:Middlewares/Third_Party/FreeRTOS/Source/queue.c **** 		{
 604:Middlewares/Third_Party/FreeRTOS/Source/queue.c **** 			traceGIVE_MUTEX_RECURSIVE( pxMutex );
 605:Middlewares/Third_Party/FreeRTOS/Source/queue.c **** 
 606:Middlewares/Third_Party/FreeRTOS/Source/queue.c **** 			/* uxRecursiveCallCount cannot be zero if xMutexHolder is equal to
 607:Middlewares/Third_Party/FreeRTOS/Source/queue.c **** 			the task handle, therefore no underflow check is required.  Also,
 608:Middlewares/Third_Party/FreeRTOS/Source/queue.c **** 			uxRecursiveCallCount is only modified by the mutex holder, and as
 609:Middlewares/Third_Party/FreeRTOS/Source/queue.c **** 			there can only be one, no mutual exclusion is required to modify the
 610:Middlewares/Third_Party/FreeRTOS/Source/queue.c **** 			uxRecursiveCallCount member. */
 611:Middlewares/Third_Party/FreeRTOS/Source/queue.c **** 			( pxMutex->u.xSemaphore.uxRecursiveCallCount )--;
 1010              		.loc 1 611 27
 1011 0036 3B69     		ldr	r3, [r7, #16]
 1012 0038 DB68     		ldr	r3, [r3, #12]
 1013              		.loc 1 611 50
 1014 003a 5A1E     		subs	r2, r3, #1
 1015 003c 3B69     		ldr	r3, [r7, #16]
 1016 003e DA60     		str	r2, [r3, #12]
 612:Middlewares/Third_Party/FreeRTOS/Source/queue.c **** 
 613:Middlewares/Third_Party/FreeRTOS/Source/queue.c **** 			/* Has the recursive call count unwound to 0? */
 614:Middlewares/Third_Party/FreeRTOS/Source/queue.c **** 			if( pxMutex->u.xSemaphore.uxRecursiveCallCount == ( UBaseType_t ) 0 )
ARM GAS  C:\Users\EI\AppData\Local\Temp\cc6xPaa5.s 			page 33


 1017              		.loc 1 614 29
 1018 0040 3B69     		ldr	r3, [r7, #16]
 1019 0042 DB68     		ldr	r3, [r3, #12]
 1020              		.loc 1 614 6
 1021 0044 002B     		cmp	r3, #0
 1022 0046 05D1     		bne	.L57
 615:Middlewares/Third_Party/FreeRTOS/Source/queue.c **** 			{
 616:Middlewares/Third_Party/FreeRTOS/Source/queue.c **** 				/* Return the mutex.  This will automatically unblock any other
 617:Middlewares/Third_Party/FreeRTOS/Source/queue.c **** 				task that might be waiting to access the mutex. */
 618:Middlewares/Third_Party/FreeRTOS/Source/queue.c **** 				( void ) xQueueGenericSend( pxMutex, NULL, queueMUTEX_GIVE_BLOCK_TIME, queueSEND_TO_BACK );
 1023              		.loc 1 618 14
 1024 0048 0023     		movs	r3, #0
 1025 004a 0022     		movs	r2, #0
 1026 004c 0021     		movs	r1, #0
 1027 004e 3869     		ldr	r0, [r7, #16]
 1028 0050 FFF7FEFF 		bl	xQueueGenericSend
 1029              	.L57:
 619:Middlewares/Third_Party/FreeRTOS/Source/queue.c **** 			}
 620:Middlewares/Third_Party/FreeRTOS/Source/queue.c **** 			else
 621:Middlewares/Third_Party/FreeRTOS/Source/queue.c **** 			{
 622:Middlewares/Third_Party/FreeRTOS/Source/queue.c **** 				mtCOVERAGE_TEST_MARKER();
 623:Middlewares/Third_Party/FreeRTOS/Source/queue.c **** 			}
 624:Middlewares/Third_Party/FreeRTOS/Source/queue.c **** 
 625:Middlewares/Third_Party/FreeRTOS/Source/queue.c **** 			xReturn = pdPASS;
 1030              		.loc 1 625 12
 1031 0054 0123     		movs	r3, #1
 1032 0056 7B61     		str	r3, [r7, #20]
 1033 0058 01E0     		b	.L58
 1034              	.L56:
 626:Middlewares/Third_Party/FreeRTOS/Source/queue.c **** 		}
 627:Middlewares/Third_Party/FreeRTOS/Source/queue.c **** 		else
 628:Middlewares/Third_Party/FreeRTOS/Source/queue.c **** 		{
 629:Middlewares/Third_Party/FreeRTOS/Source/queue.c **** 			/* The mutex cannot be given because the calling task is not the
 630:Middlewares/Third_Party/FreeRTOS/Source/queue.c **** 			holder. */
 631:Middlewares/Third_Party/FreeRTOS/Source/queue.c **** 			xReturn = pdFAIL;
 1035              		.loc 1 631 12
 1036 005a 0023     		movs	r3, #0
 1037 005c 7B61     		str	r3, [r7, #20]
 1038              	.L58:
 632:Middlewares/Third_Party/FreeRTOS/Source/queue.c **** 
 633:Middlewares/Third_Party/FreeRTOS/Source/queue.c **** 			traceGIVE_MUTEX_RECURSIVE_FAILED( pxMutex );
 634:Middlewares/Third_Party/FreeRTOS/Source/queue.c **** 		}
 635:Middlewares/Third_Party/FreeRTOS/Source/queue.c **** 
 636:Middlewares/Third_Party/FreeRTOS/Source/queue.c **** 		return xReturn;
 1039              		.loc 1 636 10
 1040 005e 7B69     		ldr	r3, [r7, #20]
 637:Middlewares/Third_Party/FreeRTOS/Source/queue.c **** 	}
 1041              		.loc 1 637 2
 1042 0060 1846     		mov	r0, r3
 1043 0062 1C37     		adds	r7, r7, #28
 1044              	.LCFI49:
 1045              		.cfi_def_cfa_offset 12
 1046 0064 BD46     		mov	sp, r7
 1047              	.LCFI50:
 1048              		.cfi_def_cfa_register 13
 1049              		@ sp needed
 1050 0066 90BD     		pop	{r4, r7, pc}
ARM GAS  C:\Users\EI\AppData\Local\Temp\cc6xPaa5.s 			page 34


 1051              		.cfi_endproc
 1052              	.LFE13:
 1054              		.section	.text.xQueueTakeMutexRecursive,"ax",%progbits
 1055              		.align	1
 1056              		.global	xQueueTakeMutexRecursive
 1057              		.syntax unified
 1058              		.thumb
 1059              		.thumb_func
 1060              		.fpu fpv4-sp-d16
 1062              	xQueueTakeMutexRecursive:
 1063              	.LFB14:
 638:Middlewares/Third_Party/FreeRTOS/Source/queue.c **** 
 639:Middlewares/Third_Party/FreeRTOS/Source/queue.c **** #endif /* configUSE_RECURSIVE_MUTEXES */
 640:Middlewares/Third_Party/FreeRTOS/Source/queue.c **** /*-----------------------------------------------------------*/
 641:Middlewares/Third_Party/FreeRTOS/Source/queue.c **** 
 642:Middlewares/Third_Party/FreeRTOS/Source/queue.c **** #if ( configUSE_RECURSIVE_MUTEXES == 1 )
 643:Middlewares/Third_Party/FreeRTOS/Source/queue.c **** 
 644:Middlewares/Third_Party/FreeRTOS/Source/queue.c **** 	BaseType_t xQueueTakeMutexRecursive( QueueHandle_t xMutex, TickType_t xTicksToWait )
 645:Middlewares/Third_Party/FreeRTOS/Source/queue.c **** 	{
 1064              		.loc 1 645 2
 1065              		.cfi_startproc
 1066              		@ args = 0, pretend = 0, frame = 24
 1067              		@ frame_needed = 1, uses_anonymous_args = 0
 1068 0000 90B5     		push	{r4, r7, lr}
 1069              	.LCFI51:
 1070              		.cfi_def_cfa_offset 12
 1071              		.cfi_offset 4, -12
 1072              		.cfi_offset 7, -8
 1073              		.cfi_offset 14, -4
 1074 0002 87B0     		sub	sp, sp, #28
 1075              	.LCFI52:
 1076              		.cfi_def_cfa_offset 40
 1077 0004 00AF     		add	r7, sp, #0
 1078              	.LCFI53:
 1079              		.cfi_def_cfa_register 7
 1080 0006 7860     		str	r0, [r7, #4]
 1081 0008 3960     		str	r1, [r7]
 646:Middlewares/Third_Party/FreeRTOS/Source/queue.c **** 	BaseType_t xReturn;
 647:Middlewares/Third_Party/FreeRTOS/Source/queue.c **** 	Queue_t * const pxMutex = ( Queue_t * ) xMutex;
 1082              		.loc 1 647 18
 1083 000a 7B68     		ldr	r3, [r7, #4]
 1084 000c 3B61     		str	r3, [r7, #16]
 648:Middlewares/Third_Party/FreeRTOS/Source/queue.c **** 
 649:Middlewares/Third_Party/FreeRTOS/Source/queue.c **** 		configASSERT( pxMutex );
 1085              		.loc 1 649 3
 1086 000e 3B69     		ldr	r3, [r7, #16]
 1087 0010 002B     		cmp	r3, #0
 1088 0012 0AD1     		bne	.L61
 1089              	.LBB137:
 1090              	.LBB138:
 195:Middlewares/Third_Party/FreeRTOS/Source/portable/GCC/ARM_CM4F/portmacro.h **** 	(
 1091              		.loc 2 195 2
 1092              		.syntax unified
 1093              	@ 195 "Middlewares/Third_Party/FreeRTOS/Source/portable/GCC/ARM_CM4F/portmacro.h" 1
 1094 0014 4FF05003 			mov r3, #80												
 1095 0018 83F31188 		msr basepri, r3											
 1096 001c BFF36F8F 		isb														
ARM GAS  C:\Users\EI\AppData\Local\Temp\cc6xPaa5.s 			page 35


 1097 0020 BFF34F8F 		dsb														
 1098              	
 1099              	@ 0 "" 2
 1100              		.thumb
 1101              		.syntax unified
 1102 0024 FB60     		str	r3, [r7, #12]
 1103              		.loc 2 203 1
 1104 0026 00BF     		nop
 1105              	.L62:
 1106              	.LBE138:
 1107              	.LBE137:
 1108              		.loc 1 649 3 discriminator 1
 1109 0028 FEE7     		b	.L62
 1110              	.L61:
 650:Middlewares/Third_Party/FreeRTOS/Source/queue.c **** 
 651:Middlewares/Third_Party/FreeRTOS/Source/queue.c **** 		/* Comments regarding mutual exclusion as per those within
 652:Middlewares/Third_Party/FreeRTOS/Source/queue.c **** 		xQueueGiveMutexRecursive(). */
 653:Middlewares/Third_Party/FreeRTOS/Source/queue.c **** 
 654:Middlewares/Third_Party/FreeRTOS/Source/queue.c **** 		traceTAKE_MUTEX_RECURSIVE( pxMutex );
 655:Middlewares/Third_Party/FreeRTOS/Source/queue.c **** 
 656:Middlewares/Third_Party/FreeRTOS/Source/queue.c **** 		if( pxMutex->u.xSemaphore.xMutexHolder == xTaskGetCurrentTaskHandle() )
 1111              		.loc 1 656 28
 1112 002a 3B69     		ldr	r3, [r7, #16]
 1113 002c 9C68     		ldr	r4, [r3, #8]
 1114              		.loc 1 656 45
 1115 002e FFF7FEFF 		bl	xTaskGetCurrentTaskHandle
 1116 0032 0346     		mov	r3, r0
 1117              		.loc 1 656 5
 1118 0034 9C42     		cmp	r4, r3
 1119 0036 07D1     		bne	.L63
 657:Middlewares/Third_Party/FreeRTOS/Source/queue.c **** 		{
 658:Middlewares/Third_Party/FreeRTOS/Source/queue.c **** 			( pxMutex->u.xSemaphore.uxRecursiveCallCount )++;
 1120              		.loc 1 658 27
 1121 0038 3B69     		ldr	r3, [r7, #16]
 1122 003a DB68     		ldr	r3, [r3, #12]
 1123              		.loc 1 658 50
 1124 003c 5A1C     		adds	r2, r3, #1
 1125 003e 3B69     		ldr	r3, [r7, #16]
 1126 0040 DA60     		str	r2, [r3, #12]
 659:Middlewares/Third_Party/FreeRTOS/Source/queue.c **** 			xReturn = pdPASS;
 1127              		.loc 1 659 12
 1128 0042 0123     		movs	r3, #1
 1129 0044 7B61     		str	r3, [r7, #20]
 1130 0046 0CE0     		b	.L64
 1131              	.L63:
 660:Middlewares/Third_Party/FreeRTOS/Source/queue.c **** 		}
 661:Middlewares/Third_Party/FreeRTOS/Source/queue.c **** 		else
 662:Middlewares/Third_Party/FreeRTOS/Source/queue.c **** 		{
 663:Middlewares/Third_Party/FreeRTOS/Source/queue.c **** 			xReturn = xQueueSemaphoreTake( pxMutex, xTicksToWait );
 1132              		.loc 1 663 14
 1133 0048 3968     		ldr	r1, [r7]
 1134 004a 3869     		ldr	r0, [r7, #16]
 1135 004c FFF7FEFF 		bl	xQueueSemaphoreTake
 1136 0050 7861     		str	r0, [r7, #20]
 664:Middlewares/Third_Party/FreeRTOS/Source/queue.c **** 
 665:Middlewares/Third_Party/FreeRTOS/Source/queue.c **** 			/* pdPASS will only be returned if the mutex was successfully
 666:Middlewares/Third_Party/FreeRTOS/Source/queue.c **** 			obtained.  The calling task may have entered the Blocked state
ARM GAS  C:\Users\EI\AppData\Local\Temp\cc6xPaa5.s 			page 36


 667:Middlewares/Third_Party/FreeRTOS/Source/queue.c **** 			before reaching here. */
 668:Middlewares/Third_Party/FreeRTOS/Source/queue.c **** 			if( xReturn != pdFAIL )
 1137              		.loc 1 668 6
 1138 0052 7B69     		ldr	r3, [r7, #20]
 1139 0054 002B     		cmp	r3, #0
 1140 0056 04D0     		beq	.L64
 669:Middlewares/Third_Party/FreeRTOS/Source/queue.c **** 			{
 670:Middlewares/Third_Party/FreeRTOS/Source/queue.c **** 				( pxMutex->u.xSemaphore.uxRecursiveCallCount )++;
 1141              		.loc 1 670 28
 1142 0058 3B69     		ldr	r3, [r7, #16]
 1143 005a DB68     		ldr	r3, [r3, #12]
 1144              		.loc 1 670 51
 1145 005c 5A1C     		adds	r2, r3, #1
 1146 005e 3B69     		ldr	r3, [r7, #16]
 1147 0060 DA60     		str	r2, [r3, #12]
 1148              	.L64:
 671:Middlewares/Third_Party/FreeRTOS/Source/queue.c **** 			}
 672:Middlewares/Third_Party/FreeRTOS/Source/queue.c **** 			else
 673:Middlewares/Third_Party/FreeRTOS/Source/queue.c **** 			{
 674:Middlewares/Third_Party/FreeRTOS/Source/queue.c **** 				traceTAKE_MUTEX_RECURSIVE_FAILED( pxMutex );
 675:Middlewares/Third_Party/FreeRTOS/Source/queue.c **** 			}
 676:Middlewares/Third_Party/FreeRTOS/Source/queue.c **** 		}
 677:Middlewares/Third_Party/FreeRTOS/Source/queue.c **** 
 678:Middlewares/Third_Party/FreeRTOS/Source/queue.c **** 		return xReturn;
 1149              		.loc 1 678 10
 1150 0062 7B69     		ldr	r3, [r7, #20]
 679:Middlewares/Third_Party/FreeRTOS/Source/queue.c **** 	}
 1151              		.loc 1 679 2
 1152 0064 1846     		mov	r0, r3
 1153 0066 1C37     		adds	r7, r7, #28
 1154              	.LCFI54:
 1155              		.cfi_def_cfa_offset 12
 1156 0068 BD46     		mov	sp, r7
 1157              	.LCFI55:
 1158              		.cfi_def_cfa_register 13
 1159              		@ sp needed
 1160 006a 90BD     		pop	{r4, r7, pc}
 1161              		.cfi_endproc
 1162              	.LFE14:
 1164              		.section	.text.xQueueCreateCountingSemaphoreStatic,"ax",%progbits
 1165              		.align	1
 1166              		.global	xQueueCreateCountingSemaphoreStatic
 1167              		.syntax unified
 1168              		.thumb
 1169              		.thumb_func
 1170              		.fpu fpv4-sp-d16
 1172              	xQueueCreateCountingSemaphoreStatic:
 1173              	.LFB15:
 680:Middlewares/Third_Party/FreeRTOS/Source/queue.c **** 
 681:Middlewares/Third_Party/FreeRTOS/Source/queue.c **** #endif /* configUSE_RECURSIVE_MUTEXES */
 682:Middlewares/Third_Party/FreeRTOS/Source/queue.c **** /*-----------------------------------------------------------*/
 683:Middlewares/Third_Party/FreeRTOS/Source/queue.c **** 
 684:Middlewares/Third_Party/FreeRTOS/Source/queue.c **** #if( ( configUSE_COUNTING_SEMAPHORES == 1 ) && ( configSUPPORT_STATIC_ALLOCATION == 1 ) )
 685:Middlewares/Third_Party/FreeRTOS/Source/queue.c **** 
 686:Middlewares/Third_Party/FreeRTOS/Source/queue.c **** 	QueueHandle_t xQueueCreateCountingSemaphoreStatic( const UBaseType_t uxMaxCount, const UBaseType_t
 687:Middlewares/Third_Party/FreeRTOS/Source/queue.c **** 	{
 1174              		.loc 1 687 2
ARM GAS  C:\Users\EI\AppData\Local\Temp\cc6xPaa5.s 			page 37


 1175              		.cfi_startproc
 1176              		@ args = 0, pretend = 0, frame = 32
 1177              		@ frame_needed = 1, uses_anonymous_args = 0
 1178 0000 80B5     		push	{r7, lr}
 1179              	.LCFI56:
 1180              		.cfi_def_cfa_offset 8
 1181              		.cfi_offset 7, -8
 1182              		.cfi_offset 14, -4
 1183 0002 8AB0     		sub	sp, sp, #40
 1184              	.LCFI57:
 1185              		.cfi_def_cfa_offset 48
 1186 0004 02AF     		add	r7, sp, #8
 1187              	.LCFI58:
 1188              		.cfi_def_cfa 7, 40
 1189 0006 F860     		str	r0, [r7, #12]
 1190 0008 B960     		str	r1, [r7, #8]
 1191 000a 7A60     		str	r2, [r7, #4]
 688:Middlewares/Third_Party/FreeRTOS/Source/queue.c **** 	QueueHandle_t xHandle;
 689:Middlewares/Third_Party/FreeRTOS/Source/queue.c **** 
 690:Middlewares/Third_Party/FreeRTOS/Source/queue.c **** 		configASSERT( uxMaxCount != 0 );
 1192              		.loc 1 690 3
 1193 000c FB68     		ldr	r3, [r7, #12]
 1194 000e 002B     		cmp	r3, #0
 1195 0010 0AD1     		bne	.L67
 1196              	.LBB139:
 1197              	.LBB140:
 195:Middlewares/Third_Party/FreeRTOS/Source/portable/GCC/ARM_CM4F/portmacro.h **** 	(
 1198              		.loc 2 195 2
 1199              		.syntax unified
 1200              	@ 195 "Middlewares/Third_Party/FreeRTOS/Source/portable/GCC/ARM_CM4F/portmacro.h" 1
 1201 0012 4FF05003 			mov r3, #80												
 1202 0016 83F31188 		msr basepri, r3											
 1203 001a BFF36F8F 		isb														
 1204 001e BFF34F8F 		dsb														
 1205              	
 1206              	@ 0 "" 2
 1207              		.thumb
 1208              		.syntax unified
 1209 0022 BB61     		str	r3, [r7, #24]
 1210              		.loc 2 203 1
 1211 0024 00BF     		nop
 1212              	.L68:
 1213              	.LBE140:
 1214              	.LBE139:
 1215              		.loc 1 690 3 discriminator 1
 1216 0026 FEE7     		b	.L68
 1217              	.L67:
 691:Middlewares/Third_Party/FreeRTOS/Source/queue.c **** 		configASSERT( uxInitialCount <= uxMaxCount );
 1218              		.loc 1 691 3
 1219 0028 BA68     		ldr	r2, [r7, #8]
 1220 002a FB68     		ldr	r3, [r7, #12]
 1221 002c 9A42     		cmp	r2, r3
 1222 002e 0AD9     		bls	.L69
 1223              	.LBB141:
 1224              	.LBB142:
 195:Middlewares/Third_Party/FreeRTOS/Source/portable/GCC/ARM_CM4F/portmacro.h **** 	(
 1225              		.loc 2 195 2
ARM GAS  C:\Users\EI\AppData\Local\Temp\cc6xPaa5.s 			page 38


 1226              		.syntax unified
 1227              	@ 195 "Middlewares/Third_Party/FreeRTOS/Source/portable/GCC/ARM_CM4F/portmacro.h" 1
 1228 0030 4FF05003 			mov r3, #80												
 1229 0034 83F31188 		msr basepri, r3											
 1230 0038 BFF36F8F 		isb														
 1231 003c BFF34F8F 		dsb														
 1232              	
 1233              	@ 0 "" 2
 1234              		.thumb
 1235              		.syntax unified
 1236 0040 7B61     		str	r3, [r7, #20]
 1237              		.loc 2 203 1
 1238 0042 00BF     		nop
 1239              	.L70:
 1240              	.LBE142:
 1241              	.LBE141:
 1242              		.loc 1 691 3 discriminator 2
 1243 0044 FEE7     		b	.L70
 1244              	.L69:
 692:Middlewares/Third_Party/FreeRTOS/Source/queue.c **** 
 693:Middlewares/Third_Party/FreeRTOS/Source/queue.c **** 		xHandle = xQueueGenericCreateStatic( uxMaxCount, queueSEMAPHORE_QUEUE_ITEM_LENGTH, NULL, pxStatic
 1245              		.loc 1 693 13
 1246 0046 0223     		movs	r3, #2
 1247 0048 0093     		str	r3, [sp]
 1248 004a 7B68     		ldr	r3, [r7, #4]
 1249 004c 0022     		movs	r2, #0
 1250 004e 0021     		movs	r1, #0
 1251 0050 F868     		ldr	r0, [r7, #12]
 1252 0052 FFF7FEFF 		bl	xQueueGenericCreateStatic
 1253 0056 F861     		str	r0, [r7, #28]
 694:Middlewares/Third_Party/FreeRTOS/Source/queue.c **** 
 695:Middlewares/Third_Party/FreeRTOS/Source/queue.c **** 		if( xHandle != NULL )
 1254              		.loc 1 695 5
 1255 0058 FB69     		ldr	r3, [r7, #28]
 1256 005a 002B     		cmp	r3, #0
 1257 005c 02D0     		beq	.L71
 696:Middlewares/Third_Party/FreeRTOS/Source/queue.c **** 		{
 697:Middlewares/Third_Party/FreeRTOS/Source/queue.c **** 			( ( Queue_t * ) xHandle )->uxMessagesWaiting = uxInitialCount;
 1258              		.loc 1 697 49
 1259 005e FB69     		ldr	r3, [r7, #28]
 1260 0060 BA68     		ldr	r2, [r7, #8]
 1261 0062 9A63     		str	r2, [r3, #56]
 1262              	.L71:
 698:Middlewares/Third_Party/FreeRTOS/Source/queue.c **** 
 699:Middlewares/Third_Party/FreeRTOS/Source/queue.c **** 			traceCREATE_COUNTING_SEMAPHORE();
 700:Middlewares/Third_Party/FreeRTOS/Source/queue.c **** 		}
 701:Middlewares/Third_Party/FreeRTOS/Source/queue.c **** 		else
 702:Middlewares/Third_Party/FreeRTOS/Source/queue.c **** 		{
 703:Middlewares/Third_Party/FreeRTOS/Source/queue.c **** 			traceCREATE_COUNTING_SEMAPHORE_FAILED();
 704:Middlewares/Third_Party/FreeRTOS/Source/queue.c **** 		}
 705:Middlewares/Third_Party/FreeRTOS/Source/queue.c **** 
 706:Middlewares/Third_Party/FreeRTOS/Source/queue.c **** 		return xHandle;
 1263              		.loc 1 706 10
 1264 0064 FB69     		ldr	r3, [r7, #28]
 707:Middlewares/Third_Party/FreeRTOS/Source/queue.c **** 	}
 1265              		.loc 1 707 2
 1266 0066 1846     		mov	r0, r3
ARM GAS  C:\Users\EI\AppData\Local\Temp\cc6xPaa5.s 			page 39


 1267 0068 2037     		adds	r7, r7, #32
 1268              	.LCFI59:
 1269              		.cfi_def_cfa_offset 8
 1270 006a BD46     		mov	sp, r7
 1271              	.LCFI60:
 1272              		.cfi_def_cfa_register 13
 1273              		@ sp needed
 1274 006c 80BD     		pop	{r7, pc}
 1275              		.cfi_endproc
 1276              	.LFE15:
 1278              		.section	.text.xQueueCreateCountingSemaphore,"ax",%progbits
 1279              		.align	1
 1280              		.global	xQueueCreateCountingSemaphore
 1281              		.syntax unified
 1282              		.thumb
 1283              		.thumb_func
 1284              		.fpu fpv4-sp-d16
 1286              	xQueueCreateCountingSemaphore:
 1287              	.LFB16:
 708:Middlewares/Third_Party/FreeRTOS/Source/queue.c **** 
 709:Middlewares/Third_Party/FreeRTOS/Source/queue.c **** #endif /* ( ( configUSE_COUNTING_SEMAPHORES == 1 ) && ( configSUPPORT_DYNAMIC_ALLOCATION == 1 ) ) *
 710:Middlewares/Third_Party/FreeRTOS/Source/queue.c **** /*-----------------------------------------------------------*/
 711:Middlewares/Third_Party/FreeRTOS/Source/queue.c **** 
 712:Middlewares/Third_Party/FreeRTOS/Source/queue.c **** #if( ( configUSE_COUNTING_SEMAPHORES == 1 ) && ( configSUPPORT_DYNAMIC_ALLOCATION == 1 ) )
 713:Middlewares/Third_Party/FreeRTOS/Source/queue.c **** 
 714:Middlewares/Third_Party/FreeRTOS/Source/queue.c **** 	QueueHandle_t xQueueCreateCountingSemaphore( const UBaseType_t uxMaxCount, const UBaseType_t uxIni
 715:Middlewares/Third_Party/FreeRTOS/Source/queue.c **** 	{
 1288              		.loc 1 715 2
 1289              		.cfi_startproc
 1290              		@ args = 0, pretend = 0, frame = 24
 1291              		@ frame_needed = 1, uses_anonymous_args = 0
 1292 0000 80B5     		push	{r7, lr}
 1293              	.LCFI61:
 1294              		.cfi_def_cfa_offset 8
 1295              		.cfi_offset 7, -8
 1296              		.cfi_offset 14, -4
 1297 0002 86B0     		sub	sp, sp, #24
 1298              	.LCFI62:
 1299              		.cfi_def_cfa_offset 32
 1300 0004 00AF     		add	r7, sp, #0
 1301              	.LCFI63:
 1302              		.cfi_def_cfa_register 7
 1303 0006 7860     		str	r0, [r7, #4]
 1304 0008 3960     		str	r1, [r7]
 716:Middlewares/Third_Party/FreeRTOS/Source/queue.c **** 	QueueHandle_t xHandle;
 717:Middlewares/Third_Party/FreeRTOS/Source/queue.c **** 
 718:Middlewares/Third_Party/FreeRTOS/Source/queue.c **** 		configASSERT( uxMaxCount != 0 );
 1305              		.loc 1 718 3
 1306 000a 7B68     		ldr	r3, [r7, #4]
 1307 000c 002B     		cmp	r3, #0
 1308 000e 0AD1     		bne	.L74
 1309              	.LBB143:
 1310              	.LBB144:
 195:Middlewares/Third_Party/FreeRTOS/Source/portable/GCC/ARM_CM4F/portmacro.h **** 	(
 1311              		.loc 2 195 2
 1312              		.syntax unified
 1313              	@ 195 "Middlewares/Third_Party/FreeRTOS/Source/portable/GCC/ARM_CM4F/portmacro.h" 1
ARM GAS  C:\Users\EI\AppData\Local\Temp\cc6xPaa5.s 			page 40


 1314 0010 4FF05003 			mov r3, #80												
 1315 0014 83F31188 		msr basepri, r3											
 1316 0018 BFF36F8F 		isb														
 1317 001c BFF34F8F 		dsb														
 1318              	
 1319              	@ 0 "" 2
 1320              		.thumb
 1321              		.syntax unified
 1322 0020 3B61     		str	r3, [r7, #16]
 1323              		.loc 2 203 1
 1324 0022 00BF     		nop
 1325              	.L75:
 1326              	.LBE144:
 1327              	.LBE143:
 1328              		.loc 1 718 3 discriminator 1
 1329 0024 FEE7     		b	.L75
 1330              	.L74:
 719:Middlewares/Third_Party/FreeRTOS/Source/queue.c **** 		configASSERT( uxInitialCount <= uxMaxCount );
 1331              		.loc 1 719 3
 1332 0026 3A68     		ldr	r2, [r7]
 1333 0028 7B68     		ldr	r3, [r7, #4]
 1334 002a 9A42     		cmp	r2, r3
 1335 002c 0AD9     		bls	.L76
 1336              	.LBB145:
 1337              	.LBB146:
 195:Middlewares/Third_Party/FreeRTOS/Source/portable/GCC/ARM_CM4F/portmacro.h **** 	(
 1338              		.loc 2 195 2
 1339              		.syntax unified
 1340              	@ 195 "Middlewares/Third_Party/FreeRTOS/Source/portable/GCC/ARM_CM4F/portmacro.h" 1
 1341 002e 4FF05003 			mov r3, #80												
 1342 0032 83F31188 		msr basepri, r3											
 1343 0036 BFF36F8F 		isb														
 1344 003a BFF34F8F 		dsb														
 1345              	
 1346              	@ 0 "" 2
 1347              		.thumb
 1348              		.syntax unified
 1349 003e FB60     		str	r3, [r7, #12]
 1350              		.loc 2 203 1
 1351 0040 00BF     		nop
 1352              	.L77:
 1353              	.LBE146:
 1354              	.LBE145:
 1355              		.loc 1 719 3 discriminator 2
 1356 0042 FEE7     		b	.L77
 1357              	.L76:
 720:Middlewares/Third_Party/FreeRTOS/Source/queue.c **** 
 721:Middlewares/Third_Party/FreeRTOS/Source/queue.c **** 		xHandle = xQueueGenericCreate( uxMaxCount, queueSEMAPHORE_QUEUE_ITEM_LENGTH, queueQUEUE_TYPE_COUN
 1358              		.loc 1 721 13
 1359 0044 0222     		movs	r2, #2
 1360 0046 0021     		movs	r1, #0
 1361 0048 7868     		ldr	r0, [r7, #4]
 1362 004a FFF7FEFF 		bl	xQueueGenericCreate
 1363 004e 7861     		str	r0, [r7, #20]
 722:Middlewares/Third_Party/FreeRTOS/Source/queue.c **** 
 723:Middlewares/Third_Party/FreeRTOS/Source/queue.c **** 		if( xHandle != NULL )
 1364              		.loc 1 723 5
ARM GAS  C:\Users\EI\AppData\Local\Temp\cc6xPaa5.s 			page 41


 1365 0050 7B69     		ldr	r3, [r7, #20]
 1366 0052 002B     		cmp	r3, #0
 1367 0054 02D0     		beq	.L78
 724:Middlewares/Third_Party/FreeRTOS/Source/queue.c **** 		{
 725:Middlewares/Third_Party/FreeRTOS/Source/queue.c **** 			( ( Queue_t * ) xHandle )->uxMessagesWaiting = uxInitialCount;
 1368              		.loc 1 725 49
 1369 0056 7B69     		ldr	r3, [r7, #20]
 1370 0058 3A68     		ldr	r2, [r7]
 1371 005a 9A63     		str	r2, [r3, #56]
 1372              	.L78:
 726:Middlewares/Third_Party/FreeRTOS/Source/queue.c **** 
 727:Middlewares/Third_Party/FreeRTOS/Source/queue.c **** 			traceCREATE_COUNTING_SEMAPHORE();
 728:Middlewares/Third_Party/FreeRTOS/Source/queue.c **** 		}
 729:Middlewares/Third_Party/FreeRTOS/Source/queue.c **** 		else
 730:Middlewares/Third_Party/FreeRTOS/Source/queue.c **** 		{
 731:Middlewares/Third_Party/FreeRTOS/Source/queue.c **** 			traceCREATE_COUNTING_SEMAPHORE_FAILED();
 732:Middlewares/Third_Party/FreeRTOS/Source/queue.c **** 		}
 733:Middlewares/Third_Party/FreeRTOS/Source/queue.c **** 
 734:Middlewares/Third_Party/FreeRTOS/Source/queue.c **** 		return xHandle;
 1373              		.loc 1 734 10
 1374 005c 7B69     		ldr	r3, [r7, #20]
 735:Middlewares/Third_Party/FreeRTOS/Source/queue.c **** 	}
 1375              		.loc 1 735 2
 1376 005e 1846     		mov	r0, r3
 1377 0060 1837     		adds	r7, r7, #24
 1378              	.LCFI64:
 1379              		.cfi_def_cfa_offset 8
 1380 0062 BD46     		mov	sp, r7
 1381              	.LCFI65:
 1382              		.cfi_def_cfa_register 13
 1383              		@ sp needed
 1384 0064 80BD     		pop	{r7, pc}
 1385              		.cfi_endproc
 1386              	.LFE16:
 1388              		.section	.text.xQueueGenericSend,"ax",%progbits
 1389              		.align	1
 1390              		.global	xQueueGenericSend
 1391              		.syntax unified
 1392              		.thumb
 1393              		.thumb_func
 1394              		.fpu fpv4-sp-d16
 1396              	xQueueGenericSend:
 1397              	.LFB17:
 736:Middlewares/Third_Party/FreeRTOS/Source/queue.c **** 
 737:Middlewares/Third_Party/FreeRTOS/Source/queue.c **** #endif /* ( ( configUSE_COUNTING_SEMAPHORES == 1 ) && ( configSUPPORT_DYNAMIC_ALLOCATION == 1 ) ) *
 738:Middlewares/Third_Party/FreeRTOS/Source/queue.c **** /*-----------------------------------------------------------*/
 739:Middlewares/Third_Party/FreeRTOS/Source/queue.c **** 
 740:Middlewares/Third_Party/FreeRTOS/Source/queue.c **** BaseType_t xQueueGenericSend( QueueHandle_t xQueue, const void * const pvItemToQueue, TickType_t xT
 741:Middlewares/Third_Party/FreeRTOS/Source/queue.c **** {
 1398              		.loc 1 741 1
 1399              		.cfi_startproc
 1400              		@ args = 0, pretend = 0, frame = 56
 1401              		@ frame_needed = 1, uses_anonymous_args = 0
 1402 0000 80B5     		push	{r7, lr}
 1403              	.LCFI66:
 1404              		.cfi_def_cfa_offset 8
 1405              		.cfi_offset 7, -8
ARM GAS  C:\Users\EI\AppData\Local\Temp\cc6xPaa5.s 			page 42


 1406              		.cfi_offset 14, -4
 1407 0002 8EB0     		sub	sp, sp, #56
 1408              	.LCFI67:
 1409              		.cfi_def_cfa_offset 64
 1410 0004 00AF     		add	r7, sp, #0
 1411              	.LCFI68:
 1412              		.cfi_def_cfa_register 7
 1413 0006 F860     		str	r0, [r7, #12]
 1414 0008 B960     		str	r1, [r7, #8]
 1415 000a 7A60     		str	r2, [r7, #4]
 1416 000c 3B60     		str	r3, [r7]
 742:Middlewares/Third_Party/FreeRTOS/Source/queue.c **** BaseType_t xEntryTimeSet = pdFALSE, xYieldRequired;
 1417              		.loc 1 742 12
 1418 000e 0023     		movs	r3, #0
 1419 0010 7B63     		str	r3, [r7, #52]
 743:Middlewares/Third_Party/FreeRTOS/Source/queue.c **** TimeOut_t xTimeOut;
 744:Middlewares/Third_Party/FreeRTOS/Source/queue.c **** Queue_t * const pxQueue = xQueue;
 1420              		.loc 1 744 17
 1421 0012 FB68     		ldr	r3, [r7, #12]
 1422 0014 3B63     		str	r3, [r7, #48]
 745:Middlewares/Third_Party/FreeRTOS/Source/queue.c **** 
 746:Middlewares/Third_Party/FreeRTOS/Source/queue.c **** 	configASSERT( pxQueue );
 1423              		.loc 1 746 2
 1424 0016 3B6B     		ldr	r3, [r7, #48]
 1425 0018 002B     		cmp	r3, #0
 1426 001a 0AD1     		bne	.L81
 1427              	.LBB147:
 1428              	.LBB148:
 195:Middlewares/Third_Party/FreeRTOS/Source/portable/GCC/ARM_CM4F/portmacro.h **** 	(
 1429              		.loc 2 195 2
 1430              		.syntax unified
 1431              	@ 195 "Middlewares/Third_Party/FreeRTOS/Source/portable/GCC/ARM_CM4F/portmacro.h" 1
 1432 001c 4FF05003 			mov r3, #80												
 1433 0020 83F31188 		msr basepri, r3											
 1434 0024 BFF36F8F 		isb														
 1435 0028 BFF34F8F 		dsb														
 1436              	
 1437              	@ 0 "" 2
 1438              		.thumb
 1439              		.syntax unified
 1440 002c BB62     		str	r3, [r7, #40]
 1441              		.loc 2 203 1
 1442 002e 00BF     		nop
 1443              	.L82:
 1444              	.LBE148:
 1445              	.LBE147:
 1446              		.loc 1 746 2 discriminator 1
 1447 0030 FEE7     		b	.L82
 1448              	.L81:
 747:Middlewares/Third_Party/FreeRTOS/Source/queue.c **** 	configASSERT( !( ( pvItemToQueue == NULL ) && ( pxQueue->uxItemSize != ( UBaseType_t ) 0U ) ) );
 1449              		.loc 1 747 2
 1450 0032 BB68     		ldr	r3, [r7, #8]
 1451 0034 002B     		cmp	r3, #0
 1452 0036 03D1     		bne	.L83
 1453              		.loc 1 747 2 is_stmt 0 discriminator 2
 1454 0038 3B6B     		ldr	r3, [r7, #48]
 1455 003a 1B6C     		ldr	r3, [r3, #64]
ARM GAS  C:\Users\EI\AppData\Local\Temp\cc6xPaa5.s 			page 43


 1456 003c 002B     		cmp	r3, #0
 1457 003e 01D1     		bne	.L84
 1458              	.L83:
 1459              		.loc 1 747 2 discriminator 3
 1460 0040 0123     		movs	r3, #1
 1461 0042 00E0     		b	.L85
 1462              	.L84:
 1463              		.loc 1 747 2 discriminator 4
 1464 0044 0023     		movs	r3, #0
 1465              	.L85:
 1466              		.loc 1 747 2 discriminator 6
 1467 0046 002B     		cmp	r3, #0
 1468 0048 0AD1     		bne	.L86
 1469              	.LBB149:
 1470              	.LBB150:
 195:Middlewares/Third_Party/FreeRTOS/Source/portable/GCC/ARM_CM4F/portmacro.h **** 	(
 1471              		.loc 2 195 2 is_stmt 1
 1472              		.syntax unified
 1473              	@ 195 "Middlewares/Third_Party/FreeRTOS/Source/portable/GCC/ARM_CM4F/portmacro.h" 1
 1474 004a 4FF05003 			mov r3, #80												
 1475 004e 83F31188 		msr basepri, r3											
 1476 0052 BFF36F8F 		isb														
 1477 0056 BFF34F8F 		dsb														
 1478              	
 1479              	@ 0 "" 2
 1480              		.thumb
 1481              		.syntax unified
 1482 005a 7B62     		str	r3, [r7, #36]
 1483              		.loc 2 203 1
 1484 005c 00BF     		nop
 1485              	.L87:
 1486              	.LBE150:
 1487              	.LBE149:
 1488              		.loc 1 747 2 discriminator 2
 1489 005e FEE7     		b	.L87
 1490              	.L86:
 748:Middlewares/Third_Party/FreeRTOS/Source/queue.c **** 	configASSERT( !( ( xCopyPosition == queueOVERWRITE ) && ( pxQueue->uxLength != 1 ) ) );
 1491              		.loc 1 748 2
 1492 0060 3B68     		ldr	r3, [r7]
 1493 0062 022B     		cmp	r3, #2
 1494 0064 03D1     		bne	.L88
 1495              		.loc 1 748 2 is_stmt 0 discriminator 2
 1496 0066 3B6B     		ldr	r3, [r7, #48]
 1497 0068 DB6B     		ldr	r3, [r3, #60]
 1498 006a 012B     		cmp	r3, #1
 1499 006c 01D1     		bne	.L89
 1500              	.L88:
 1501              		.loc 1 748 2 discriminator 3
 1502 006e 0123     		movs	r3, #1
 1503 0070 00E0     		b	.L90
 1504              	.L89:
 1505              		.loc 1 748 2 discriminator 4
 1506 0072 0023     		movs	r3, #0
 1507              	.L90:
 1508              		.loc 1 748 2 discriminator 6
 1509 0074 002B     		cmp	r3, #0
 1510 0076 0AD1     		bne	.L91
ARM GAS  C:\Users\EI\AppData\Local\Temp\cc6xPaa5.s 			page 44


 1511              	.LBB151:
 1512              	.LBB152:
 195:Middlewares/Third_Party/FreeRTOS/Source/portable/GCC/ARM_CM4F/portmacro.h **** 	(
 1513              		.loc 2 195 2 is_stmt 1
 1514              		.syntax unified
 1515              	@ 195 "Middlewares/Third_Party/FreeRTOS/Source/portable/GCC/ARM_CM4F/portmacro.h" 1
 1516 0078 4FF05003 			mov r3, #80												
 1517 007c 83F31188 		msr basepri, r3											
 1518 0080 BFF36F8F 		isb														
 1519 0084 BFF34F8F 		dsb														
 1520              	
 1521              	@ 0 "" 2
 1522              		.thumb
 1523              		.syntax unified
 1524 0088 3B62     		str	r3, [r7, #32]
 1525              		.loc 2 203 1
 1526 008a 00BF     		nop
 1527              	.L92:
 1528              	.LBE152:
 1529              	.LBE151:
 1530              		.loc 1 748 2 discriminator 3
 1531 008c FEE7     		b	.L92
 1532              	.L91:
 749:Middlewares/Third_Party/FreeRTOS/Source/queue.c **** 	#if ( ( INCLUDE_xTaskGetSchedulerState == 1 ) || ( configUSE_TIMERS == 1 ) )
 750:Middlewares/Third_Party/FreeRTOS/Source/queue.c **** 	{
 751:Middlewares/Third_Party/FreeRTOS/Source/queue.c **** 		configASSERT( !( ( xTaskGetSchedulerState() == taskSCHEDULER_SUSPENDED ) && ( xTicksToWait != 0 )
 1533              		.loc 1 751 3
 1534 008e FFF7FEFF 		bl	xTaskGetSchedulerState
 1535 0092 0346     		mov	r3, r0
 1536 0094 002B     		cmp	r3, #0
 1537 0096 02D1     		bne	.L93
 1538              		.loc 1 751 3 is_stmt 0 discriminator 2
 1539 0098 7B68     		ldr	r3, [r7, #4]
 1540 009a 002B     		cmp	r3, #0
 1541 009c 01D1     		bne	.L94
 1542              	.L93:
 1543              		.loc 1 751 3 discriminator 3
 1544 009e 0123     		movs	r3, #1
 1545 00a0 00E0     		b	.L95
 1546              	.L94:
 1547              		.loc 1 751 3 discriminator 4
 1548 00a2 0023     		movs	r3, #0
 1549              	.L95:
 1550              		.loc 1 751 3 discriminator 6
 1551 00a4 002B     		cmp	r3, #0
 1552 00a6 0AD1     		bne	.L96
 1553              	.LBB153:
 1554              	.LBB154:
 195:Middlewares/Third_Party/FreeRTOS/Source/portable/GCC/ARM_CM4F/portmacro.h **** 	(
 1555              		.loc 2 195 2 is_stmt 1
 1556              		.syntax unified
 1557              	@ 195 "Middlewares/Third_Party/FreeRTOS/Source/portable/GCC/ARM_CM4F/portmacro.h" 1
 1558 00a8 4FF05003 			mov r3, #80												
 1559 00ac 83F31188 		msr basepri, r3											
 1560 00b0 BFF36F8F 		isb														
 1561 00b4 BFF34F8F 		dsb														
 1562              	
ARM GAS  C:\Users\EI\AppData\Local\Temp\cc6xPaa5.s 			page 45


 1563              	@ 0 "" 2
 1564              		.thumb
 1565              		.syntax unified
 1566 00b8 FB61     		str	r3, [r7, #28]
 1567              		.loc 2 203 1
 1568 00ba 00BF     		nop
 1569              	.L97:
 1570              	.LBE154:
 1571              	.LBE153:
 1572              		.loc 1 751 3 discriminator 4
 1573 00bc FEE7     		b	.L97
 1574              	.L96:
 752:Middlewares/Third_Party/FreeRTOS/Source/queue.c **** 	}
 753:Middlewares/Third_Party/FreeRTOS/Source/queue.c **** 	#endif
 754:Middlewares/Third_Party/FreeRTOS/Source/queue.c **** 
 755:Middlewares/Third_Party/FreeRTOS/Source/queue.c **** 
 756:Middlewares/Third_Party/FreeRTOS/Source/queue.c **** 	/*lint -save -e904 This function relaxes the coding standard somewhat to
 757:Middlewares/Third_Party/FreeRTOS/Source/queue.c **** 	allow return statements within the function itself.  This is done in the
 758:Middlewares/Third_Party/FreeRTOS/Source/queue.c **** 	interest of execution time efficiency. */
 759:Middlewares/Third_Party/FreeRTOS/Source/queue.c **** 	for( ;; )
 760:Middlewares/Third_Party/FreeRTOS/Source/queue.c **** 	{
 761:Middlewares/Third_Party/FreeRTOS/Source/queue.c **** 		taskENTER_CRITICAL();
 1575              		.loc 1 761 3
 1576 00be FFF7FEFF 		bl	vPortEnterCritical
 762:Middlewares/Third_Party/FreeRTOS/Source/queue.c **** 		{
 763:Middlewares/Third_Party/FreeRTOS/Source/queue.c **** 			/* Is there room on the queue now?  The running task must be the
 764:Middlewares/Third_Party/FreeRTOS/Source/queue.c **** 			highest priority task wanting to access the queue.  If the head item
 765:Middlewares/Third_Party/FreeRTOS/Source/queue.c **** 			in the queue is to be overwritten then it does not matter if the
 766:Middlewares/Third_Party/FreeRTOS/Source/queue.c **** 			queue is full. */
 767:Middlewares/Third_Party/FreeRTOS/Source/queue.c **** 			if( ( pxQueue->uxMessagesWaiting < pxQueue->uxLength ) || ( xCopyPosition == queueOVERWRITE ) )
 1577              		.loc 1 767 17
 1578 00c2 3B6B     		ldr	r3, [r7, #48]
 1579 00c4 9A6B     		ldr	r2, [r3, #56]
 1580              		.loc 1 767 46
 1581 00c6 3B6B     		ldr	r3, [r7, #48]
 1582 00c8 DB6B     		ldr	r3, [r3, #60]
 1583              		.loc 1 767 6
 1584 00ca 9A42     		cmp	r2, r3
 1585 00cc 02D3     		bcc	.L98
 1586              		.loc 1 767 59 discriminator 1
 1587 00ce 3B68     		ldr	r3, [r7]
 1588 00d0 022B     		cmp	r3, #2
 1589 00d2 29D1     		bne	.L99
 1590              	.L98:
 768:Middlewares/Third_Party/FreeRTOS/Source/queue.c **** 			{
 769:Middlewares/Third_Party/FreeRTOS/Source/queue.c **** 				traceQUEUE_SEND( pxQueue );
 770:Middlewares/Third_Party/FreeRTOS/Source/queue.c **** 
 771:Middlewares/Third_Party/FreeRTOS/Source/queue.c **** 				#if ( configUSE_QUEUE_SETS == 1 )
 772:Middlewares/Third_Party/FreeRTOS/Source/queue.c **** 				{
 773:Middlewares/Third_Party/FreeRTOS/Source/queue.c **** 				const UBaseType_t uxPreviousMessagesWaiting = pxQueue->uxMessagesWaiting;
 774:Middlewares/Third_Party/FreeRTOS/Source/queue.c **** 
 775:Middlewares/Third_Party/FreeRTOS/Source/queue.c **** 					xYieldRequired = prvCopyDataToQueue( pxQueue, pvItemToQueue, xCopyPosition );
 776:Middlewares/Third_Party/FreeRTOS/Source/queue.c **** 
 777:Middlewares/Third_Party/FreeRTOS/Source/queue.c **** 					if( pxQueue->pxQueueSetContainer != NULL )
 778:Middlewares/Third_Party/FreeRTOS/Source/queue.c **** 					{
 779:Middlewares/Third_Party/FreeRTOS/Source/queue.c **** 						if( ( xCopyPosition == queueOVERWRITE ) && ( uxPreviousMessagesWaiting != ( UBaseType_t ) 0 )
 780:Middlewares/Third_Party/FreeRTOS/Source/queue.c **** 						{
ARM GAS  C:\Users\EI\AppData\Local\Temp\cc6xPaa5.s 			page 46


 781:Middlewares/Third_Party/FreeRTOS/Source/queue.c **** 							/* Do not notify the queue set as an existing item
 782:Middlewares/Third_Party/FreeRTOS/Source/queue.c **** 							was overwritten in the queue so the number of items
 783:Middlewares/Third_Party/FreeRTOS/Source/queue.c **** 							in the queue has not changed. */
 784:Middlewares/Third_Party/FreeRTOS/Source/queue.c **** 							mtCOVERAGE_TEST_MARKER();
 785:Middlewares/Third_Party/FreeRTOS/Source/queue.c **** 						}
 786:Middlewares/Third_Party/FreeRTOS/Source/queue.c **** 						else if( prvNotifyQueueSetContainer( pxQueue ) != pdFALSE )
 787:Middlewares/Third_Party/FreeRTOS/Source/queue.c **** 						{
 788:Middlewares/Third_Party/FreeRTOS/Source/queue.c **** 							/* The queue is a member of a queue set, and posting
 789:Middlewares/Third_Party/FreeRTOS/Source/queue.c **** 							to the queue set caused a higher priority task to
 790:Middlewares/Third_Party/FreeRTOS/Source/queue.c **** 							unblock. A context switch is required. */
 791:Middlewares/Third_Party/FreeRTOS/Source/queue.c **** 							queueYIELD_IF_USING_PREEMPTION();
 792:Middlewares/Third_Party/FreeRTOS/Source/queue.c **** 						}
 793:Middlewares/Third_Party/FreeRTOS/Source/queue.c **** 						else
 794:Middlewares/Third_Party/FreeRTOS/Source/queue.c **** 						{
 795:Middlewares/Third_Party/FreeRTOS/Source/queue.c **** 							mtCOVERAGE_TEST_MARKER();
 796:Middlewares/Third_Party/FreeRTOS/Source/queue.c **** 						}
 797:Middlewares/Third_Party/FreeRTOS/Source/queue.c **** 					}
 798:Middlewares/Third_Party/FreeRTOS/Source/queue.c **** 					else
 799:Middlewares/Third_Party/FreeRTOS/Source/queue.c **** 					{
 800:Middlewares/Third_Party/FreeRTOS/Source/queue.c **** 						/* If there was a task waiting for data to arrive on the
 801:Middlewares/Third_Party/FreeRTOS/Source/queue.c **** 						queue then unblock it now. */
 802:Middlewares/Third_Party/FreeRTOS/Source/queue.c **** 						if( listLIST_IS_EMPTY( &( pxQueue->xTasksWaitingToReceive ) ) == pdFALSE )
 803:Middlewares/Third_Party/FreeRTOS/Source/queue.c **** 						{
 804:Middlewares/Third_Party/FreeRTOS/Source/queue.c **** 							if( xTaskRemoveFromEventList( &( pxQueue->xTasksWaitingToReceive ) ) != pdFALSE )
 805:Middlewares/Third_Party/FreeRTOS/Source/queue.c **** 							{
 806:Middlewares/Third_Party/FreeRTOS/Source/queue.c **** 								/* The unblocked task has a priority higher than
 807:Middlewares/Third_Party/FreeRTOS/Source/queue.c **** 								our own so yield immediately.  Yes it is ok to
 808:Middlewares/Third_Party/FreeRTOS/Source/queue.c **** 								do this from within the critical section - the
 809:Middlewares/Third_Party/FreeRTOS/Source/queue.c **** 								kernel takes care of that. */
 810:Middlewares/Third_Party/FreeRTOS/Source/queue.c **** 								queueYIELD_IF_USING_PREEMPTION();
 811:Middlewares/Third_Party/FreeRTOS/Source/queue.c **** 							}
 812:Middlewares/Third_Party/FreeRTOS/Source/queue.c **** 							else
 813:Middlewares/Third_Party/FreeRTOS/Source/queue.c **** 							{
 814:Middlewares/Third_Party/FreeRTOS/Source/queue.c **** 								mtCOVERAGE_TEST_MARKER();
 815:Middlewares/Third_Party/FreeRTOS/Source/queue.c **** 							}
 816:Middlewares/Third_Party/FreeRTOS/Source/queue.c **** 						}
 817:Middlewares/Third_Party/FreeRTOS/Source/queue.c **** 						else if( xYieldRequired != pdFALSE )
 818:Middlewares/Third_Party/FreeRTOS/Source/queue.c **** 						{
 819:Middlewares/Third_Party/FreeRTOS/Source/queue.c **** 							/* This path is a special case that will only get
 820:Middlewares/Third_Party/FreeRTOS/Source/queue.c **** 							executed if the task was holding multiple mutexes
 821:Middlewares/Third_Party/FreeRTOS/Source/queue.c **** 							and the mutexes were given back in an order that is
 822:Middlewares/Third_Party/FreeRTOS/Source/queue.c **** 							different to that in which they were taken. */
 823:Middlewares/Third_Party/FreeRTOS/Source/queue.c **** 							queueYIELD_IF_USING_PREEMPTION();
 824:Middlewares/Third_Party/FreeRTOS/Source/queue.c **** 						}
 825:Middlewares/Third_Party/FreeRTOS/Source/queue.c **** 						else
 826:Middlewares/Third_Party/FreeRTOS/Source/queue.c **** 						{
 827:Middlewares/Third_Party/FreeRTOS/Source/queue.c **** 							mtCOVERAGE_TEST_MARKER();
 828:Middlewares/Third_Party/FreeRTOS/Source/queue.c **** 						}
 829:Middlewares/Third_Party/FreeRTOS/Source/queue.c **** 					}
 830:Middlewares/Third_Party/FreeRTOS/Source/queue.c **** 				}
 831:Middlewares/Third_Party/FreeRTOS/Source/queue.c **** 				#else /* configUSE_QUEUE_SETS */
 832:Middlewares/Third_Party/FreeRTOS/Source/queue.c **** 				{
 833:Middlewares/Third_Party/FreeRTOS/Source/queue.c **** 					xYieldRequired = prvCopyDataToQueue( pxQueue, pvItemToQueue, xCopyPosition );
 1591              		.loc 1 833 23
 1592 00d4 3A68     		ldr	r2, [r7]
 1593 00d6 B968     		ldr	r1, [r7, #8]
 1594 00d8 386B     		ldr	r0, [r7, #48]
ARM GAS  C:\Users\EI\AppData\Local\Temp\cc6xPaa5.s 			page 47


 1595 00da FFF7FEFF 		bl	prvCopyDataToQueue
 1596 00de F862     		str	r0, [r7, #44]
 834:Middlewares/Third_Party/FreeRTOS/Source/queue.c **** 
 835:Middlewares/Third_Party/FreeRTOS/Source/queue.c **** 					/* If there was a task waiting for data to arrive on the
 836:Middlewares/Third_Party/FreeRTOS/Source/queue.c **** 					queue then unblock it now. */
 837:Middlewares/Third_Party/FreeRTOS/Source/queue.c **** 					if( listLIST_IS_EMPTY( &( pxQueue->xTasksWaitingToReceive ) ) == pdFALSE )
 1597              		.loc 1 837 10
 1598 00e0 3B6B     		ldr	r3, [r7, #48]
 1599 00e2 5B6A     		ldr	r3, [r3, #36]
 1600              		.loc 1 837 8
 1601 00e4 002B     		cmp	r3, #0
 1602 00e6 10D0     		beq	.L100
 838:Middlewares/Third_Party/FreeRTOS/Source/queue.c **** 					{
 839:Middlewares/Third_Party/FreeRTOS/Source/queue.c **** 						if( xTaskRemoveFromEventList( &( pxQueue->xTasksWaitingToReceive ) ) != pdFALSE )
 1603              		.loc 1 839 37
 1604 00e8 3B6B     		ldr	r3, [r7, #48]
 1605 00ea 2433     		adds	r3, r3, #36
 1606              		.loc 1 839 11
 1607 00ec 1846     		mov	r0, r3
 1608 00ee FFF7FEFF 		bl	xTaskRemoveFromEventList
 1609 00f2 0346     		mov	r3, r0
 1610              		.loc 1 839 9
 1611 00f4 002B     		cmp	r3, #0
 1612 00f6 13D0     		beq	.L101
 840:Middlewares/Third_Party/FreeRTOS/Source/queue.c **** 						{
 841:Middlewares/Third_Party/FreeRTOS/Source/queue.c **** 							/* The unblocked task has a priority higher than
 842:Middlewares/Third_Party/FreeRTOS/Source/queue.c **** 							our own so yield immediately.  Yes it is ok to do
 843:Middlewares/Third_Party/FreeRTOS/Source/queue.c **** 							this from within the critical section - the kernel
 844:Middlewares/Third_Party/FreeRTOS/Source/queue.c **** 							takes care of that. */
 845:Middlewares/Third_Party/FreeRTOS/Source/queue.c **** 							queueYIELD_IF_USING_PREEMPTION();
 1613              		.loc 1 845 8
 1614 00f8 3F4B     		ldr	r3, .L111
 1615 00fa 4FF08052 		mov	r2, #268435456
 1616 00fe 1A60     		str	r2, [r3]
 1617              		.syntax unified
 1618              	@ 845 "Middlewares/Third_Party/FreeRTOS/Source/queue.c" 1
 1619 0100 BFF34F8F 		dsb
 1620              	@ 0 "" 2
 1621              	@ 845 "Middlewares/Third_Party/FreeRTOS/Source/queue.c" 1
 1622 0104 BFF36F8F 		isb
 1623              	@ 0 "" 2
 1624              		.thumb
 1625              		.syntax unified
 1626 0108 0AE0     		b	.L101
 1627              	.L100:
 846:Middlewares/Third_Party/FreeRTOS/Source/queue.c **** 						}
 847:Middlewares/Third_Party/FreeRTOS/Source/queue.c **** 						else
 848:Middlewares/Third_Party/FreeRTOS/Source/queue.c **** 						{
 849:Middlewares/Third_Party/FreeRTOS/Source/queue.c **** 							mtCOVERAGE_TEST_MARKER();
 850:Middlewares/Third_Party/FreeRTOS/Source/queue.c **** 						}
 851:Middlewares/Third_Party/FreeRTOS/Source/queue.c **** 					}
 852:Middlewares/Third_Party/FreeRTOS/Source/queue.c **** 					else if( xYieldRequired != pdFALSE )
 1628              		.loc 1 852 13
 1629 010a FB6A     		ldr	r3, [r7, #44]
 1630 010c 002B     		cmp	r3, #0
 1631 010e 07D0     		beq	.L101
 853:Middlewares/Third_Party/FreeRTOS/Source/queue.c **** 					{
ARM GAS  C:\Users\EI\AppData\Local\Temp\cc6xPaa5.s 			page 48


 854:Middlewares/Third_Party/FreeRTOS/Source/queue.c **** 						/* This path is a special case that will only get
 855:Middlewares/Third_Party/FreeRTOS/Source/queue.c **** 						executed if the task was holding multiple mutexes and
 856:Middlewares/Third_Party/FreeRTOS/Source/queue.c **** 						the mutexes were given back in an order that is
 857:Middlewares/Third_Party/FreeRTOS/Source/queue.c **** 						different to that in which they were taken. */
 858:Middlewares/Third_Party/FreeRTOS/Source/queue.c **** 						queueYIELD_IF_USING_PREEMPTION();
 1632              		.loc 1 858 7
 1633 0110 394B     		ldr	r3, .L111
 1634 0112 4FF08052 		mov	r2, #268435456
 1635 0116 1A60     		str	r2, [r3]
 1636              		.syntax unified
 1637              	@ 858 "Middlewares/Third_Party/FreeRTOS/Source/queue.c" 1
 1638 0118 BFF34F8F 		dsb
 1639              	@ 0 "" 2
 1640              	@ 858 "Middlewares/Third_Party/FreeRTOS/Source/queue.c" 1
 1641 011c BFF36F8F 		isb
 1642              	@ 0 "" 2
 1643              		.thumb
 1644              		.syntax unified
 1645              	.L101:
 859:Middlewares/Third_Party/FreeRTOS/Source/queue.c **** 					}
 860:Middlewares/Third_Party/FreeRTOS/Source/queue.c **** 					else
 861:Middlewares/Third_Party/FreeRTOS/Source/queue.c **** 					{
 862:Middlewares/Third_Party/FreeRTOS/Source/queue.c **** 						mtCOVERAGE_TEST_MARKER();
 863:Middlewares/Third_Party/FreeRTOS/Source/queue.c **** 					}
 864:Middlewares/Third_Party/FreeRTOS/Source/queue.c **** 				}
 865:Middlewares/Third_Party/FreeRTOS/Source/queue.c **** 				#endif /* configUSE_QUEUE_SETS */
 866:Middlewares/Third_Party/FreeRTOS/Source/queue.c **** 
 867:Middlewares/Third_Party/FreeRTOS/Source/queue.c **** 				taskEXIT_CRITICAL();
 1646              		.loc 1 867 5
 1647 0120 FFF7FEFF 		bl	vPortExitCritical
 868:Middlewares/Third_Party/FreeRTOS/Source/queue.c **** 				return pdPASS;
 1648              		.loc 1 868 12
 1649 0124 0123     		movs	r3, #1
 1650 0126 63E0     		b	.L110
 1651              	.L99:
 869:Middlewares/Third_Party/FreeRTOS/Source/queue.c **** 			}
 870:Middlewares/Third_Party/FreeRTOS/Source/queue.c **** 			else
 871:Middlewares/Third_Party/FreeRTOS/Source/queue.c **** 			{
 872:Middlewares/Third_Party/FreeRTOS/Source/queue.c **** 				if( xTicksToWait == ( TickType_t ) 0 )
 1652              		.loc 1 872 22
 1653 0128 7B68     		ldr	r3, [r7, #4]
 1654              		.loc 1 872 7
 1655 012a 002B     		cmp	r3, #0
 1656 012c 03D1     		bne	.L103
 873:Middlewares/Third_Party/FreeRTOS/Source/queue.c **** 				{
 874:Middlewares/Third_Party/FreeRTOS/Source/queue.c **** 					/* The queue was full and no block time is specified (or
 875:Middlewares/Third_Party/FreeRTOS/Source/queue.c **** 					the block time has expired) so leave now. */
 876:Middlewares/Third_Party/FreeRTOS/Source/queue.c **** 					taskEXIT_CRITICAL();
 1657              		.loc 1 876 6
 1658 012e FFF7FEFF 		bl	vPortExitCritical
 877:Middlewares/Third_Party/FreeRTOS/Source/queue.c **** 
 878:Middlewares/Third_Party/FreeRTOS/Source/queue.c **** 					/* Return to the original privilege level before exiting
 879:Middlewares/Third_Party/FreeRTOS/Source/queue.c **** 					the function. */
 880:Middlewares/Third_Party/FreeRTOS/Source/queue.c **** 					traceQUEUE_SEND_FAILED( pxQueue );
 881:Middlewares/Third_Party/FreeRTOS/Source/queue.c **** 					return errQUEUE_FULL;
 1659              		.loc 1 881 13
 1660 0132 0023     		movs	r3, #0
ARM GAS  C:\Users\EI\AppData\Local\Temp\cc6xPaa5.s 			page 49


 1661 0134 5CE0     		b	.L110
 1662              	.L103:
 882:Middlewares/Third_Party/FreeRTOS/Source/queue.c **** 				}
 883:Middlewares/Third_Party/FreeRTOS/Source/queue.c **** 				else if( xEntryTimeSet == pdFALSE )
 1663              		.loc 1 883 12
 1664 0136 7B6B     		ldr	r3, [r7, #52]
 1665 0138 002B     		cmp	r3, #0
 1666 013a 06D1     		bne	.L104
 884:Middlewares/Third_Party/FreeRTOS/Source/queue.c **** 				{
 885:Middlewares/Third_Party/FreeRTOS/Source/queue.c **** 					/* The queue was full and a block time was specified so
 886:Middlewares/Third_Party/FreeRTOS/Source/queue.c **** 					configure the timeout structure. */
 887:Middlewares/Third_Party/FreeRTOS/Source/queue.c **** 					vTaskInternalSetTimeOutState( &xTimeOut );
 1667              		.loc 1 887 6
 1668 013c 07F11403 		add	r3, r7, #20
 1669 0140 1846     		mov	r0, r3
 1670 0142 FFF7FEFF 		bl	vTaskInternalSetTimeOutState
 888:Middlewares/Third_Party/FreeRTOS/Source/queue.c **** 					xEntryTimeSet = pdTRUE;
 1671              		.loc 1 888 20
 1672 0146 0123     		movs	r3, #1
 1673 0148 7B63     		str	r3, [r7, #52]
 1674              	.L104:
 889:Middlewares/Third_Party/FreeRTOS/Source/queue.c **** 				}
 890:Middlewares/Third_Party/FreeRTOS/Source/queue.c **** 				else
 891:Middlewares/Third_Party/FreeRTOS/Source/queue.c **** 				{
 892:Middlewares/Third_Party/FreeRTOS/Source/queue.c **** 					/* Entry time was already set. */
 893:Middlewares/Third_Party/FreeRTOS/Source/queue.c **** 					mtCOVERAGE_TEST_MARKER();
 894:Middlewares/Third_Party/FreeRTOS/Source/queue.c **** 				}
 895:Middlewares/Third_Party/FreeRTOS/Source/queue.c **** 			}
 896:Middlewares/Third_Party/FreeRTOS/Source/queue.c **** 		}
 897:Middlewares/Third_Party/FreeRTOS/Source/queue.c **** 		taskEXIT_CRITICAL();
 1675              		.loc 1 897 3
 1676 014a FFF7FEFF 		bl	vPortExitCritical
 898:Middlewares/Third_Party/FreeRTOS/Source/queue.c **** 
 899:Middlewares/Third_Party/FreeRTOS/Source/queue.c **** 		/* Interrupts and other tasks can send to and receive from the queue
 900:Middlewares/Third_Party/FreeRTOS/Source/queue.c **** 		now the critical section has been exited. */
 901:Middlewares/Third_Party/FreeRTOS/Source/queue.c **** 
 902:Middlewares/Third_Party/FreeRTOS/Source/queue.c **** 		vTaskSuspendAll();
 1677              		.loc 1 902 3
 1678 014e FFF7FEFF 		bl	vTaskSuspendAll
 903:Middlewares/Third_Party/FreeRTOS/Source/queue.c **** 		prvLockQueue( pxQueue );
 1679              		.loc 1 903 3
 1680 0152 FFF7FEFF 		bl	vPortEnterCritical
 1681 0156 3B6B     		ldr	r3, [r7, #48]
 1682 0158 93F84430 		ldrb	r3, [r3, #68]
 1683 015c 5BB2     		sxtb	r3, r3
 1684 015e B3F1FF3F 		cmp	r3, #-1
 1685 0162 03D1     		bne	.L105
 1686              		.loc 1 903 3 is_stmt 0 discriminator 1
 1687 0164 3B6B     		ldr	r3, [r7, #48]
 1688 0166 0022     		movs	r2, #0
 1689 0168 83F84420 		strb	r2, [r3, #68]
 1690              	.L105:
 1691              		.loc 1 903 3 discriminator 3
 1692 016c 3B6B     		ldr	r3, [r7, #48]
 1693 016e 93F84530 		ldrb	r3, [r3, #69]
 1694 0172 5BB2     		sxtb	r3, r3
 1695 0174 B3F1FF3F 		cmp	r3, #-1
ARM GAS  C:\Users\EI\AppData\Local\Temp\cc6xPaa5.s 			page 50


 1696 0178 03D1     		bne	.L106
 1697              		.loc 1 903 3 discriminator 4
 1698 017a 3B6B     		ldr	r3, [r7, #48]
 1699 017c 0022     		movs	r2, #0
 1700 017e 83F84520 		strb	r2, [r3, #69]
 1701              	.L106:
 1702              		.loc 1 903 3 discriminator 6
 1703 0182 FFF7FEFF 		bl	vPortExitCritical
 904:Middlewares/Third_Party/FreeRTOS/Source/queue.c **** 
 905:Middlewares/Third_Party/FreeRTOS/Source/queue.c **** 		/* Update the timeout state to see if it has expired yet. */
 906:Middlewares/Third_Party/FreeRTOS/Source/queue.c **** 		if( xTaskCheckForTimeOut( &xTimeOut, &xTicksToWait ) == pdFALSE )
 1704              		.loc 1 906 7 is_stmt 1 discriminator 6
 1705 0186 3A1D     		adds	r2, r7, #4
 1706 0188 07F11403 		add	r3, r7, #20
 1707 018c 1146     		mov	r1, r2
 1708 018e 1846     		mov	r0, r3
 1709 0190 FFF7FEFF 		bl	xTaskCheckForTimeOut
 1710 0194 0346     		mov	r3, r0
 1711              		.loc 1 906 5 discriminator 6
 1712 0196 002B     		cmp	r3, #0
 1713 0198 24D1     		bne	.L107
 907:Middlewares/Third_Party/FreeRTOS/Source/queue.c **** 		{
 908:Middlewares/Third_Party/FreeRTOS/Source/queue.c **** 			if( prvIsQueueFull( pxQueue ) != pdFALSE )
 1714              		.loc 1 908 8
 1715 019a 386B     		ldr	r0, [r7, #48]
 1716 019c FFF7FEFF 		bl	prvIsQueueFull
 1717 01a0 0346     		mov	r3, r0
 1718              		.loc 1 908 6
 1719 01a2 002B     		cmp	r3, #0
 1720 01a4 18D0     		beq	.L108
 909:Middlewares/Third_Party/FreeRTOS/Source/queue.c **** 			{
 910:Middlewares/Third_Party/FreeRTOS/Source/queue.c **** 				traceBLOCKING_ON_QUEUE_SEND( pxQueue );
 911:Middlewares/Third_Party/FreeRTOS/Source/queue.c **** 				vTaskPlaceOnEventList( &( pxQueue->xTasksWaitingToSend ), xTicksToWait );
 1721              		.loc 1 911 5
 1722 01a6 3B6B     		ldr	r3, [r7, #48]
 1723 01a8 1033     		adds	r3, r3, #16
 1724 01aa 7A68     		ldr	r2, [r7, #4]
 1725 01ac 1146     		mov	r1, r2
 1726 01ae 1846     		mov	r0, r3
 1727 01b0 FFF7FEFF 		bl	vTaskPlaceOnEventList
 912:Middlewares/Third_Party/FreeRTOS/Source/queue.c **** 
 913:Middlewares/Third_Party/FreeRTOS/Source/queue.c **** 				/* Unlocking the queue means queue events can effect the
 914:Middlewares/Third_Party/FreeRTOS/Source/queue.c **** 				event list.  It is possible that interrupts occurring now
 915:Middlewares/Third_Party/FreeRTOS/Source/queue.c **** 				remove this task from the event list again - but as the
 916:Middlewares/Third_Party/FreeRTOS/Source/queue.c **** 				scheduler is suspended the task will go onto the pending
 917:Middlewares/Third_Party/FreeRTOS/Source/queue.c **** 				ready last instead of the actual ready list. */
 918:Middlewares/Third_Party/FreeRTOS/Source/queue.c **** 				prvUnlockQueue( pxQueue );
 1728              		.loc 1 918 5
 1729 01b4 386B     		ldr	r0, [r7, #48]
 1730 01b6 FFF7FEFF 		bl	prvUnlockQueue
 919:Middlewares/Third_Party/FreeRTOS/Source/queue.c **** 
 920:Middlewares/Third_Party/FreeRTOS/Source/queue.c **** 				/* Resuming the scheduler will move tasks from the pending
 921:Middlewares/Third_Party/FreeRTOS/Source/queue.c **** 				ready list into the ready list - so it is feasible that this
 922:Middlewares/Third_Party/FreeRTOS/Source/queue.c **** 				task is already in a ready list before it yields - in which
 923:Middlewares/Third_Party/FreeRTOS/Source/queue.c **** 				case the yield will not cause a context switch unless there
 924:Middlewares/Third_Party/FreeRTOS/Source/queue.c **** 				is also a higher priority task in the pending ready list. */
 925:Middlewares/Third_Party/FreeRTOS/Source/queue.c **** 				if( xTaskResumeAll() == pdFALSE )
ARM GAS  C:\Users\EI\AppData\Local\Temp\cc6xPaa5.s 			page 51


 1731              		.loc 1 925 9
 1732 01ba FFF7FEFF 		bl	xTaskResumeAll
 1733 01be 0346     		mov	r3, r0
 1734              		.loc 1 925 7
 1735 01c0 002B     		cmp	r3, #0
 1736 01c2 7FF47CAF 		bne	.L96
 926:Middlewares/Third_Party/FreeRTOS/Source/queue.c **** 				{
 927:Middlewares/Third_Party/FreeRTOS/Source/queue.c **** 					portYIELD_WITHIN_API();
 1737              		.loc 1 927 6
 1738 01c6 0C4B     		ldr	r3, .L111
 1739 01c8 4FF08052 		mov	r2, #268435456
 1740 01cc 1A60     		str	r2, [r3]
 1741              		.syntax unified
 1742              	@ 927 "Middlewares/Third_Party/FreeRTOS/Source/queue.c" 1
 1743 01ce BFF34F8F 		dsb
 1744              	@ 0 "" 2
 1745              	@ 927 "Middlewares/Third_Party/FreeRTOS/Source/queue.c" 1
 1746 01d2 BFF36F8F 		isb
 1747              	@ 0 "" 2
 1748              		.thumb
 1749              		.syntax unified
 1750 01d6 72E7     		b	.L96
 1751              	.L108:
 928:Middlewares/Third_Party/FreeRTOS/Source/queue.c **** 				}
 929:Middlewares/Third_Party/FreeRTOS/Source/queue.c **** 			}
 930:Middlewares/Third_Party/FreeRTOS/Source/queue.c **** 			else
 931:Middlewares/Third_Party/FreeRTOS/Source/queue.c **** 			{
 932:Middlewares/Third_Party/FreeRTOS/Source/queue.c **** 				/* Try again. */
 933:Middlewares/Third_Party/FreeRTOS/Source/queue.c **** 				prvUnlockQueue( pxQueue );
 1752              		.loc 1 933 5
 1753 01d8 386B     		ldr	r0, [r7, #48]
 1754 01da FFF7FEFF 		bl	prvUnlockQueue
 934:Middlewares/Third_Party/FreeRTOS/Source/queue.c **** 				( void ) xTaskResumeAll();
 1755              		.loc 1 934 14
 1756 01de FFF7FEFF 		bl	xTaskResumeAll
 1757 01e2 6CE7     		b	.L96
 1758              	.L107:
 935:Middlewares/Third_Party/FreeRTOS/Source/queue.c **** 			}
 936:Middlewares/Third_Party/FreeRTOS/Source/queue.c **** 		}
 937:Middlewares/Third_Party/FreeRTOS/Source/queue.c **** 		else
 938:Middlewares/Third_Party/FreeRTOS/Source/queue.c **** 		{
 939:Middlewares/Third_Party/FreeRTOS/Source/queue.c **** 			/* The timeout has expired. */
 940:Middlewares/Third_Party/FreeRTOS/Source/queue.c **** 			prvUnlockQueue( pxQueue );
 1759              		.loc 1 940 4
 1760 01e4 386B     		ldr	r0, [r7, #48]
 1761 01e6 FFF7FEFF 		bl	prvUnlockQueue
 941:Middlewares/Third_Party/FreeRTOS/Source/queue.c **** 			( void ) xTaskResumeAll();
 1762              		.loc 1 941 13
 1763 01ea FFF7FEFF 		bl	xTaskResumeAll
 942:Middlewares/Third_Party/FreeRTOS/Source/queue.c **** 
 943:Middlewares/Third_Party/FreeRTOS/Source/queue.c **** 			traceQUEUE_SEND_FAILED( pxQueue );
 944:Middlewares/Third_Party/FreeRTOS/Source/queue.c **** 			return errQUEUE_FULL;
 1764              		.loc 1 944 11
 1765 01ee 0023     		movs	r3, #0
 1766              	.L110:
 945:Middlewares/Third_Party/FreeRTOS/Source/queue.c **** 		}
 946:Middlewares/Third_Party/FreeRTOS/Source/queue.c **** 	} /*lint -restore */
ARM GAS  C:\Users\EI\AppData\Local\Temp\cc6xPaa5.s 			page 52


 947:Middlewares/Third_Party/FreeRTOS/Source/queue.c **** }
 1767              		.loc 1 947 1 discriminator 7
 1768 01f0 1846     		mov	r0, r3
 1769 01f2 3837     		adds	r7, r7, #56
 1770              	.LCFI69:
 1771              		.cfi_def_cfa_offset 8
 1772 01f4 BD46     		mov	sp, r7
 1773              	.LCFI70:
 1774              		.cfi_def_cfa_register 13
 1775              		@ sp needed
 1776 01f6 80BD     		pop	{r7, pc}
 1777              	.L112:
 1778              		.align	2
 1779              	.L111:
 1780 01f8 04ED00E0 		.word	-536810236
 1781              		.cfi_endproc
 1782              	.LFE17:
 1784              		.section	.text.xQueueGenericSendFromISR,"ax",%progbits
 1785              		.align	1
 1786              		.global	xQueueGenericSendFromISR
 1787              		.syntax unified
 1788              		.thumb
 1789              		.thumb_func
 1790              		.fpu fpv4-sp-d16
 1792              	xQueueGenericSendFromISR:
 1793              	.LFB18:
 948:Middlewares/Third_Party/FreeRTOS/Source/queue.c **** /*-----------------------------------------------------------*/
 949:Middlewares/Third_Party/FreeRTOS/Source/queue.c **** 
 950:Middlewares/Third_Party/FreeRTOS/Source/queue.c **** BaseType_t xQueueGenericSendFromISR( QueueHandle_t xQueue, const void * const pvItemToQueue, BaseTy
 951:Middlewares/Third_Party/FreeRTOS/Source/queue.c **** {
 1794              		.loc 1 951 1
 1795              		.cfi_startproc
 1796              		@ args = 0, pretend = 0, frame = 64
 1797              		@ frame_needed = 1, uses_anonymous_args = 0
 1798 0000 80B5     		push	{r7, lr}
 1799              	.LCFI71:
 1800              		.cfi_def_cfa_offset 8
 1801              		.cfi_offset 7, -8
 1802              		.cfi_offset 14, -4
 1803 0002 90B0     		sub	sp, sp, #64
 1804              	.LCFI72:
 1805              		.cfi_def_cfa_offset 72
 1806 0004 00AF     		add	r7, sp, #0
 1807              	.LCFI73:
 1808              		.cfi_def_cfa_register 7
 1809 0006 F860     		str	r0, [r7, #12]
 1810 0008 B960     		str	r1, [r7, #8]
 1811 000a 7A60     		str	r2, [r7, #4]
 1812 000c 3B60     		str	r3, [r7]
 952:Middlewares/Third_Party/FreeRTOS/Source/queue.c **** BaseType_t xReturn;
 953:Middlewares/Third_Party/FreeRTOS/Source/queue.c **** UBaseType_t uxSavedInterruptStatus;
 954:Middlewares/Third_Party/FreeRTOS/Source/queue.c **** Queue_t * const pxQueue = xQueue;
 1813              		.loc 1 954 17
 1814 000e FB68     		ldr	r3, [r7, #12]
 1815 0010 BB63     		str	r3, [r7, #56]
 955:Middlewares/Third_Party/FreeRTOS/Source/queue.c **** 
 956:Middlewares/Third_Party/FreeRTOS/Source/queue.c **** 	configASSERT( pxQueue );
ARM GAS  C:\Users\EI\AppData\Local\Temp\cc6xPaa5.s 			page 53


 1816              		.loc 1 956 2
 1817 0012 BB6B     		ldr	r3, [r7, #56]
 1818 0014 002B     		cmp	r3, #0
 1819 0016 0AD1     		bne	.L114
 1820              	.LBB155:
 1821              	.LBB156:
 195:Middlewares/Third_Party/FreeRTOS/Source/portable/GCC/ARM_CM4F/portmacro.h **** 	(
 1822              		.loc 2 195 2
 1823              		.syntax unified
 1824              	@ 195 "Middlewares/Third_Party/FreeRTOS/Source/portable/GCC/ARM_CM4F/portmacro.h" 1
 1825 0018 4FF05003 			mov r3, #80												
 1826 001c 83F31188 		msr basepri, r3											
 1827 0020 BFF36F8F 		isb														
 1828 0024 BFF34F8F 		dsb														
 1829              	
 1830              	@ 0 "" 2
 1831              		.thumb
 1832              		.syntax unified
 1833 0028 BB62     		str	r3, [r7, #40]
 1834              		.loc 2 203 1
 1835 002a 00BF     		nop
 1836              	.L115:
 1837              	.LBE156:
 1838              	.LBE155:
 1839              		.loc 1 956 2 discriminator 1
 1840 002c FEE7     		b	.L115
 1841              	.L114:
 957:Middlewares/Third_Party/FreeRTOS/Source/queue.c **** 	configASSERT( !( ( pvItemToQueue == NULL ) && ( pxQueue->uxItemSize != ( UBaseType_t ) 0U ) ) );
 1842              		.loc 1 957 2
 1843 002e BB68     		ldr	r3, [r7, #8]
 1844 0030 002B     		cmp	r3, #0
 1845 0032 03D1     		bne	.L116
 1846              		.loc 1 957 2 is_stmt 0 discriminator 2
 1847 0034 BB6B     		ldr	r3, [r7, #56]
 1848 0036 1B6C     		ldr	r3, [r3, #64]
 1849 0038 002B     		cmp	r3, #0
 1850 003a 01D1     		bne	.L117
 1851              	.L116:
 1852              		.loc 1 957 2 discriminator 3
 1853 003c 0123     		movs	r3, #1
 1854 003e 00E0     		b	.L118
 1855              	.L117:
 1856              		.loc 1 957 2 discriminator 4
 1857 0040 0023     		movs	r3, #0
 1858              	.L118:
 1859              		.loc 1 957 2 discriminator 6
 1860 0042 002B     		cmp	r3, #0
 1861 0044 0AD1     		bne	.L119
 1862              	.LBB157:
 1863              	.LBB158:
 195:Middlewares/Third_Party/FreeRTOS/Source/portable/GCC/ARM_CM4F/portmacro.h **** 	(
 1864              		.loc 2 195 2 is_stmt 1
 1865              		.syntax unified
 1866              	@ 195 "Middlewares/Third_Party/FreeRTOS/Source/portable/GCC/ARM_CM4F/portmacro.h" 1
 1867 0046 4FF05003 			mov r3, #80												
 1868 004a 83F31188 		msr basepri, r3											
 1869 004e BFF36F8F 		isb														
ARM GAS  C:\Users\EI\AppData\Local\Temp\cc6xPaa5.s 			page 54


 1870 0052 BFF34F8F 		dsb														
 1871              	
 1872              	@ 0 "" 2
 1873              		.thumb
 1874              		.syntax unified
 1875 0056 7B62     		str	r3, [r7, #36]
 1876              		.loc 2 203 1
 1877 0058 00BF     		nop
 1878              	.L120:
 1879              	.LBE158:
 1880              	.LBE157:
 1881              		.loc 1 957 2 discriminator 2
 1882 005a FEE7     		b	.L120
 1883              	.L119:
 958:Middlewares/Third_Party/FreeRTOS/Source/queue.c **** 	configASSERT( !( ( xCopyPosition == queueOVERWRITE ) && ( pxQueue->uxLength != 1 ) ) );
 1884              		.loc 1 958 2
 1885 005c 3B68     		ldr	r3, [r7]
 1886 005e 022B     		cmp	r3, #2
 1887 0060 03D1     		bne	.L121
 1888              		.loc 1 958 2 is_stmt 0 discriminator 2
 1889 0062 BB6B     		ldr	r3, [r7, #56]
 1890 0064 DB6B     		ldr	r3, [r3, #60]
 1891 0066 012B     		cmp	r3, #1
 1892 0068 01D1     		bne	.L122
 1893              	.L121:
 1894              		.loc 1 958 2 discriminator 3
 1895 006a 0123     		movs	r3, #1
 1896 006c 00E0     		b	.L123
 1897              	.L122:
 1898              		.loc 1 958 2 discriminator 4
 1899 006e 0023     		movs	r3, #0
 1900              	.L123:
 1901              		.loc 1 958 2 discriminator 6
 1902 0070 002B     		cmp	r3, #0
 1903 0072 0AD1     		bne	.L124
 1904              	.LBB159:
 1905              	.LBB160:
 195:Middlewares/Third_Party/FreeRTOS/Source/portable/GCC/ARM_CM4F/portmacro.h **** 	(
 1906              		.loc 2 195 2 is_stmt 1
 1907              		.syntax unified
 1908              	@ 195 "Middlewares/Third_Party/FreeRTOS/Source/portable/GCC/ARM_CM4F/portmacro.h" 1
 1909 0074 4FF05003 			mov r3, #80												
 1910 0078 83F31188 		msr basepri, r3											
 1911 007c BFF36F8F 		isb														
 1912 0080 BFF34F8F 		dsb														
 1913              	
 1914              	@ 0 "" 2
 1915              		.thumb
 1916              		.syntax unified
 1917 0084 3B62     		str	r3, [r7, #32]
 1918              		.loc 2 203 1
 1919 0086 00BF     		nop
 1920              	.L125:
 1921              	.LBE160:
 1922              	.LBE159:
 1923              		.loc 1 958 2 discriminator 3
 1924 0088 FEE7     		b	.L125
ARM GAS  C:\Users\EI\AppData\Local\Temp\cc6xPaa5.s 			page 55


 1925              	.L124:
 959:Middlewares/Third_Party/FreeRTOS/Source/queue.c **** 
 960:Middlewares/Third_Party/FreeRTOS/Source/queue.c **** 	/* RTOS ports that support interrupt nesting have the concept of a maximum
 961:Middlewares/Third_Party/FreeRTOS/Source/queue.c **** 	system call (or maximum API call) interrupt priority.  Interrupts that are
 962:Middlewares/Third_Party/FreeRTOS/Source/queue.c **** 	above the maximum system call priority are kept permanently enabled, even
 963:Middlewares/Third_Party/FreeRTOS/Source/queue.c **** 	when the RTOS kernel is in a critical section, but cannot make any calls to
 964:Middlewares/Third_Party/FreeRTOS/Source/queue.c **** 	FreeRTOS API functions.  If configASSERT() is defined in FreeRTOSConfig.h
 965:Middlewares/Third_Party/FreeRTOS/Source/queue.c **** 	then portASSERT_IF_INTERRUPT_PRIORITY_INVALID() will result in an assertion
 966:Middlewares/Third_Party/FreeRTOS/Source/queue.c **** 	failure if a FreeRTOS API function is called from an interrupt that has been
 967:Middlewares/Third_Party/FreeRTOS/Source/queue.c **** 	assigned a priority above the configured maximum system call priority.
 968:Middlewares/Third_Party/FreeRTOS/Source/queue.c **** 	Only FreeRTOS functions that end in FromISR can be called from interrupts
 969:Middlewares/Third_Party/FreeRTOS/Source/queue.c **** 	that have been assigned a priority at or (logically) below the maximum
 970:Middlewares/Third_Party/FreeRTOS/Source/queue.c **** 	system call	interrupt priority.  FreeRTOS maintains a separate interrupt
 971:Middlewares/Third_Party/FreeRTOS/Source/queue.c **** 	safe API to ensure interrupt entry is as fast and as simple as possible.
 972:Middlewares/Third_Party/FreeRTOS/Source/queue.c **** 	More information (albeit Cortex-M specific) is provided on the following
 973:Middlewares/Third_Party/FreeRTOS/Source/queue.c **** 	link: http://www.freertos.org/RTOS-Cortex-M3-M4.html */
 974:Middlewares/Third_Party/FreeRTOS/Source/queue.c **** 	portASSERT_IF_INTERRUPT_PRIORITY_INVALID();
 1926              		.loc 1 974 2
 1927 008a FFF7FEFF 		bl	vPortValidateInterruptPriority
 1928              	.LBB161:
 1929              	.LBB162:
 204:Middlewares/Third_Party/FreeRTOS/Source/portable/GCC/ARM_CM4F/portmacro.h **** 
 205:Middlewares/Third_Party/FreeRTOS/Source/portable/GCC/ARM_CM4F/portmacro.h **** /*-----------------------------------------------------------*/
 206:Middlewares/Third_Party/FreeRTOS/Source/portable/GCC/ARM_CM4F/portmacro.h **** 
 207:Middlewares/Third_Party/FreeRTOS/Source/portable/GCC/ARM_CM4F/portmacro.h **** portFORCE_INLINE static uint32_t ulPortRaiseBASEPRI( void )
 208:Middlewares/Third_Party/FreeRTOS/Source/portable/GCC/ARM_CM4F/portmacro.h **** {
 209:Middlewares/Third_Party/FreeRTOS/Source/portable/GCC/ARM_CM4F/portmacro.h **** uint32_t ulOriginalBASEPRI, ulNewBASEPRI;
 210:Middlewares/Third_Party/FreeRTOS/Source/portable/GCC/ARM_CM4F/portmacro.h **** 
 211:Middlewares/Third_Party/FreeRTOS/Source/portable/GCC/ARM_CM4F/portmacro.h **** 	__asm volatile
 1930              		.loc 2 211 2
 1931              		.syntax unified
 1932              	@ 211 "Middlewares/Third_Party/FreeRTOS/Source/portable/GCC/ARM_CM4F/portmacro.h" 1
 1933 008e EFF31182 			mrs r2, basepri											
 1934 0092 4FF05003 		mov r3, #80												
 1935 0096 83F31188 		msr basepri, r3											
 1936 009a BFF36F8F 		isb														
 1937 009e BFF34F8F 		dsb														
 1938              	
 1939              	@ 0 "" 2
 1940              		.thumb
 1941              		.syntax unified
 1942 00a2 FA61     		str	r2, [r7, #28]
 1943 00a4 BB61     		str	r3, [r7, #24]
 212:Middlewares/Third_Party/FreeRTOS/Source/portable/GCC/ARM_CM4F/portmacro.h **** 	(
 213:Middlewares/Third_Party/FreeRTOS/Source/portable/GCC/ARM_CM4F/portmacro.h **** 		"	mrs %0, basepri											\n" \
 214:Middlewares/Third_Party/FreeRTOS/Source/portable/GCC/ARM_CM4F/portmacro.h **** 		"	mov %1, %2												\n"	\
 215:Middlewares/Third_Party/FreeRTOS/Source/portable/GCC/ARM_CM4F/portmacro.h **** 		"	msr basepri, %1											\n" \
 216:Middlewares/Third_Party/FreeRTOS/Source/portable/GCC/ARM_CM4F/portmacro.h **** 		"	isb														\n" \
 217:Middlewares/Third_Party/FreeRTOS/Source/portable/GCC/ARM_CM4F/portmacro.h **** 		"	dsb														\n" \
 218:Middlewares/Third_Party/FreeRTOS/Source/portable/GCC/ARM_CM4F/portmacro.h **** 		:"=r" (ulOriginalBASEPRI), "=r" (ulNewBASEPRI) : "i" ( configMAX_SYSCALL_INTERRUPT_PRIORITY ) : "
 219:Middlewares/Third_Party/FreeRTOS/Source/portable/GCC/ARM_CM4F/portmacro.h **** 	);
 220:Middlewares/Third_Party/FreeRTOS/Source/portable/GCC/ARM_CM4F/portmacro.h **** 
 221:Middlewares/Third_Party/FreeRTOS/Source/portable/GCC/ARM_CM4F/portmacro.h **** 	/* This return will not be reached but is necessary to prevent compiler
 222:Middlewares/Third_Party/FreeRTOS/Source/portable/GCC/ARM_CM4F/portmacro.h **** 	warnings. */
 223:Middlewares/Third_Party/FreeRTOS/Source/portable/GCC/ARM_CM4F/portmacro.h **** 	return ulOriginalBASEPRI;
 1944              		.loc 2 223 9
 1945 00a6 FB69     		ldr	r3, [r7, #28]
ARM GAS  C:\Users\EI\AppData\Local\Temp\cc6xPaa5.s 			page 56


 1946              	.LBE162:
 1947              	.LBE161:
 975:Middlewares/Third_Party/FreeRTOS/Source/queue.c **** 
 976:Middlewares/Third_Party/FreeRTOS/Source/queue.c **** 	/* Similar to xQueueGenericSend, except without blocking if there is no room
 977:Middlewares/Third_Party/FreeRTOS/Source/queue.c **** 	in the queue.  Also don't directly wake a task that was blocked on a queue
 978:Middlewares/Third_Party/FreeRTOS/Source/queue.c **** 	read, instead return a flag to say whether a context switch is required or
 979:Middlewares/Third_Party/FreeRTOS/Source/queue.c **** 	not (i.e. has a task with a higher priority than us been woken by this
 980:Middlewares/Third_Party/FreeRTOS/Source/queue.c **** 	post). */
 981:Middlewares/Third_Party/FreeRTOS/Source/queue.c **** 	uxSavedInterruptStatus = portSET_INTERRUPT_MASK_FROM_ISR();
 1948              		.loc 1 981 27
 1949 00a8 7B63     		str	r3, [r7, #52]
 982:Middlewares/Third_Party/FreeRTOS/Source/queue.c **** 	{
 983:Middlewares/Third_Party/FreeRTOS/Source/queue.c **** 		if( ( pxQueue->uxMessagesWaiting < pxQueue->uxLength ) || ( xCopyPosition == queueOVERWRITE ) )
 1950              		.loc 1 983 16
 1951 00aa BB6B     		ldr	r3, [r7, #56]
 1952 00ac 9A6B     		ldr	r2, [r3, #56]
 1953              		.loc 1 983 45
 1954 00ae BB6B     		ldr	r3, [r7, #56]
 1955 00b0 DB6B     		ldr	r3, [r3, #60]
 1956              		.loc 1 983 5
 1957 00b2 9A42     		cmp	r2, r3
 1958 00b4 02D3     		bcc	.L127
 1959              		.loc 1 983 58 discriminator 1
 1960 00b6 3B68     		ldr	r3, [r7]
 1961 00b8 022B     		cmp	r3, #2
 1962 00ba 2FD1     		bne	.L128
 1963              	.L127:
 1964              	.LBB163:
 984:Middlewares/Third_Party/FreeRTOS/Source/queue.c **** 		{
 985:Middlewares/Third_Party/FreeRTOS/Source/queue.c **** 			const int8_t cTxLock = pxQueue->cTxLock;
 1965              		.loc 1 985 17
 1966 00bc BB6B     		ldr	r3, [r7, #56]
 1967 00be 93F84530 		ldrb	r3, [r3, #69]
 1968 00c2 87F83330 		strb	r3, [r7, #51]
 986:Middlewares/Third_Party/FreeRTOS/Source/queue.c **** 			const UBaseType_t uxPreviousMessagesWaiting = pxQueue->uxMessagesWaiting;
 1969              		.loc 1 986 22
 1970 00c6 BB6B     		ldr	r3, [r7, #56]
 1971 00c8 9B6B     		ldr	r3, [r3, #56]
 1972 00ca FB62     		str	r3, [r7, #44]
 987:Middlewares/Third_Party/FreeRTOS/Source/queue.c **** 
 988:Middlewares/Third_Party/FreeRTOS/Source/queue.c **** 			traceQUEUE_SEND_FROM_ISR( pxQueue );
 989:Middlewares/Third_Party/FreeRTOS/Source/queue.c **** 
 990:Middlewares/Third_Party/FreeRTOS/Source/queue.c **** 			/* Semaphores use xQueueGiveFromISR(), so pxQueue will not be a
 991:Middlewares/Third_Party/FreeRTOS/Source/queue.c **** 			semaphore or mutex.  That means prvCopyDataToQueue() cannot result
 992:Middlewares/Third_Party/FreeRTOS/Source/queue.c **** 			in a task disinheriting a priority and prvCopyDataToQueue() can be
 993:Middlewares/Third_Party/FreeRTOS/Source/queue.c **** 			called here even though the disinherit function does not check if
 994:Middlewares/Third_Party/FreeRTOS/Source/queue.c **** 			the scheduler is suspended before accessing the ready lists. */
 995:Middlewares/Third_Party/FreeRTOS/Source/queue.c **** 			( void ) prvCopyDataToQueue( pxQueue, pvItemToQueue, xCopyPosition );
 1973              		.loc 1 995 13
 1974 00cc 3A68     		ldr	r2, [r7]
 1975 00ce B968     		ldr	r1, [r7, #8]
 1976 00d0 B86B     		ldr	r0, [r7, #56]
 1977 00d2 FFF7FEFF 		bl	prvCopyDataToQueue
 996:Middlewares/Third_Party/FreeRTOS/Source/queue.c **** 
 997:Middlewares/Third_Party/FreeRTOS/Source/queue.c **** 			/* The event list is not altered if the queue is locked.  This will
 998:Middlewares/Third_Party/FreeRTOS/Source/queue.c **** 			be done when the queue is unlocked later. */
 999:Middlewares/Third_Party/FreeRTOS/Source/queue.c **** 			if( cTxLock == queueUNLOCKED )
ARM GAS  C:\Users\EI\AppData\Local\Temp\cc6xPaa5.s 			page 57


 1978              		.loc 1 999 6
 1979 00d6 97F93330 		ldrsb	r3, [r7, #51]
 1980 00da B3F1FF3F 		cmp	r3, #-1
 1981 00de 12D1     		bne	.L129
1000:Middlewares/Third_Party/FreeRTOS/Source/queue.c **** 			{
1001:Middlewares/Third_Party/FreeRTOS/Source/queue.c **** 				#if ( configUSE_QUEUE_SETS == 1 )
1002:Middlewares/Third_Party/FreeRTOS/Source/queue.c **** 				{
1003:Middlewares/Third_Party/FreeRTOS/Source/queue.c **** 					if( pxQueue->pxQueueSetContainer != NULL )
1004:Middlewares/Third_Party/FreeRTOS/Source/queue.c **** 					{
1005:Middlewares/Third_Party/FreeRTOS/Source/queue.c **** 						if( ( xCopyPosition == queueOVERWRITE ) && ( uxPreviousMessagesWaiting != ( UBaseType_t ) 0 )
1006:Middlewares/Third_Party/FreeRTOS/Source/queue.c **** 						{
1007:Middlewares/Third_Party/FreeRTOS/Source/queue.c **** 							/* Do not notify the queue set as an existing item
1008:Middlewares/Third_Party/FreeRTOS/Source/queue.c **** 							was overwritten in the queue so the number of items
1009:Middlewares/Third_Party/FreeRTOS/Source/queue.c **** 							in the queue has not changed. */
1010:Middlewares/Third_Party/FreeRTOS/Source/queue.c **** 							mtCOVERAGE_TEST_MARKER();
1011:Middlewares/Third_Party/FreeRTOS/Source/queue.c **** 						}
1012:Middlewares/Third_Party/FreeRTOS/Source/queue.c **** 						else if( prvNotifyQueueSetContainer( pxQueue ) != pdFALSE )
1013:Middlewares/Third_Party/FreeRTOS/Source/queue.c **** 						{
1014:Middlewares/Third_Party/FreeRTOS/Source/queue.c **** 							/* The queue is a member of a queue set, and posting
1015:Middlewares/Third_Party/FreeRTOS/Source/queue.c **** 							to the queue set caused a higher priority task to
1016:Middlewares/Third_Party/FreeRTOS/Source/queue.c **** 							unblock.  A context switch is required. */
1017:Middlewares/Third_Party/FreeRTOS/Source/queue.c **** 							if( pxHigherPriorityTaskWoken != NULL )
1018:Middlewares/Third_Party/FreeRTOS/Source/queue.c **** 							{
1019:Middlewares/Third_Party/FreeRTOS/Source/queue.c **** 								*pxHigherPriorityTaskWoken = pdTRUE;
1020:Middlewares/Third_Party/FreeRTOS/Source/queue.c **** 							}
1021:Middlewares/Third_Party/FreeRTOS/Source/queue.c **** 							else
1022:Middlewares/Third_Party/FreeRTOS/Source/queue.c **** 							{
1023:Middlewares/Third_Party/FreeRTOS/Source/queue.c **** 								mtCOVERAGE_TEST_MARKER();
1024:Middlewares/Third_Party/FreeRTOS/Source/queue.c **** 							}
1025:Middlewares/Third_Party/FreeRTOS/Source/queue.c **** 						}
1026:Middlewares/Third_Party/FreeRTOS/Source/queue.c **** 						else
1027:Middlewares/Third_Party/FreeRTOS/Source/queue.c **** 						{
1028:Middlewares/Third_Party/FreeRTOS/Source/queue.c **** 							mtCOVERAGE_TEST_MARKER();
1029:Middlewares/Third_Party/FreeRTOS/Source/queue.c **** 						}
1030:Middlewares/Third_Party/FreeRTOS/Source/queue.c **** 					}
1031:Middlewares/Third_Party/FreeRTOS/Source/queue.c **** 					else
1032:Middlewares/Third_Party/FreeRTOS/Source/queue.c **** 					{
1033:Middlewares/Third_Party/FreeRTOS/Source/queue.c **** 						if( listLIST_IS_EMPTY( &( pxQueue->xTasksWaitingToReceive ) ) == pdFALSE )
1034:Middlewares/Third_Party/FreeRTOS/Source/queue.c **** 						{
1035:Middlewares/Third_Party/FreeRTOS/Source/queue.c **** 							if( xTaskRemoveFromEventList( &( pxQueue->xTasksWaitingToReceive ) ) != pdFALSE )
1036:Middlewares/Third_Party/FreeRTOS/Source/queue.c **** 							{
1037:Middlewares/Third_Party/FreeRTOS/Source/queue.c **** 								/* The task waiting has a higher priority so
1038:Middlewares/Third_Party/FreeRTOS/Source/queue.c **** 								record that a context switch is required. */
1039:Middlewares/Third_Party/FreeRTOS/Source/queue.c **** 								if( pxHigherPriorityTaskWoken != NULL )
1040:Middlewares/Third_Party/FreeRTOS/Source/queue.c **** 								{
1041:Middlewares/Third_Party/FreeRTOS/Source/queue.c **** 									*pxHigherPriorityTaskWoken = pdTRUE;
1042:Middlewares/Third_Party/FreeRTOS/Source/queue.c **** 								}
1043:Middlewares/Third_Party/FreeRTOS/Source/queue.c **** 								else
1044:Middlewares/Third_Party/FreeRTOS/Source/queue.c **** 								{
1045:Middlewares/Third_Party/FreeRTOS/Source/queue.c **** 									mtCOVERAGE_TEST_MARKER();
1046:Middlewares/Third_Party/FreeRTOS/Source/queue.c **** 								}
1047:Middlewares/Third_Party/FreeRTOS/Source/queue.c **** 							}
1048:Middlewares/Third_Party/FreeRTOS/Source/queue.c **** 							else
1049:Middlewares/Third_Party/FreeRTOS/Source/queue.c **** 							{
1050:Middlewares/Third_Party/FreeRTOS/Source/queue.c **** 								mtCOVERAGE_TEST_MARKER();
1051:Middlewares/Third_Party/FreeRTOS/Source/queue.c **** 							}
1052:Middlewares/Third_Party/FreeRTOS/Source/queue.c **** 						}
ARM GAS  C:\Users\EI\AppData\Local\Temp\cc6xPaa5.s 			page 58


1053:Middlewares/Third_Party/FreeRTOS/Source/queue.c **** 						else
1054:Middlewares/Third_Party/FreeRTOS/Source/queue.c **** 						{
1055:Middlewares/Third_Party/FreeRTOS/Source/queue.c **** 							mtCOVERAGE_TEST_MARKER();
1056:Middlewares/Third_Party/FreeRTOS/Source/queue.c **** 						}
1057:Middlewares/Third_Party/FreeRTOS/Source/queue.c **** 					}
1058:Middlewares/Third_Party/FreeRTOS/Source/queue.c **** 				}
1059:Middlewares/Third_Party/FreeRTOS/Source/queue.c **** 				#else /* configUSE_QUEUE_SETS */
1060:Middlewares/Third_Party/FreeRTOS/Source/queue.c **** 				{
1061:Middlewares/Third_Party/FreeRTOS/Source/queue.c **** 					if( listLIST_IS_EMPTY( &( pxQueue->xTasksWaitingToReceive ) ) == pdFALSE )
 1982              		.loc 1 1061 10
 1983 00e0 BB6B     		ldr	r3, [r7, #56]
 1984 00e2 5B6A     		ldr	r3, [r3, #36]
 1985              		.loc 1 1061 8
 1986 00e4 002B     		cmp	r3, #0
 1987 00e6 16D0     		beq	.L130
1062:Middlewares/Third_Party/FreeRTOS/Source/queue.c **** 					{
1063:Middlewares/Third_Party/FreeRTOS/Source/queue.c **** 						if( xTaskRemoveFromEventList( &( pxQueue->xTasksWaitingToReceive ) ) != pdFALSE )
 1988              		.loc 1 1063 37
 1989 00e8 BB6B     		ldr	r3, [r7, #56]
 1990 00ea 2433     		adds	r3, r3, #36
 1991              		.loc 1 1063 11
 1992 00ec 1846     		mov	r0, r3
 1993 00ee FFF7FEFF 		bl	xTaskRemoveFromEventList
 1994 00f2 0346     		mov	r3, r0
 1995              		.loc 1 1063 9
 1996 00f4 002B     		cmp	r3, #0
 1997 00f6 0ED0     		beq	.L130
1064:Middlewares/Third_Party/FreeRTOS/Source/queue.c **** 						{
1065:Middlewares/Third_Party/FreeRTOS/Source/queue.c **** 							/* The task waiting has a higher priority so record that a
1066:Middlewares/Third_Party/FreeRTOS/Source/queue.c **** 							context	switch is required. */
1067:Middlewares/Third_Party/FreeRTOS/Source/queue.c **** 							if( pxHigherPriorityTaskWoken != NULL )
 1998              		.loc 1 1067 10
 1999 00f8 7B68     		ldr	r3, [r7, #4]
 2000 00fa 002B     		cmp	r3, #0
 2001 00fc 0BD0     		beq	.L130
1068:Middlewares/Third_Party/FreeRTOS/Source/queue.c **** 							{
1069:Middlewares/Third_Party/FreeRTOS/Source/queue.c **** 								*pxHigherPriorityTaskWoken = pdTRUE;
 2002              		.loc 1 1069 36
 2003 00fe 7B68     		ldr	r3, [r7, #4]
 2004 0100 0122     		movs	r2, #1
 2005 0102 1A60     		str	r2, [r3]
 2006 0104 07E0     		b	.L130
 2007              	.L129:
1070:Middlewares/Third_Party/FreeRTOS/Source/queue.c **** 							}
1071:Middlewares/Third_Party/FreeRTOS/Source/queue.c **** 							else
1072:Middlewares/Third_Party/FreeRTOS/Source/queue.c **** 							{
1073:Middlewares/Third_Party/FreeRTOS/Source/queue.c **** 								mtCOVERAGE_TEST_MARKER();
1074:Middlewares/Third_Party/FreeRTOS/Source/queue.c **** 							}
1075:Middlewares/Third_Party/FreeRTOS/Source/queue.c **** 						}
1076:Middlewares/Third_Party/FreeRTOS/Source/queue.c **** 						else
1077:Middlewares/Third_Party/FreeRTOS/Source/queue.c **** 						{
1078:Middlewares/Third_Party/FreeRTOS/Source/queue.c **** 							mtCOVERAGE_TEST_MARKER();
1079:Middlewares/Third_Party/FreeRTOS/Source/queue.c **** 						}
1080:Middlewares/Third_Party/FreeRTOS/Source/queue.c **** 					}
1081:Middlewares/Third_Party/FreeRTOS/Source/queue.c **** 					else
1082:Middlewares/Third_Party/FreeRTOS/Source/queue.c **** 					{
1083:Middlewares/Third_Party/FreeRTOS/Source/queue.c **** 						mtCOVERAGE_TEST_MARKER();
ARM GAS  C:\Users\EI\AppData\Local\Temp\cc6xPaa5.s 			page 59


1084:Middlewares/Third_Party/FreeRTOS/Source/queue.c **** 					}
1085:Middlewares/Third_Party/FreeRTOS/Source/queue.c **** 					
1086:Middlewares/Third_Party/FreeRTOS/Source/queue.c **** 					/* Not used in this path. */
1087:Middlewares/Third_Party/FreeRTOS/Source/queue.c **** 					( void ) uxPreviousMessagesWaiting;
1088:Middlewares/Third_Party/FreeRTOS/Source/queue.c **** 				}
1089:Middlewares/Third_Party/FreeRTOS/Source/queue.c **** 				#endif /* configUSE_QUEUE_SETS */
1090:Middlewares/Third_Party/FreeRTOS/Source/queue.c **** 			}
1091:Middlewares/Third_Party/FreeRTOS/Source/queue.c **** 			else
1092:Middlewares/Third_Party/FreeRTOS/Source/queue.c **** 			{
1093:Middlewares/Third_Party/FreeRTOS/Source/queue.c **** 				/* Increment the lock count so the task that unlocks the queue
1094:Middlewares/Third_Party/FreeRTOS/Source/queue.c **** 				knows that data was posted while it was locked. */
1095:Middlewares/Third_Party/FreeRTOS/Source/queue.c **** 				pxQueue->cTxLock = ( int8_t ) ( cTxLock + 1 );
 2008              		.loc 1 1095 45
 2009 0106 97F83330 		ldrb	r3, [r7, #51]	@ zero_extendqisi2
 2010 010a 0133     		adds	r3, r3, #1
 2011 010c DBB2     		uxtb	r3, r3
 2012              		.loc 1 1095 24
 2013 010e 5AB2     		sxtb	r2, r3
 2014              		.loc 1 1095 22
 2015 0110 BB6B     		ldr	r3, [r7, #56]
 2016 0112 83F84520 		strb	r2, [r3, #69]
 2017              	.L130:
1096:Middlewares/Third_Party/FreeRTOS/Source/queue.c **** 			}
1097:Middlewares/Third_Party/FreeRTOS/Source/queue.c **** 
1098:Middlewares/Third_Party/FreeRTOS/Source/queue.c **** 			xReturn = pdPASS;
 2018              		.loc 1 1098 12
 2019 0116 0123     		movs	r3, #1
 2020 0118 FB63     		str	r3, [r7, #60]
 2021              	.LBE163:
 984:Middlewares/Third_Party/FreeRTOS/Source/queue.c **** 			const int8_t cTxLock = pxQueue->cTxLock;
 2022              		.loc 1 984 3
 2023 011a 01E0     		b	.L131
 2024              	.L128:
1099:Middlewares/Third_Party/FreeRTOS/Source/queue.c **** 		}
1100:Middlewares/Third_Party/FreeRTOS/Source/queue.c **** 		else
1101:Middlewares/Third_Party/FreeRTOS/Source/queue.c **** 		{
1102:Middlewares/Third_Party/FreeRTOS/Source/queue.c **** 			traceQUEUE_SEND_FROM_ISR_FAILED( pxQueue );
1103:Middlewares/Third_Party/FreeRTOS/Source/queue.c **** 			xReturn = errQUEUE_FULL;
 2025              		.loc 1 1103 12
 2026 011c 0023     		movs	r3, #0
 2027 011e FB63     		str	r3, [r7, #60]
 2028              	.L131:
 2029 0120 7B6B     		ldr	r3, [r7, #52]
 2030 0122 7B61     		str	r3, [r7, #20]
 2031              	.LBB164:
 2032              	.LBB165:
 224:Middlewares/Third_Party/FreeRTOS/Source/portable/GCC/ARM_CM4F/portmacro.h **** }
 225:Middlewares/Third_Party/FreeRTOS/Source/portable/GCC/ARM_CM4F/portmacro.h **** /*-----------------------------------------------------------*/
 226:Middlewares/Third_Party/FreeRTOS/Source/portable/GCC/ARM_CM4F/portmacro.h **** 
 227:Middlewares/Third_Party/FreeRTOS/Source/portable/GCC/ARM_CM4F/portmacro.h **** portFORCE_INLINE static void vPortSetBASEPRI( uint32_t ulNewMaskValue )
 228:Middlewares/Third_Party/FreeRTOS/Source/portable/GCC/ARM_CM4F/portmacro.h **** {
 229:Middlewares/Third_Party/FreeRTOS/Source/portable/GCC/ARM_CM4F/portmacro.h **** 	__asm volatile
 2033              		.loc 2 229 2
 2034 0124 7B69     		ldr	r3, [r7, #20]
 2035              		.syntax unified
 2036              	@ 229 "Middlewares/Third_Party/FreeRTOS/Source/portable/GCC/ARM_CM4F/portmacro.h" 1
 2037 0126 83F31188 			msr basepri, r3	
ARM GAS  C:\Users\EI\AppData\Local\Temp\cc6xPaa5.s 			page 60


 2038              	@ 0 "" 2
 230:Middlewares/Third_Party/FreeRTOS/Source/portable/GCC/ARM_CM4F/portmacro.h **** 	(
 231:Middlewares/Third_Party/FreeRTOS/Source/portable/GCC/ARM_CM4F/portmacro.h **** 		"	msr basepri, %0	" :: "r" ( ulNewMaskValue ) : "memory"
 232:Middlewares/Third_Party/FreeRTOS/Source/portable/GCC/ARM_CM4F/portmacro.h **** 	);
 233:Middlewares/Third_Party/FreeRTOS/Source/portable/GCC/ARM_CM4F/portmacro.h **** }
 2039              		.loc 2 233 1
 2040              		.thumb
 2041              		.syntax unified
 2042 012a 00BF     		nop
 2043              	.LBE165:
 2044              	.LBE164:
1104:Middlewares/Third_Party/FreeRTOS/Source/queue.c **** 		}
1105:Middlewares/Third_Party/FreeRTOS/Source/queue.c **** 	}
1106:Middlewares/Third_Party/FreeRTOS/Source/queue.c **** 	portCLEAR_INTERRUPT_MASK_FROM_ISR( uxSavedInterruptStatus );
1107:Middlewares/Third_Party/FreeRTOS/Source/queue.c **** 
1108:Middlewares/Third_Party/FreeRTOS/Source/queue.c **** 	return xReturn;
 2045              		.loc 1 1108 9
 2046 012c FB6B     		ldr	r3, [r7, #60]
1109:Middlewares/Third_Party/FreeRTOS/Source/queue.c **** }
 2047              		.loc 1 1109 1
 2048 012e 1846     		mov	r0, r3
 2049 0130 4037     		adds	r7, r7, #64
 2050              	.LCFI74:
 2051              		.cfi_def_cfa_offset 8
 2052 0132 BD46     		mov	sp, r7
 2053              	.LCFI75:
 2054              		.cfi_def_cfa_register 13
 2055              		@ sp needed
 2056 0134 80BD     		pop	{r7, pc}
 2057              		.cfi_endproc
 2058              	.LFE18:
 2060              		.section	.text.xQueueGiveFromISR,"ax",%progbits
 2061              		.align	1
 2062              		.global	xQueueGiveFromISR
 2063              		.syntax unified
 2064              		.thumb
 2065              		.thumb_func
 2066              		.fpu fpv4-sp-d16
 2068              	xQueueGiveFromISR:
 2069              	.LFB19:
1110:Middlewares/Third_Party/FreeRTOS/Source/queue.c **** /*-----------------------------------------------------------*/
1111:Middlewares/Third_Party/FreeRTOS/Source/queue.c **** 
1112:Middlewares/Third_Party/FreeRTOS/Source/queue.c **** BaseType_t xQueueGiveFromISR( QueueHandle_t xQueue, BaseType_t * const pxHigherPriorityTaskWoken )
1113:Middlewares/Third_Party/FreeRTOS/Source/queue.c **** {
 2070              		.loc 1 1113 1
 2071              		.cfi_startproc
 2072              		@ args = 0, pretend = 0, frame = 56
 2073              		@ frame_needed = 1, uses_anonymous_args = 0
 2074 0000 80B5     		push	{r7, lr}
 2075              	.LCFI76:
 2076              		.cfi_def_cfa_offset 8
 2077              		.cfi_offset 7, -8
 2078              		.cfi_offset 14, -4
 2079 0002 8EB0     		sub	sp, sp, #56
 2080              	.LCFI77:
 2081              		.cfi_def_cfa_offset 64
 2082 0004 00AF     		add	r7, sp, #0
ARM GAS  C:\Users\EI\AppData\Local\Temp\cc6xPaa5.s 			page 61


 2083              	.LCFI78:
 2084              		.cfi_def_cfa_register 7
 2085 0006 7860     		str	r0, [r7, #4]
 2086 0008 3960     		str	r1, [r7]
1114:Middlewares/Third_Party/FreeRTOS/Source/queue.c **** BaseType_t xReturn;
1115:Middlewares/Third_Party/FreeRTOS/Source/queue.c **** UBaseType_t uxSavedInterruptStatus;
1116:Middlewares/Third_Party/FreeRTOS/Source/queue.c **** Queue_t * const pxQueue = xQueue;
 2087              		.loc 1 1116 17
 2088 000a 7B68     		ldr	r3, [r7, #4]
 2089 000c 3B63     		str	r3, [r7, #48]
1117:Middlewares/Third_Party/FreeRTOS/Source/queue.c **** 
1118:Middlewares/Third_Party/FreeRTOS/Source/queue.c **** 	/* Similar to xQueueGenericSendFromISR() but used with semaphores where the
1119:Middlewares/Third_Party/FreeRTOS/Source/queue.c **** 	item size is 0.  Don't directly wake a task that was blocked on a queue
1120:Middlewares/Third_Party/FreeRTOS/Source/queue.c **** 	read, instead return a flag to say whether a context switch is required or
1121:Middlewares/Third_Party/FreeRTOS/Source/queue.c **** 	not (i.e. has a task with a higher priority than us been woken by this
1122:Middlewares/Third_Party/FreeRTOS/Source/queue.c **** 	post). */
1123:Middlewares/Third_Party/FreeRTOS/Source/queue.c **** 
1124:Middlewares/Third_Party/FreeRTOS/Source/queue.c **** 	configASSERT( pxQueue );
 2090              		.loc 1 1124 2
 2091 000e 3B6B     		ldr	r3, [r7, #48]
 2092 0010 002B     		cmp	r3, #0
 2093 0012 0AD1     		bne	.L134
 2094              	.LBB166:
 2095              	.LBB167:
 195:Middlewares/Third_Party/FreeRTOS/Source/portable/GCC/ARM_CM4F/portmacro.h **** 	(
 2096              		.loc 2 195 2
 2097              		.syntax unified
 2098              	@ 195 "Middlewares/Third_Party/FreeRTOS/Source/portable/GCC/ARM_CM4F/portmacro.h" 1
 2099 0014 4FF05003 			mov r3, #80												
 2100 0018 83F31188 		msr basepri, r3											
 2101 001c BFF36F8F 		isb														
 2102 0020 BFF34F8F 		dsb														
 2103              	
 2104              	@ 0 "" 2
 2105              		.thumb
 2106              		.syntax unified
 2107 0024 3B62     		str	r3, [r7, #32]
 203:Middlewares/Third_Party/FreeRTOS/Source/portable/GCC/ARM_CM4F/portmacro.h **** 
 2108              		.loc 2 203 1
 2109 0026 00BF     		nop
 2110              	.L135:
 2111              	.LBE167:
 2112              	.LBE166:
 2113              		.loc 1 1124 2 discriminator 1
 2114 0028 FEE7     		b	.L135
 2115              	.L134:
1125:Middlewares/Third_Party/FreeRTOS/Source/queue.c **** 
1126:Middlewares/Third_Party/FreeRTOS/Source/queue.c **** 	/* xQueueGenericSendFromISR() should be used instead of xQueueGiveFromISR()
1127:Middlewares/Third_Party/FreeRTOS/Source/queue.c **** 	if the item size is not 0. */
1128:Middlewares/Third_Party/FreeRTOS/Source/queue.c **** 	configASSERT( pxQueue->uxItemSize == 0 );
 2116              		.loc 1 1128 2
 2117 002a 3B6B     		ldr	r3, [r7, #48]
 2118 002c 1B6C     		ldr	r3, [r3, #64]
 2119 002e 002B     		cmp	r3, #0
 2120 0030 0AD0     		beq	.L136
 2121              	.LBB168:
 2122              	.LBB169:
ARM GAS  C:\Users\EI\AppData\Local\Temp\cc6xPaa5.s 			page 62


 195:Middlewares/Third_Party/FreeRTOS/Source/portable/GCC/ARM_CM4F/portmacro.h **** 	(
 2123              		.loc 2 195 2
 2124              		.syntax unified
 2125              	@ 195 "Middlewares/Third_Party/FreeRTOS/Source/portable/GCC/ARM_CM4F/portmacro.h" 1
 2126 0032 4FF05003 			mov r3, #80												
 2127 0036 83F31188 		msr basepri, r3											
 2128 003a BFF36F8F 		isb														
 2129 003e BFF34F8F 		dsb														
 2130              	
 2131              	@ 0 "" 2
 2132              		.thumb
 2133              		.syntax unified
 2134 0042 FB61     		str	r3, [r7, #28]
 203:Middlewares/Third_Party/FreeRTOS/Source/portable/GCC/ARM_CM4F/portmacro.h **** 
 2135              		.loc 2 203 1
 2136 0044 00BF     		nop
 2137              	.L137:
 2138              	.LBE169:
 2139              	.LBE168:
 2140              		.loc 1 1128 2 discriminator 2
 2141 0046 FEE7     		b	.L137
 2142              	.L136:
1129:Middlewares/Third_Party/FreeRTOS/Source/queue.c **** 
1130:Middlewares/Third_Party/FreeRTOS/Source/queue.c **** 	/* Normally a mutex would not be given from an interrupt, especially if
1131:Middlewares/Third_Party/FreeRTOS/Source/queue.c **** 	there is a mutex holder, as priority inheritance makes no sense for an
1132:Middlewares/Third_Party/FreeRTOS/Source/queue.c **** 	interrupts, only tasks. */
1133:Middlewares/Third_Party/FreeRTOS/Source/queue.c **** 	configASSERT( !( ( pxQueue->uxQueueType == queueQUEUE_IS_MUTEX ) && ( pxQueue->u.xSemaphore.xMutex
 2143              		.loc 1 1133 2
 2144 0048 3B6B     		ldr	r3, [r7, #48]
 2145 004a 1B68     		ldr	r3, [r3]
 2146 004c 002B     		cmp	r3, #0
 2147 004e 03D1     		bne	.L138
 2148              		.loc 1 1133 2 is_stmt 0 discriminator 2
 2149 0050 3B6B     		ldr	r3, [r7, #48]
 2150 0052 9B68     		ldr	r3, [r3, #8]
 2151 0054 002B     		cmp	r3, #0
 2152 0056 01D1     		bne	.L139
 2153              	.L138:
 2154              		.loc 1 1133 2 discriminator 3
 2155 0058 0123     		movs	r3, #1
 2156 005a 00E0     		b	.L140
 2157              	.L139:
 2158              		.loc 1 1133 2 discriminator 4
 2159 005c 0023     		movs	r3, #0
 2160              	.L140:
 2161              		.loc 1 1133 2 discriminator 6
 2162 005e 002B     		cmp	r3, #0
 2163 0060 0AD1     		bne	.L141
 2164              	.LBB170:
 2165              	.LBB171:
 195:Middlewares/Third_Party/FreeRTOS/Source/portable/GCC/ARM_CM4F/portmacro.h **** 	(
 2166              		.loc 2 195 2 is_stmt 1
 2167              		.syntax unified
 2168              	@ 195 "Middlewares/Third_Party/FreeRTOS/Source/portable/GCC/ARM_CM4F/portmacro.h" 1
 2169 0062 4FF05003 			mov r3, #80												
 2170 0066 83F31188 		msr basepri, r3											
 2171 006a BFF36F8F 		isb														
ARM GAS  C:\Users\EI\AppData\Local\Temp\cc6xPaa5.s 			page 63


 2172 006e BFF34F8F 		dsb														
 2173              	
 2174              	@ 0 "" 2
 2175              		.thumb
 2176              		.syntax unified
 2177 0072 BB61     		str	r3, [r7, #24]
 203:Middlewares/Third_Party/FreeRTOS/Source/portable/GCC/ARM_CM4F/portmacro.h **** 
 2178              		.loc 2 203 1
 2179 0074 00BF     		nop
 2180              	.L142:
 2181              	.LBE171:
 2182              	.LBE170:
 2183              		.loc 1 1133 2 discriminator 3
 2184 0076 FEE7     		b	.L142
 2185              	.L141:
1134:Middlewares/Third_Party/FreeRTOS/Source/queue.c **** 
1135:Middlewares/Third_Party/FreeRTOS/Source/queue.c **** 	/* RTOS ports that support interrupt nesting have the concept of a maximum
1136:Middlewares/Third_Party/FreeRTOS/Source/queue.c **** 	system call (or maximum API call) interrupt priority.  Interrupts that are
1137:Middlewares/Third_Party/FreeRTOS/Source/queue.c **** 	above the maximum system call priority are kept permanently enabled, even
1138:Middlewares/Third_Party/FreeRTOS/Source/queue.c **** 	when the RTOS kernel is in a critical section, but cannot make any calls to
1139:Middlewares/Third_Party/FreeRTOS/Source/queue.c **** 	FreeRTOS API functions.  If configASSERT() is defined in FreeRTOSConfig.h
1140:Middlewares/Third_Party/FreeRTOS/Source/queue.c **** 	then portASSERT_IF_INTERRUPT_PRIORITY_INVALID() will result in an assertion
1141:Middlewares/Third_Party/FreeRTOS/Source/queue.c **** 	failure if a FreeRTOS API function is called from an interrupt that has been
1142:Middlewares/Third_Party/FreeRTOS/Source/queue.c **** 	assigned a priority above the configured maximum system call priority.
1143:Middlewares/Third_Party/FreeRTOS/Source/queue.c **** 	Only FreeRTOS functions that end in FromISR can be called from interrupts
1144:Middlewares/Third_Party/FreeRTOS/Source/queue.c **** 	that have been assigned a priority at or (logically) below the maximum
1145:Middlewares/Third_Party/FreeRTOS/Source/queue.c **** 	system call	interrupt priority.  FreeRTOS maintains a separate interrupt
1146:Middlewares/Third_Party/FreeRTOS/Source/queue.c **** 	safe API to ensure interrupt entry is as fast and as simple as possible.
1147:Middlewares/Third_Party/FreeRTOS/Source/queue.c **** 	More information (albeit Cortex-M specific) is provided on the following
1148:Middlewares/Third_Party/FreeRTOS/Source/queue.c **** 	link: http://www.freertos.org/RTOS-Cortex-M3-M4.html */
1149:Middlewares/Third_Party/FreeRTOS/Source/queue.c **** 	portASSERT_IF_INTERRUPT_PRIORITY_INVALID();
 2186              		.loc 1 1149 2
 2187 0078 FFF7FEFF 		bl	vPortValidateInterruptPriority
 2188              	.LBB172:
 2189              	.LBB173:
 211:Middlewares/Third_Party/FreeRTOS/Source/portable/GCC/ARM_CM4F/portmacro.h **** 	(
 2190              		.loc 2 211 2
 2191              		.syntax unified
 2192              	@ 211 "Middlewares/Third_Party/FreeRTOS/Source/portable/GCC/ARM_CM4F/portmacro.h" 1
 2193 007c EFF31182 			mrs r2, basepri											
 2194 0080 4FF05003 		mov r3, #80												
 2195 0084 83F31188 		msr basepri, r3											
 2196 0088 BFF36F8F 		isb														
 2197 008c BFF34F8F 		dsb														
 2198              	
 2199              	@ 0 "" 2
 2200              		.thumb
 2201              		.syntax unified
 2202 0090 7A61     		str	r2, [r7, #20]
 2203 0092 3B61     		str	r3, [r7, #16]
 223:Middlewares/Third_Party/FreeRTOS/Source/portable/GCC/ARM_CM4F/portmacro.h **** }
 2204              		.loc 2 223 9
 2205 0094 7B69     		ldr	r3, [r7, #20]
 2206              	.LBE173:
 2207              	.LBE172:
1150:Middlewares/Third_Party/FreeRTOS/Source/queue.c **** 
1151:Middlewares/Third_Party/FreeRTOS/Source/queue.c **** 	uxSavedInterruptStatus = portSET_INTERRUPT_MASK_FROM_ISR();
ARM GAS  C:\Users\EI\AppData\Local\Temp\cc6xPaa5.s 			page 64


 2208              		.loc 1 1151 27
 2209 0096 FB62     		str	r3, [r7, #44]
 2210              	.LBB174:
1152:Middlewares/Third_Party/FreeRTOS/Source/queue.c **** 	{
1153:Middlewares/Third_Party/FreeRTOS/Source/queue.c **** 		const UBaseType_t uxMessagesWaiting = pxQueue->uxMessagesWaiting;
 2211              		.loc 1 1153 21
 2212 0098 3B6B     		ldr	r3, [r7, #48]
 2213 009a 9B6B     		ldr	r3, [r3, #56]
 2214 009c BB62     		str	r3, [r7, #40]
1154:Middlewares/Third_Party/FreeRTOS/Source/queue.c **** 
1155:Middlewares/Third_Party/FreeRTOS/Source/queue.c **** 		/* When the queue is used to implement a semaphore no data is ever
1156:Middlewares/Third_Party/FreeRTOS/Source/queue.c **** 		moved through the queue but it is still valid to see if the queue 'has
1157:Middlewares/Third_Party/FreeRTOS/Source/queue.c **** 		space'. */
1158:Middlewares/Third_Party/FreeRTOS/Source/queue.c **** 		if( uxMessagesWaiting < pxQueue->uxLength )
 2215              		.loc 1 1158 34
 2216 009e 3B6B     		ldr	r3, [r7, #48]
 2217 00a0 DB6B     		ldr	r3, [r3, #60]
 2218              		.loc 1 1158 5
 2219 00a2 BA6A     		ldr	r2, [r7, #40]
 2220 00a4 9A42     		cmp	r2, r3
 2221 00a6 2BD2     		bcs	.L144
 2222              	.LBB175:
1159:Middlewares/Third_Party/FreeRTOS/Source/queue.c **** 		{
1160:Middlewares/Third_Party/FreeRTOS/Source/queue.c **** 			const int8_t cTxLock = pxQueue->cTxLock;
 2223              		.loc 1 1160 17
 2224 00a8 3B6B     		ldr	r3, [r7, #48]
 2225 00aa 93F84530 		ldrb	r3, [r3, #69]
 2226 00ae 87F82730 		strb	r3, [r7, #39]
1161:Middlewares/Third_Party/FreeRTOS/Source/queue.c **** 
1162:Middlewares/Third_Party/FreeRTOS/Source/queue.c **** 			traceQUEUE_SEND_FROM_ISR( pxQueue );
1163:Middlewares/Third_Party/FreeRTOS/Source/queue.c **** 
1164:Middlewares/Third_Party/FreeRTOS/Source/queue.c **** 			/* A task can only have an inherited priority if it is a mutex
1165:Middlewares/Third_Party/FreeRTOS/Source/queue.c **** 			holder - and if there is a mutex holder then the mutex cannot be
1166:Middlewares/Third_Party/FreeRTOS/Source/queue.c **** 			given from an ISR.  As this is the ISR version of the function it
1167:Middlewares/Third_Party/FreeRTOS/Source/queue.c **** 			can be assumed there is no mutex holder and no need to determine if
1168:Middlewares/Third_Party/FreeRTOS/Source/queue.c **** 			priority disinheritance is needed.  Simply increase the count of
1169:Middlewares/Third_Party/FreeRTOS/Source/queue.c **** 			messages (semaphores) available. */
1170:Middlewares/Third_Party/FreeRTOS/Source/queue.c **** 			pxQueue->uxMessagesWaiting = uxMessagesWaiting + ( UBaseType_t ) 1;
 2227              		.loc 1 1170 51
 2228 00b2 BB6A     		ldr	r3, [r7, #40]
 2229 00b4 5A1C     		adds	r2, r3, #1
 2230              		.loc 1 1170 31
 2231 00b6 3B6B     		ldr	r3, [r7, #48]
 2232 00b8 9A63     		str	r2, [r3, #56]
1171:Middlewares/Third_Party/FreeRTOS/Source/queue.c **** 
1172:Middlewares/Third_Party/FreeRTOS/Source/queue.c **** 			/* The event list is not altered if the queue is locked.  This will
1173:Middlewares/Third_Party/FreeRTOS/Source/queue.c **** 			be done when the queue is unlocked later. */
1174:Middlewares/Third_Party/FreeRTOS/Source/queue.c **** 			if( cTxLock == queueUNLOCKED )
 2233              		.loc 1 1174 6
 2234 00ba 97F92730 		ldrsb	r3, [r7, #39]
 2235 00be B3F1FF3F 		cmp	r3, #-1
 2236 00c2 12D1     		bne	.L145
1175:Middlewares/Third_Party/FreeRTOS/Source/queue.c **** 			{
1176:Middlewares/Third_Party/FreeRTOS/Source/queue.c **** 				#if ( configUSE_QUEUE_SETS == 1 )
1177:Middlewares/Third_Party/FreeRTOS/Source/queue.c **** 				{
1178:Middlewares/Third_Party/FreeRTOS/Source/queue.c **** 					if( pxQueue->pxQueueSetContainer != NULL )
1179:Middlewares/Third_Party/FreeRTOS/Source/queue.c **** 					{
ARM GAS  C:\Users\EI\AppData\Local\Temp\cc6xPaa5.s 			page 65


1180:Middlewares/Third_Party/FreeRTOS/Source/queue.c **** 						if( prvNotifyQueueSetContainer( pxQueue ) != pdFALSE )
1181:Middlewares/Third_Party/FreeRTOS/Source/queue.c **** 						{
1182:Middlewares/Third_Party/FreeRTOS/Source/queue.c **** 							/* The semaphore is a member of a queue set, and
1183:Middlewares/Third_Party/FreeRTOS/Source/queue.c **** 							posting	to the queue set caused a higher priority
1184:Middlewares/Third_Party/FreeRTOS/Source/queue.c **** 							task to	unblock.  A context switch is required. */
1185:Middlewares/Third_Party/FreeRTOS/Source/queue.c **** 							if( pxHigherPriorityTaskWoken != NULL )
1186:Middlewares/Third_Party/FreeRTOS/Source/queue.c **** 							{
1187:Middlewares/Third_Party/FreeRTOS/Source/queue.c **** 								*pxHigherPriorityTaskWoken = pdTRUE;
1188:Middlewares/Third_Party/FreeRTOS/Source/queue.c **** 							}
1189:Middlewares/Third_Party/FreeRTOS/Source/queue.c **** 							else
1190:Middlewares/Third_Party/FreeRTOS/Source/queue.c **** 							{
1191:Middlewares/Third_Party/FreeRTOS/Source/queue.c **** 								mtCOVERAGE_TEST_MARKER();
1192:Middlewares/Third_Party/FreeRTOS/Source/queue.c **** 							}
1193:Middlewares/Third_Party/FreeRTOS/Source/queue.c **** 						}
1194:Middlewares/Third_Party/FreeRTOS/Source/queue.c **** 						else
1195:Middlewares/Third_Party/FreeRTOS/Source/queue.c **** 						{
1196:Middlewares/Third_Party/FreeRTOS/Source/queue.c **** 							mtCOVERAGE_TEST_MARKER();
1197:Middlewares/Third_Party/FreeRTOS/Source/queue.c **** 						}
1198:Middlewares/Third_Party/FreeRTOS/Source/queue.c **** 					}
1199:Middlewares/Third_Party/FreeRTOS/Source/queue.c **** 					else
1200:Middlewares/Third_Party/FreeRTOS/Source/queue.c **** 					{
1201:Middlewares/Third_Party/FreeRTOS/Source/queue.c **** 						if( listLIST_IS_EMPTY( &( pxQueue->xTasksWaitingToReceive ) ) == pdFALSE )
1202:Middlewares/Third_Party/FreeRTOS/Source/queue.c **** 						{
1203:Middlewares/Third_Party/FreeRTOS/Source/queue.c **** 							if( xTaskRemoveFromEventList( &( pxQueue->xTasksWaitingToReceive ) ) != pdFALSE )
1204:Middlewares/Third_Party/FreeRTOS/Source/queue.c **** 							{
1205:Middlewares/Third_Party/FreeRTOS/Source/queue.c **** 								/* The task waiting has a higher priority so
1206:Middlewares/Third_Party/FreeRTOS/Source/queue.c **** 								record that a context switch is required. */
1207:Middlewares/Third_Party/FreeRTOS/Source/queue.c **** 								if( pxHigherPriorityTaskWoken != NULL )
1208:Middlewares/Third_Party/FreeRTOS/Source/queue.c **** 								{
1209:Middlewares/Third_Party/FreeRTOS/Source/queue.c **** 									*pxHigherPriorityTaskWoken = pdTRUE;
1210:Middlewares/Third_Party/FreeRTOS/Source/queue.c **** 								}
1211:Middlewares/Third_Party/FreeRTOS/Source/queue.c **** 								else
1212:Middlewares/Third_Party/FreeRTOS/Source/queue.c **** 								{
1213:Middlewares/Third_Party/FreeRTOS/Source/queue.c **** 									mtCOVERAGE_TEST_MARKER();
1214:Middlewares/Third_Party/FreeRTOS/Source/queue.c **** 								}
1215:Middlewares/Third_Party/FreeRTOS/Source/queue.c **** 							}
1216:Middlewares/Third_Party/FreeRTOS/Source/queue.c **** 							else
1217:Middlewares/Third_Party/FreeRTOS/Source/queue.c **** 							{
1218:Middlewares/Third_Party/FreeRTOS/Source/queue.c **** 								mtCOVERAGE_TEST_MARKER();
1219:Middlewares/Third_Party/FreeRTOS/Source/queue.c **** 							}
1220:Middlewares/Third_Party/FreeRTOS/Source/queue.c **** 						}
1221:Middlewares/Third_Party/FreeRTOS/Source/queue.c **** 						else
1222:Middlewares/Third_Party/FreeRTOS/Source/queue.c **** 						{
1223:Middlewares/Third_Party/FreeRTOS/Source/queue.c **** 							mtCOVERAGE_TEST_MARKER();
1224:Middlewares/Third_Party/FreeRTOS/Source/queue.c **** 						}
1225:Middlewares/Third_Party/FreeRTOS/Source/queue.c **** 					}
1226:Middlewares/Third_Party/FreeRTOS/Source/queue.c **** 				}
1227:Middlewares/Third_Party/FreeRTOS/Source/queue.c **** 				#else /* configUSE_QUEUE_SETS */
1228:Middlewares/Third_Party/FreeRTOS/Source/queue.c **** 				{
1229:Middlewares/Third_Party/FreeRTOS/Source/queue.c **** 					if( listLIST_IS_EMPTY( &( pxQueue->xTasksWaitingToReceive ) ) == pdFALSE )
 2237              		.loc 1 1229 10
 2238 00c4 3B6B     		ldr	r3, [r7, #48]
 2239 00c6 5B6A     		ldr	r3, [r3, #36]
 2240              		.loc 1 1229 8
 2241 00c8 002B     		cmp	r3, #0
 2242 00ca 16D0     		beq	.L146
1230:Middlewares/Third_Party/FreeRTOS/Source/queue.c **** 					{
ARM GAS  C:\Users\EI\AppData\Local\Temp\cc6xPaa5.s 			page 66


1231:Middlewares/Third_Party/FreeRTOS/Source/queue.c **** 						if( xTaskRemoveFromEventList( &( pxQueue->xTasksWaitingToReceive ) ) != pdFALSE )
 2243              		.loc 1 1231 37
 2244 00cc 3B6B     		ldr	r3, [r7, #48]
 2245 00ce 2433     		adds	r3, r3, #36
 2246              		.loc 1 1231 11
 2247 00d0 1846     		mov	r0, r3
 2248 00d2 FFF7FEFF 		bl	xTaskRemoveFromEventList
 2249 00d6 0346     		mov	r3, r0
 2250              		.loc 1 1231 9
 2251 00d8 002B     		cmp	r3, #0
 2252 00da 0ED0     		beq	.L146
1232:Middlewares/Third_Party/FreeRTOS/Source/queue.c **** 						{
1233:Middlewares/Third_Party/FreeRTOS/Source/queue.c **** 							/* The task waiting has a higher priority so record that a
1234:Middlewares/Third_Party/FreeRTOS/Source/queue.c **** 							context	switch is required. */
1235:Middlewares/Third_Party/FreeRTOS/Source/queue.c **** 							if( pxHigherPriorityTaskWoken != NULL )
 2253              		.loc 1 1235 10
 2254 00dc 3B68     		ldr	r3, [r7]
 2255 00de 002B     		cmp	r3, #0
 2256 00e0 0BD0     		beq	.L146
1236:Middlewares/Third_Party/FreeRTOS/Source/queue.c **** 							{
1237:Middlewares/Third_Party/FreeRTOS/Source/queue.c **** 								*pxHigherPriorityTaskWoken = pdTRUE;
 2257              		.loc 1 1237 36
 2258 00e2 3B68     		ldr	r3, [r7]
 2259 00e4 0122     		movs	r2, #1
 2260 00e6 1A60     		str	r2, [r3]
 2261 00e8 07E0     		b	.L146
 2262              	.L145:
1238:Middlewares/Third_Party/FreeRTOS/Source/queue.c **** 							}
1239:Middlewares/Third_Party/FreeRTOS/Source/queue.c **** 							else
1240:Middlewares/Third_Party/FreeRTOS/Source/queue.c **** 							{
1241:Middlewares/Third_Party/FreeRTOS/Source/queue.c **** 								mtCOVERAGE_TEST_MARKER();
1242:Middlewares/Third_Party/FreeRTOS/Source/queue.c **** 							}
1243:Middlewares/Third_Party/FreeRTOS/Source/queue.c **** 						}
1244:Middlewares/Third_Party/FreeRTOS/Source/queue.c **** 						else
1245:Middlewares/Third_Party/FreeRTOS/Source/queue.c **** 						{
1246:Middlewares/Third_Party/FreeRTOS/Source/queue.c **** 							mtCOVERAGE_TEST_MARKER();
1247:Middlewares/Third_Party/FreeRTOS/Source/queue.c **** 						}
1248:Middlewares/Third_Party/FreeRTOS/Source/queue.c **** 					}
1249:Middlewares/Third_Party/FreeRTOS/Source/queue.c **** 					else
1250:Middlewares/Third_Party/FreeRTOS/Source/queue.c **** 					{
1251:Middlewares/Third_Party/FreeRTOS/Source/queue.c **** 						mtCOVERAGE_TEST_MARKER();
1252:Middlewares/Third_Party/FreeRTOS/Source/queue.c **** 					}
1253:Middlewares/Third_Party/FreeRTOS/Source/queue.c **** 				}
1254:Middlewares/Third_Party/FreeRTOS/Source/queue.c **** 				#endif /* configUSE_QUEUE_SETS */
1255:Middlewares/Third_Party/FreeRTOS/Source/queue.c **** 			}
1256:Middlewares/Third_Party/FreeRTOS/Source/queue.c **** 			else
1257:Middlewares/Third_Party/FreeRTOS/Source/queue.c **** 			{
1258:Middlewares/Third_Party/FreeRTOS/Source/queue.c **** 				/* Increment the lock count so the task that unlocks the queue
1259:Middlewares/Third_Party/FreeRTOS/Source/queue.c **** 				knows that data was posted while it was locked. */
1260:Middlewares/Third_Party/FreeRTOS/Source/queue.c **** 				pxQueue->cTxLock = ( int8_t ) ( cTxLock + 1 );
 2263              		.loc 1 1260 45
 2264 00ea 97F82730 		ldrb	r3, [r7, #39]	@ zero_extendqisi2
 2265 00ee 0133     		adds	r3, r3, #1
 2266 00f0 DBB2     		uxtb	r3, r3
 2267              		.loc 1 1260 24
 2268 00f2 5AB2     		sxtb	r2, r3
 2269              		.loc 1 1260 22
ARM GAS  C:\Users\EI\AppData\Local\Temp\cc6xPaa5.s 			page 67


 2270 00f4 3B6B     		ldr	r3, [r7, #48]
 2271 00f6 83F84520 		strb	r2, [r3, #69]
 2272              	.L146:
1261:Middlewares/Third_Party/FreeRTOS/Source/queue.c **** 			}
1262:Middlewares/Third_Party/FreeRTOS/Source/queue.c **** 
1263:Middlewares/Third_Party/FreeRTOS/Source/queue.c **** 			xReturn = pdPASS;
 2273              		.loc 1 1263 12
 2274 00fa 0123     		movs	r3, #1
 2275 00fc 7B63     		str	r3, [r7, #52]
 2276              	.LBE175:
 2277 00fe 01E0     		b	.L147
 2278              	.L144:
1264:Middlewares/Third_Party/FreeRTOS/Source/queue.c **** 		}
1265:Middlewares/Third_Party/FreeRTOS/Source/queue.c **** 		else
1266:Middlewares/Third_Party/FreeRTOS/Source/queue.c **** 		{
1267:Middlewares/Third_Party/FreeRTOS/Source/queue.c **** 			traceQUEUE_SEND_FROM_ISR_FAILED( pxQueue );
1268:Middlewares/Third_Party/FreeRTOS/Source/queue.c **** 			xReturn = errQUEUE_FULL;
 2279              		.loc 1 1268 12
 2280 0100 0023     		movs	r3, #0
 2281 0102 7B63     		str	r3, [r7, #52]
 2282              	.L147:
 2283 0104 FB6A     		ldr	r3, [r7, #44]
 2284 0106 FB60     		str	r3, [r7, #12]
 2285              	.LBE174:
 2286              	.LBB176:
 2287              	.LBB177:
 229:Middlewares/Third_Party/FreeRTOS/Source/portable/GCC/ARM_CM4F/portmacro.h **** 	(
 2288              		.loc 2 229 2
 2289 0108 FB68     		ldr	r3, [r7, #12]
 2290              		.syntax unified
 2291              	@ 229 "Middlewares/Third_Party/FreeRTOS/Source/portable/GCC/ARM_CM4F/portmacro.h" 1
 2292 010a 83F31188 			msr basepri, r3	
 2293              	@ 0 "" 2
 2294              		.loc 2 233 1
 2295              		.thumb
 2296              		.syntax unified
 2297 010e 00BF     		nop
 2298              	.LBE177:
 2299              	.LBE176:
1269:Middlewares/Third_Party/FreeRTOS/Source/queue.c **** 		}
1270:Middlewares/Third_Party/FreeRTOS/Source/queue.c **** 	}
1271:Middlewares/Third_Party/FreeRTOS/Source/queue.c **** 	portCLEAR_INTERRUPT_MASK_FROM_ISR( uxSavedInterruptStatus );
1272:Middlewares/Third_Party/FreeRTOS/Source/queue.c **** 
1273:Middlewares/Third_Party/FreeRTOS/Source/queue.c **** 	return xReturn;
 2300              		.loc 1 1273 9
 2301 0110 7B6B     		ldr	r3, [r7, #52]
1274:Middlewares/Third_Party/FreeRTOS/Source/queue.c **** }
 2302              		.loc 1 1274 1
 2303 0112 1846     		mov	r0, r3
 2304 0114 3837     		adds	r7, r7, #56
 2305              	.LCFI79:
 2306              		.cfi_def_cfa_offset 8
 2307 0116 BD46     		mov	sp, r7
 2308              	.LCFI80:
 2309              		.cfi_def_cfa_register 13
 2310              		@ sp needed
 2311 0118 80BD     		pop	{r7, pc}
ARM GAS  C:\Users\EI\AppData\Local\Temp\cc6xPaa5.s 			page 68


 2312              		.cfi_endproc
 2313              	.LFE19:
 2315              		.section	.text.xQueueReceive,"ax",%progbits
 2316              		.align	1
 2317              		.global	xQueueReceive
 2318              		.syntax unified
 2319              		.thumb
 2320              		.thumb_func
 2321              		.fpu fpv4-sp-d16
 2323              	xQueueReceive:
 2324              	.LFB20:
1275:Middlewares/Third_Party/FreeRTOS/Source/queue.c **** /*-----------------------------------------------------------*/
1276:Middlewares/Third_Party/FreeRTOS/Source/queue.c **** 
1277:Middlewares/Third_Party/FreeRTOS/Source/queue.c **** BaseType_t xQueueReceive( QueueHandle_t xQueue, void * const pvBuffer, TickType_t xTicksToWait )
1278:Middlewares/Third_Party/FreeRTOS/Source/queue.c **** {
 2325              		.loc 1 1278 1
 2326              		.cfi_startproc
 2327              		@ args = 0, pretend = 0, frame = 48
 2328              		@ frame_needed = 1, uses_anonymous_args = 0
 2329 0000 80B5     		push	{r7, lr}
 2330              	.LCFI81:
 2331              		.cfi_def_cfa_offset 8
 2332              		.cfi_offset 7, -8
 2333              		.cfi_offset 14, -4
 2334 0002 8CB0     		sub	sp, sp, #48
 2335              	.LCFI82:
 2336              		.cfi_def_cfa_offset 56
 2337 0004 00AF     		add	r7, sp, #0
 2338              	.LCFI83:
 2339              		.cfi_def_cfa_register 7
 2340 0006 F860     		str	r0, [r7, #12]
 2341 0008 B960     		str	r1, [r7, #8]
 2342 000a 7A60     		str	r2, [r7, #4]
1279:Middlewares/Third_Party/FreeRTOS/Source/queue.c **** BaseType_t xEntryTimeSet = pdFALSE;
 2343              		.loc 1 1279 12
 2344 000c 0023     		movs	r3, #0
 2345 000e FB62     		str	r3, [r7, #44]
1280:Middlewares/Third_Party/FreeRTOS/Source/queue.c **** TimeOut_t xTimeOut;
1281:Middlewares/Third_Party/FreeRTOS/Source/queue.c **** Queue_t * const pxQueue = xQueue;
 2346              		.loc 1 1281 17
 2347 0010 FB68     		ldr	r3, [r7, #12]
 2348 0012 BB62     		str	r3, [r7, #40]
1282:Middlewares/Third_Party/FreeRTOS/Source/queue.c **** 
1283:Middlewares/Third_Party/FreeRTOS/Source/queue.c **** 	/* Check the pointer is not NULL. */
1284:Middlewares/Third_Party/FreeRTOS/Source/queue.c **** 	configASSERT( ( pxQueue ) );
 2349              		.loc 1 1284 2
 2350 0014 BB6A     		ldr	r3, [r7, #40]
 2351 0016 002B     		cmp	r3, #0
 2352 0018 0AD1     		bne	.L150
 2353              	.LBB178:
 2354              	.LBB179:
 195:Middlewares/Third_Party/FreeRTOS/Source/portable/GCC/ARM_CM4F/portmacro.h **** 	(
 2355              		.loc 2 195 2
 2356              		.syntax unified
 2357              	@ 195 "Middlewares/Third_Party/FreeRTOS/Source/portable/GCC/ARM_CM4F/portmacro.h" 1
 2358 001a 4FF05003 			mov r3, #80												
 2359 001e 83F31188 		msr basepri, r3											
ARM GAS  C:\Users\EI\AppData\Local\Temp\cc6xPaa5.s 			page 69


 2360 0022 BFF36F8F 		isb														
 2361 0026 BFF34F8F 		dsb														
 2362              	
 2363              	@ 0 "" 2
 2364              		.thumb
 2365              		.syntax unified
 2366 002a 3B62     		str	r3, [r7, #32]
 203:Middlewares/Third_Party/FreeRTOS/Source/portable/GCC/ARM_CM4F/portmacro.h **** 
 2367              		.loc 2 203 1
 2368 002c 00BF     		nop
 2369              	.L151:
 2370              	.LBE179:
 2371              	.LBE178:
 2372              		.loc 1 1284 2 discriminator 1
 2373 002e FEE7     		b	.L151
 2374              	.L150:
1285:Middlewares/Third_Party/FreeRTOS/Source/queue.c **** 
1286:Middlewares/Third_Party/FreeRTOS/Source/queue.c **** 	/* The buffer into which data is received can only be NULL if the data size
1287:Middlewares/Third_Party/FreeRTOS/Source/queue.c **** 	is zero (so no data is copied into the buffer. */
1288:Middlewares/Third_Party/FreeRTOS/Source/queue.c **** 	configASSERT( !( ( ( pvBuffer ) == NULL ) && ( ( pxQueue )->uxItemSize != ( UBaseType_t ) 0U ) ) )
 2375              		.loc 1 1288 2
 2376 0030 BB68     		ldr	r3, [r7, #8]
 2377 0032 002B     		cmp	r3, #0
 2378 0034 03D1     		bne	.L152
 2379              		.loc 1 1288 2 is_stmt 0 discriminator 2
 2380 0036 BB6A     		ldr	r3, [r7, #40]
 2381 0038 1B6C     		ldr	r3, [r3, #64]
 2382 003a 002B     		cmp	r3, #0
 2383 003c 01D1     		bne	.L153
 2384              	.L152:
 2385              		.loc 1 1288 2 discriminator 3
 2386 003e 0123     		movs	r3, #1
 2387 0040 00E0     		b	.L154
 2388              	.L153:
 2389              		.loc 1 1288 2 discriminator 4
 2390 0042 0023     		movs	r3, #0
 2391              	.L154:
 2392              		.loc 1 1288 2 discriminator 6
 2393 0044 002B     		cmp	r3, #0
 2394 0046 0AD1     		bne	.L155
 2395              	.LBB180:
 2396              	.LBB181:
 195:Middlewares/Third_Party/FreeRTOS/Source/portable/GCC/ARM_CM4F/portmacro.h **** 	(
 2397              		.loc 2 195 2 is_stmt 1
 2398              		.syntax unified
 2399              	@ 195 "Middlewares/Third_Party/FreeRTOS/Source/portable/GCC/ARM_CM4F/portmacro.h" 1
 2400 0048 4FF05003 			mov r3, #80												
 2401 004c 83F31188 		msr basepri, r3											
 2402 0050 BFF36F8F 		isb														
 2403 0054 BFF34F8F 		dsb														
 2404              	
 2405              	@ 0 "" 2
 2406              		.thumb
 2407              		.syntax unified
 2408 0058 FB61     		str	r3, [r7, #28]
 203:Middlewares/Third_Party/FreeRTOS/Source/portable/GCC/ARM_CM4F/portmacro.h **** 
 2409              		.loc 2 203 1
ARM GAS  C:\Users\EI\AppData\Local\Temp\cc6xPaa5.s 			page 70


 2410 005a 00BF     		nop
 2411              	.L156:
 2412              	.LBE181:
 2413              	.LBE180:
 2414              		.loc 1 1288 2 discriminator 2
 2415 005c FEE7     		b	.L156
 2416              	.L155:
1289:Middlewares/Third_Party/FreeRTOS/Source/queue.c **** 
1290:Middlewares/Third_Party/FreeRTOS/Source/queue.c **** 	/* Cannot block if the scheduler is suspended. */
1291:Middlewares/Third_Party/FreeRTOS/Source/queue.c **** 	#if ( ( INCLUDE_xTaskGetSchedulerState == 1 ) || ( configUSE_TIMERS == 1 ) )
1292:Middlewares/Third_Party/FreeRTOS/Source/queue.c **** 	{
1293:Middlewares/Third_Party/FreeRTOS/Source/queue.c **** 		configASSERT( !( ( xTaskGetSchedulerState() == taskSCHEDULER_SUSPENDED ) && ( xTicksToWait != 0 )
 2417              		.loc 1 1293 3
 2418 005e FFF7FEFF 		bl	xTaskGetSchedulerState
 2419 0062 0346     		mov	r3, r0
 2420 0064 002B     		cmp	r3, #0
 2421 0066 02D1     		bne	.L157
 2422              		.loc 1 1293 3 is_stmt 0 discriminator 2
 2423 0068 7B68     		ldr	r3, [r7, #4]
 2424 006a 002B     		cmp	r3, #0
 2425 006c 01D1     		bne	.L158
 2426              	.L157:
 2427              		.loc 1 1293 3 discriminator 3
 2428 006e 0123     		movs	r3, #1
 2429 0070 00E0     		b	.L159
 2430              	.L158:
 2431              		.loc 1 1293 3 discriminator 4
 2432 0072 0023     		movs	r3, #0
 2433              	.L159:
 2434              		.loc 1 1293 3 discriminator 6
 2435 0074 002B     		cmp	r3, #0
 2436 0076 0AD1     		bne	.L160
 2437              	.LBB182:
 2438              	.LBB183:
 195:Middlewares/Third_Party/FreeRTOS/Source/portable/GCC/ARM_CM4F/portmacro.h **** 	(
 2439              		.loc 2 195 2 is_stmt 1
 2440              		.syntax unified
 2441              	@ 195 "Middlewares/Third_Party/FreeRTOS/Source/portable/GCC/ARM_CM4F/portmacro.h" 1
 2442 0078 4FF05003 			mov r3, #80												
 2443 007c 83F31188 		msr basepri, r3											
 2444 0080 BFF36F8F 		isb														
 2445 0084 BFF34F8F 		dsb														
 2446              	
 2447              	@ 0 "" 2
 2448              		.thumb
 2449              		.syntax unified
 2450 0088 BB61     		str	r3, [r7, #24]
 203:Middlewares/Third_Party/FreeRTOS/Source/portable/GCC/ARM_CM4F/portmacro.h **** 
 2451              		.loc 2 203 1
 2452 008a 00BF     		nop
 2453              	.L161:
 2454              	.LBE183:
 2455              	.LBE182:
 2456              		.loc 1 1293 3 discriminator 3
 2457 008c FEE7     		b	.L161
 2458              	.L160:
1294:Middlewares/Third_Party/FreeRTOS/Source/queue.c **** 	}
ARM GAS  C:\Users\EI\AppData\Local\Temp\cc6xPaa5.s 			page 71


1295:Middlewares/Third_Party/FreeRTOS/Source/queue.c **** 	#endif
1296:Middlewares/Third_Party/FreeRTOS/Source/queue.c **** 
1297:Middlewares/Third_Party/FreeRTOS/Source/queue.c **** 
1298:Middlewares/Third_Party/FreeRTOS/Source/queue.c **** 	/*lint -save -e904  This function relaxes the coding standard somewhat to
1299:Middlewares/Third_Party/FreeRTOS/Source/queue.c **** 	allow return statements within the function itself.  This is done in the
1300:Middlewares/Third_Party/FreeRTOS/Source/queue.c **** 	interest of execution time efficiency. */
1301:Middlewares/Third_Party/FreeRTOS/Source/queue.c **** 	for( ;; )
1302:Middlewares/Third_Party/FreeRTOS/Source/queue.c **** 	{
1303:Middlewares/Third_Party/FreeRTOS/Source/queue.c **** 		taskENTER_CRITICAL();
 2459              		.loc 1 1303 3
 2460 008e FFF7FEFF 		bl	vPortEnterCritical
 2461              	.LBB184:
1304:Middlewares/Third_Party/FreeRTOS/Source/queue.c **** 		{
1305:Middlewares/Third_Party/FreeRTOS/Source/queue.c **** 			const UBaseType_t uxMessagesWaiting = pxQueue->uxMessagesWaiting;
 2462              		.loc 1 1305 22
 2463 0092 BB6A     		ldr	r3, [r7, #40]
 2464 0094 9B6B     		ldr	r3, [r3, #56]
 2465 0096 7B62     		str	r3, [r7, #36]
1306:Middlewares/Third_Party/FreeRTOS/Source/queue.c **** 
1307:Middlewares/Third_Party/FreeRTOS/Source/queue.c **** 			/* Is there data in the queue now?  To be running the calling task
1308:Middlewares/Third_Party/FreeRTOS/Source/queue.c **** 			must be the highest priority task wanting to access the queue. */
1309:Middlewares/Third_Party/FreeRTOS/Source/queue.c **** 			if( uxMessagesWaiting > ( UBaseType_t ) 0 )
 2466              		.loc 1 1309 6
 2467 0098 7B6A     		ldr	r3, [r7, #36]
 2468 009a 002B     		cmp	r3, #0
 2469 009c 1FD0     		beq	.L162
1310:Middlewares/Third_Party/FreeRTOS/Source/queue.c **** 			{
1311:Middlewares/Third_Party/FreeRTOS/Source/queue.c **** 				/* Data available, remove one item. */
1312:Middlewares/Third_Party/FreeRTOS/Source/queue.c **** 				prvCopyDataFromQueue( pxQueue, pvBuffer );
 2470              		.loc 1 1312 5
 2471 009e B968     		ldr	r1, [r7, #8]
 2472 00a0 B86A     		ldr	r0, [r7, #40]
 2473 00a2 FFF7FEFF 		bl	prvCopyDataFromQueue
1313:Middlewares/Third_Party/FreeRTOS/Source/queue.c **** 				traceQUEUE_RECEIVE( pxQueue );
1314:Middlewares/Third_Party/FreeRTOS/Source/queue.c **** 				pxQueue->uxMessagesWaiting = uxMessagesWaiting - ( UBaseType_t ) 1;
 2474              		.loc 1 1314 52
 2475 00a6 7B6A     		ldr	r3, [r7, #36]
 2476 00a8 5A1E     		subs	r2, r3, #1
 2477              		.loc 1 1314 32
 2478 00aa BB6A     		ldr	r3, [r7, #40]
 2479 00ac 9A63     		str	r2, [r3, #56]
1315:Middlewares/Third_Party/FreeRTOS/Source/queue.c **** 
1316:Middlewares/Third_Party/FreeRTOS/Source/queue.c **** 				/* There is now space in the queue, were any tasks waiting to
1317:Middlewares/Third_Party/FreeRTOS/Source/queue.c **** 				post to the queue?  If so, unblock the highest priority waiting
1318:Middlewares/Third_Party/FreeRTOS/Source/queue.c **** 				task. */
1319:Middlewares/Third_Party/FreeRTOS/Source/queue.c **** 				if( listLIST_IS_EMPTY( &( pxQueue->xTasksWaitingToSend ) ) == pdFALSE )
 2480              		.loc 1 1319 9
 2481 00ae BB6A     		ldr	r3, [r7, #40]
 2482 00b0 1B69     		ldr	r3, [r3, #16]
 2483              		.loc 1 1319 7
 2484 00b2 002B     		cmp	r3, #0
 2485 00b4 0FD0     		beq	.L163
1320:Middlewares/Third_Party/FreeRTOS/Source/queue.c **** 				{
1321:Middlewares/Third_Party/FreeRTOS/Source/queue.c **** 					if( xTaskRemoveFromEventList( &( pxQueue->xTasksWaitingToSend ) ) != pdFALSE )
 2486              		.loc 1 1321 36
 2487 00b6 BB6A     		ldr	r3, [r7, #40]
 2488 00b8 1033     		adds	r3, r3, #16
ARM GAS  C:\Users\EI\AppData\Local\Temp\cc6xPaa5.s 			page 72


 2489              		.loc 1 1321 10
 2490 00ba 1846     		mov	r0, r3
 2491 00bc FFF7FEFF 		bl	xTaskRemoveFromEventList
 2492 00c0 0346     		mov	r3, r0
 2493              		.loc 1 1321 8
 2494 00c2 002B     		cmp	r3, #0
 2495 00c4 07D0     		beq	.L163
1322:Middlewares/Third_Party/FreeRTOS/Source/queue.c **** 					{
1323:Middlewares/Third_Party/FreeRTOS/Source/queue.c **** 						queueYIELD_IF_USING_PREEMPTION();
 2496              		.loc 1 1323 7
 2497 00c6 3D4B     		ldr	r3, .L173
 2498 00c8 4FF08052 		mov	r2, #268435456
 2499 00cc 1A60     		str	r2, [r3]
 2500              		.syntax unified
 2501              	@ 1323 "Middlewares/Third_Party/FreeRTOS/Source/queue.c" 1
 2502 00ce BFF34F8F 		dsb
 2503              	@ 0 "" 2
 2504              	@ 1323 "Middlewares/Third_Party/FreeRTOS/Source/queue.c" 1
 2505 00d2 BFF36F8F 		isb
 2506              	@ 0 "" 2
 2507              		.thumb
 2508              		.syntax unified
 2509              	.L163:
1324:Middlewares/Third_Party/FreeRTOS/Source/queue.c **** 					}
1325:Middlewares/Third_Party/FreeRTOS/Source/queue.c **** 					else
1326:Middlewares/Third_Party/FreeRTOS/Source/queue.c **** 					{
1327:Middlewares/Third_Party/FreeRTOS/Source/queue.c **** 						mtCOVERAGE_TEST_MARKER();
1328:Middlewares/Third_Party/FreeRTOS/Source/queue.c **** 					}
1329:Middlewares/Third_Party/FreeRTOS/Source/queue.c **** 				}
1330:Middlewares/Third_Party/FreeRTOS/Source/queue.c **** 				else
1331:Middlewares/Third_Party/FreeRTOS/Source/queue.c **** 				{
1332:Middlewares/Third_Party/FreeRTOS/Source/queue.c **** 					mtCOVERAGE_TEST_MARKER();
1333:Middlewares/Third_Party/FreeRTOS/Source/queue.c **** 				}
1334:Middlewares/Third_Party/FreeRTOS/Source/queue.c **** 
1335:Middlewares/Third_Party/FreeRTOS/Source/queue.c **** 				taskEXIT_CRITICAL();
 2510              		.loc 1 1335 5
 2511 00d6 FFF7FEFF 		bl	vPortExitCritical
1336:Middlewares/Third_Party/FreeRTOS/Source/queue.c **** 				return pdPASS;
 2512              		.loc 1 1336 12
 2513 00da 0123     		movs	r3, #1
 2514 00dc 69E0     		b	.L172
 2515              	.L162:
1337:Middlewares/Third_Party/FreeRTOS/Source/queue.c **** 			}
1338:Middlewares/Third_Party/FreeRTOS/Source/queue.c **** 			else
1339:Middlewares/Third_Party/FreeRTOS/Source/queue.c **** 			{
1340:Middlewares/Third_Party/FreeRTOS/Source/queue.c **** 				if( xTicksToWait == ( TickType_t ) 0 )
 2516              		.loc 1 1340 22
 2517 00de 7B68     		ldr	r3, [r7, #4]
 2518              		.loc 1 1340 7
 2519 00e0 002B     		cmp	r3, #0
 2520 00e2 03D1     		bne	.L165
