ARM GAS  C:\Users\EI\AppData\Local\Temp\ccZQ2WtN.s 			page 1


   1              		.cpu cortex-m4
   2              		.eabi_attribute 27, 1
   3              		.eabi_attribute 28, 1
   4              		.eabi_attribute 20, 1
   5              		.eabi_attribute 21, 1
   6              		.eabi_attribute 23, 3
   7              		.eabi_attribute 24, 1
   8              		.eabi_attribute 25, 1
   9              		.eabi_attribute 26, 1
  10              		.eabi_attribute 30, 6
  11              		.eabi_attribute 34, 1
  12              		.eabi_attribute 18, 4
  13              		.file	"stm32f4xx_hal_dma.c"
  14              		.text
  15              	.Ltext0:
  16              		.cfi_sections	.debug_frame
  17              		.section	.text.HAL_DMA_Init,"ax",%progbits
  18              		.align	1
  19              		.global	HAL_DMA_Init
  20              		.arch armv7e-m
  21              		.syntax unified
  22              		.thumb
  23              		.thumb_func
  24              		.fpu fpv4-sp-d16
  26              	HAL_DMA_Init:
  27              	.LFB216:
  28              		.file 1 "Drivers/STM32F4xx_HAL_Driver/Src/stm32f4xx_hal_dma.c"
   1:Drivers/STM32F4xx_HAL_Driver/Src/stm32f4xx_hal_dma.c **** /**
   2:Drivers/STM32F4xx_HAL_Driver/Src/stm32f4xx_hal_dma.c ****   ******************************************************************************
   3:Drivers/STM32F4xx_HAL_Driver/Src/stm32f4xx_hal_dma.c ****   * @file    stm32f4xx_hal_dma.c
   4:Drivers/STM32F4xx_HAL_Driver/Src/stm32f4xx_hal_dma.c ****   * @author  MCD Application Team
   5:Drivers/STM32F4xx_HAL_Driver/Src/stm32f4xx_hal_dma.c ****   * @brief   DMA HAL module driver.
   6:Drivers/STM32F4xx_HAL_Driver/Src/stm32f4xx_hal_dma.c ****   *    
   7:Drivers/STM32F4xx_HAL_Driver/Src/stm32f4xx_hal_dma.c ****   *          This file provides firmware functions to manage the following 
   8:Drivers/STM32F4xx_HAL_Driver/Src/stm32f4xx_hal_dma.c ****   *          functionalities of the Direct Memory Access (DMA) peripheral:
   9:Drivers/STM32F4xx_HAL_Driver/Src/stm32f4xx_hal_dma.c ****   *           + Initialization and de-initialization functions
  10:Drivers/STM32F4xx_HAL_Driver/Src/stm32f4xx_hal_dma.c ****   *           + IO operation functions
  11:Drivers/STM32F4xx_HAL_Driver/Src/stm32f4xx_hal_dma.c ****   *           + Peripheral State and errors functions
  12:Drivers/STM32F4xx_HAL_Driver/Src/stm32f4xx_hal_dma.c ****   @verbatim     
  13:Drivers/STM32F4xx_HAL_Driver/Src/stm32f4xx_hal_dma.c ****   ==============================================================================
  14:Drivers/STM32F4xx_HAL_Driver/Src/stm32f4xx_hal_dma.c ****                         ##### How to use this driver #####
  15:Drivers/STM32F4xx_HAL_Driver/Src/stm32f4xx_hal_dma.c ****   ==============================================================================
  16:Drivers/STM32F4xx_HAL_Driver/Src/stm32f4xx_hal_dma.c ****   [..]
  17:Drivers/STM32F4xx_HAL_Driver/Src/stm32f4xx_hal_dma.c ****    (#) Enable and configure the peripheral to be connected to the DMA Stream
  18:Drivers/STM32F4xx_HAL_Driver/Src/stm32f4xx_hal_dma.c ****        (except for internal SRAM/FLASH memories: no initialization is 
  19:Drivers/STM32F4xx_HAL_Driver/Src/stm32f4xx_hal_dma.c ****        necessary) please refer to Reference manual for connection between peripherals
  20:Drivers/STM32F4xx_HAL_Driver/Src/stm32f4xx_hal_dma.c ****        and DMA requests.
  21:Drivers/STM32F4xx_HAL_Driver/Src/stm32f4xx_hal_dma.c **** 
  22:Drivers/STM32F4xx_HAL_Driver/Src/stm32f4xx_hal_dma.c ****    (#) For a given Stream, program the required configuration through the following parameters:
  23:Drivers/STM32F4xx_HAL_Driver/Src/stm32f4xx_hal_dma.c ****        Transfer Direction, Source and Destination data formats, 
  24:Drivers/STM32F4xx_HAL_Driver/Src/stm32f4xx_hal_dma.c ****        Circular, Normal or peripheral flow control mode, Stream Priority level, 
  25:Drivers/STM32F4xx_HAL_Driver/Src/stm32f4xx_hal_dma.c ****        Source and Destination Increment mode, FIFO mode and its Threshold (if needed), 
  26:Drivers/STM32F4xx_HAL_Driver/Src/stm32f4xx_hal_dma.c ****        Burst mode for Source and/or Destination (if needed) using HAL_DMA_Init() function.
  27:Drivers/STM32F4xx_HAL_Driver/Src/stm32f4xx_hal_dma.c **** 
  28:Drivers/STM32F4xx_HAL_Driver/Src/stm32f4xx_hal_dma.c ****    -@-   Prior to HAL_DMA_Init() the clock must be enabled for DMA through the following macros:
  29:Drivers/STM32F4xx_HAL_Driver/Src/stm32f4xx_hal_dma.c ****          __HAL_RCC_DMA1_CLK_ENABLE() or __HAL_RCC_DMA2_CLK_ENABLE().
  30:Drivers/STM32F4xx_HAL_Driver/Src/stm32f4xx_hal_dma.c **** 
ARM GAS  C:\Users\EI\AppData\Local\Temp\ccZQ2WtN.s 			page 2


  31:Drivers/STM32F4xx_HAL_Driver/Src/stm32f4xx_hal_dma.c ****      *** Polling mode IO operation ***
  32:Drivers/STM32F4xx_HAL_Driver/Src/stm32f4xx_hal_dma.c ****      =================================
  33:Drivers/STM32F4xx_HAL_Driver/Src/stm32f4xx_hal_dma.c ****     [..]
  34:Drivers/STM32F4xx_HAL_Driver/Src/stm32f4xx_hal_dma.c ****           (+) Use HAL_DMA_Start() to start DMA transfer after the configuration of Source 
  35:Drivers/STM32F4xx_HAL_Driver/Src/stm32f4xx_hal_dma.c ****               address and destination address and the Length of data to be transferred.
  36:Drivers/STM32F4xx_HAL_Driver/Src/stm32f4xx_hal_dma.c ****           (+) Use HAL_DMA_PollForTransfer() to poll for the end of current transfer, in this  
  37:Drivers/STM32F4xx_HAL_Driver/Src/stm32f4xx_hal_dma.c ****               case a fixed Timeout can be configured by User depending from his application.
  38:Drivers/STM32F4xx_HAL_Driver/Src/stm32f4xx_hal_dma.c ****           (+) Use HAL_DMA_Abort() function to abort the current transfer.
  39:Drivers/STM32F4xx_HAL_Driver/Src/stm32f4xx_hal_dma.c **** 
  40:Drivers/STM32F4xx_HAL_Driver/Src/stm32f4xx_hal_dma.c ****      *** Interrupt mode IO operation ***
  41:Drivers/STM32F4xx_HAL_Driver/Src/stm32f4xx_hal_dma.c ****      ===================================
  42:Drivers/STM32F4xx_HAL_Driver/Src/stm32f4xx_hal_dma.c ****     [..]
  43:Drivers/STM32F4xx_HAL_Driver/Src/stm32f4xx_hal_dma.c ****           (+) Configure the DMA interrupt priority using HAL_NVIC_SetPriority()
  44:Drivers/STM32F4xx_HAL_Driver/Src/stm32f4xx_hal_dma.c ****           (+) Enable the DMA IRQ handler using HAL_NVIC_EnableIRQ() 
  45:Drivers/STM32F4xx_HAL_Driver/Src/stm32f4xx_hal_dma.c ****           (+) Use HAL_DMA_Start_IT() to start DMA transfer after the configuration of  
  46:Drivers/STM32F4xx_HAL_Driver/Src/stm32f4xx_hal_dma.c ****               Source address and destination address and the Length of data to be transferred. In t
  47:Drivers/STM32F4xx_HAL_Driver/Src/stm32f4xx_hal_dma.c ****               case the DMA interrupt is configured 
  48:Drivers/STM32F4xx_HAL_Driver/Src/stm32f4xx_hal_dma.c ****           (+) Use HAL_DMA_IRQHandler() called under DMA_IRQHandler() Interrupt subroutine
  49:Drivers/STM32F4xx_HAL_Driver/Src/stm32f4xx_hal_dma.c ****           (+) At the end of data transfer HAL_DMA_IRQHandler() function is executed and user can 
  50:Drivers/STM32F4xx_HAL_Driver/Src/stm32f4xx_hal_dma.c ****               add his own function by customization of function pointer XferCpltCallback and 
  51:Drivers/STM32F4xx_HAL_Driver/Src/stm32f4xx_hal_dma.c ****               XferErrorCallback (i.e a member of DMA handle structure).
  52:Drivers/STM32F4xx_HAL_Driver/Src/stm32f4xx_hal_dma.c ****     [..]
  53:Drivers/STM32F4xx_HAL_Driver/Src/stm32f4xx_hal_dma.c ****      (#) Use HAL_DMA_GetState() function to return the DMA state and HAL_DMA_GetError() in case of 
  54:Drivers/STM32F4xx_HAL_Driver/Src/stm32f4xx_hal_dma.c ****          detection.
  55:Drivers/STM32F4xx_HAL_Driver/Src/stm32f4xx_hal_dma.c **** 
  56:Drivers/STM32F4xx_HAL_Driver/Src/stm32f4xx_hal_dma.c ****      (#) Use HAL_DMA_Abort_IT() function to abort the current transfer
  57:Drivers/STM32F4xx_HAL_Driver/Src/stm32f4xx_hal_dma.c **** 
  58:Drivers/STM32F4xx_HAL_Driver/Src/stm32f4xx_hal_dma.c ****      -@-   In Memory-to-Memory transfer mode, Circular mode is not allowed.
  59:Drivers/STM32F4xx_HAL_Driver/Src/stm32f4xx_hal_dma.c **** 
  60:Drivers/STM32F4xx_HAL_Driver/Src/stm32f4xx_hal_dma.c ****      -@-   The FIFO is used mainly to reduce bus usage and to allow data packing/unpacking: it is
  61:Drivers/STM32F4xx_HAL_Driver/Src/stm32f4xx_hal_dma.c ****            possible to set different Data Sizes for the Peripheral and the Memory (ie. you can set
  62:Drivers/STM32F4xx_HAL_Driver/Src/stm32f4xx_hal_dma.c ****            Half-Word data size for the peripheral to access its data register and set Word data siz
  63:Drivers/STM32F4xx_HAL_Driver/Src/stm32f4xx_hal_dma.c ****            for the Memory to gain in access time. Each two half words will be packed and written in
  64:Drivers/STM32F4xx_HAL_Driver/Src/stm32f4xx_hal_dma.c ****            a single access to a Word in the Memory).
  65:Drivers/STM32F4xx_HAL_Driver/Src/stm32f4xx_hal_dma.c **** 
  66:Drivers/STM32F4xx_HAL_Driver/Src/stm32f4xx_hal_dma.c ****      -@-   When FIFO is disabled, it is not allowed to configure different Data Sizes for Source
  67:Drivers/STM32F4xx_HAL_Driver/Src/stm32f4xx_hal_dma.c ****            and Destination. In this case the Peripheral Data Size will be applied to both Source
  68:Drivers/STM32F4xx_HAL_Driver/Src/stm32f4xx_hal_dma.c ****            and Destination.
  69:Drivers/STM32F4xx_HAL_Driver/Src/stm32f4xx_hal_dma.c **** 
  70:Drivers/STM32F4xx_HAL_Driver/Src/stm32f4xx_hal_dma.c ****      *** DMA HAL driver macros list ***
  71:Drivers/STM32F4xx_HAL_Driver/Src/stm32f4xx_hal_dma.c ****      =============================================
  72:Drivers/STM32F4xx_HAL_Driver/Src/stm32f4xx_hal_dma.c ****      [..]
  73:Drivers/STM32F4xx_HAL_Driver/Src/stm32f4xx_hal_dma.c ****        Below the list of most used macros in DMA HAL driver.
  74:Drivers/STM32F4xx_HAL_Driver/Src/stm32f4xx_hal_dma.c ****        
  75:Drivers/STM32F4xx_HAL_Driver/Src/stm32f4xx_hal_dma.c ****       (+) __HAL_DMA_ENABLE: Enable the specified DMA Stream.
  76:Drivers/STM32F4xx_HAL_Driver/Src/stm32f4xx_hal_dma.c ****       (+) __HAL_DMA_DISABLE: Disable the specified DMA Stream.
  77:Drivers/STM32F4xx_HAL_Driver/Src/stm32f4xx_hal_dma.c ****       (+) __HAL_DMA_GET_IT_SOURCE: Check whether the specified DMA Stream interrupt has occurred or
  78:Drivers/STM32F4xx_HAL_Driver/Src/stm32f4xx_hal_dma.c **** 
  79:Drivers/STM32F4xx_HAL_Driver/Src/stm32f4xx_hal_dma.c ****      [..]
  80:Drivers/STM32F4xx_HAL_Driver/Src/stm32f4xx_hal_dma.c ****       (@) You can refer to the DMA HAL driver header file for more useful macros
  81:Drivers/STM32F4xx_HAL_Driver/Src/stm32f4xx_hal_dma.c **** 
  82:Drivers/STM32F4xx_HAL_Driver/Src/stm32f4xx_hal_dma.c ****   @endverbatim
  83:Drivers/STM32F4xx_HAL_Driver/Src/stm32f4xx_hal_dma.c ****   ******************************************************************************
  84:Drivers/STM32F4xx_HAL_Driver/Src/stm32f4xx_hal_dma.c ****   * @attention
  85:Drivers/STM32F4xx_HAL_Driver/Src/stm32f4xx_hal_dma.c ****   *
  86:Drivers/STM32F4xx_HAL_Driver/Src/stm32f4xx_hal_dma.c ****   * Copyright (c) 2017 STMicroelectronics.
  87:Drivers/STM32F4xx_HAL_Driver/Src/stm32f4xx_hal_dma.c ****   * All rights reserved.
ARM GAS  C:\Users\EI\AppData\Local\Temp\ccZQ2WtN.s 			page 3


  88:Drivers/STM32F4xx_HAL_Driver/Src/stm32f4xx_hal_dma.c ****   *
  89:Drivers/STM32F4xx_HAL_Driver/Src/stm32f4xx_hal_dma.c ****   * This software is licensed under terms that can be found in the LICENSE file in
  90:Drivers/STM32F4xx_HAL_Driver/Src/stm32f4xx_hal_dma.c ****   * the root directory of this software component.
  91:Drivers/STM32F4xx_HAL_Driver/Src/stm32f4xx_hal_dma.c ****   * If no LICENSE file comes with this software, it is provided AS-IS.
  92:Drivers/STM32F4xx_HAL_Driver/Src/stm32f4xx_hal_dma.c ****   *
  93:Drivers/STM32F4xx_HAL_Driver/Src/stm32f4xx_hal_dma.c ****   ******************************************************************************
  94:Drivers/STM32F4xx_HAL_Driver/Src/stm32f4xx_hal_dma.c ****   */ 
  95:Drivers/STM32F4xx_HAL_Driver/Src/stm32f4xx_hal_dma.c **** 
  96:Drivers/STM32F4xx_HAL_Driver/Src/stm32f4xx_hal_dma.c **** /* Includes ------------------------------------------------------------------*/
  97:Drivers/STM32F4xx_HAL_Driver/Src/stm32f4xx_hal_dma.c **** #include "stm32f4xx_hal.h"
  98:Drivers/STM32F4xx_HAL_Driver/Src/stm32f4xx_hal_dma.c **** 
  99:Drivers/STM32F4xx_HAL_Driver/Src/stm32f4xx_hal_dma.c **** /** @addtogroup STM32F4xx_HAL_Driver
 100:Drivers/STM32F4xx_HAL_Driver/Src/stm32f4xx_hal_dma.c ****   * @{
 101:Drivers/STM32F4xx_HAL_Driver/Src/stm32f4xx_hal_dma.c ****   */
 102:Drivers/STM32F4xx_HAL_Driver/Src/stm32f4xx_hal_dma.c **** 
 103:Drivers/STM32F4xx_HAL_Driver/Src/stm32f4xx_hal_dma.c **** /** @defgroup DMA DMA
 104:Drivers/STM32F4xx_HAL_Driver/Src/stm32f4xx_hal_dma.c ****   * @brief DMA HAL module driver
 105:Drivers/STM32F4xx_HAL_Driver/Src/stm32f4xx_hal_dma.c ****   * @{
 106:Drivers/STM32F4xx_HAL_Driver/Src/stm32f4xx_hal_dma.c ****   */
 107:Drivers/STM32F4xx_HAL_Driver/Src/stm32f4xx_hal_dma.c **** 
 108:Drivers/STM32F4xx_HAL_Driver/Src/stm32f4xx_hal_dma.c **** #ifdef HAL_DMA_MODULE_ENABLED
 109:Drivers/STM32F4xx_HAL_Driver/Src/stm32f4xx_hal_dma.c **** 
 110:Drivers/STM32F4xx_HAL_Driver/Src/stm32f4xx_hal_dma.c **** /* Private types -------------------------------------------------------------*/
 111:Drivers/STM32F4xx_HAL_Driver/Src/stm32f4xx_hal_dma.c **** typedef struct
 112:Drivers/STM32F4xx_HAL_Driver/Src/stm32f4xx_hal_dma.c **** {
 113:Drivers/STM32F4xx_HAL_Driver/Src/stm32f4xx_hal_dma.c ****   __IO uint32_t ISR;   /*!< DMA interrupt status register */
 114:Drivers/STM32F4xx_HAL_Driver/Src/stm32f4xx_hal_dma.c ****   __IO uint32_t Reserved0;
 115:Drivers/STM32F4xx_HAL_Driver/Src/stm32f4xx_hal_dma.c ****   __IO uint32_t IFCR;  /*!< DMA interrupt flag clear register */
 116:Drivers/STM32F4xx_HAL_Driver/Src/stm32f4xx_hal_dma.c **** } DMA_Base_Registers;
 117:Drivers/STM32F4xx_HAL_Driver/Src/stm32f4xx_hal_dma.c **** 
 118:Drivers/STM32F4xx_HAL_Driver/Src/stm32f4xx_hal_dma.c **** /* Private variables ---------------------------------------------------------*/
 119:Drivers/STM32F4xx_HAL_Driver/Src/stm32f4xx_hal_dma.c **** /* Private constants ---------------------------------------------------------*/
 120:Drivers/STM32F4xx_HAL_Driver/Src/stm32f4xx_hal_dma.c **** /** @addtogroup DMA_Private_Constants
 121:Drivers/STM32F4xx_HAL_Driver/Src/stm32f4xx_hal_dma.c ****  * @{
 122:Drivers/STM32F4xx_HAL_Driver/Src/stm32f4xx_hal_dma.c ****  */
 123:Drivers/STM32F4xx_HAL_Driver/Src/stm32f4xx_hal_dma.c ****  #define HAL_TIMEOUT_DMA_ABORT    5U  /* 5 ms */
 124:Drivers/STM32F4xx_HAL_Driver/Src/stm32f4xx_hal_dma.c **** /**
 125:Drivers/STM32F4xx_HAL_Driver/Src/stm32f4xx_hal_dma.c ****   * @}
 126:Drivers/STM32F4xx_HAL_Driver/Src/stm32f4xx_hal_dma.c ****   */
 127:Drivers/STM32F4xx_HAL_Driver/Src/stm32f4xx_hal_dma.c **** /* Private macros ------------------------------------------------------------*/
 128:Drivers/STM32F4xx_HAL_Driver/Src/stm32f4xx_hal_dma.c **** /* Private functions ---------------------------------------------------------*/
 129:Drivers/STM32F4xx_HAL_Driver/Src/stm32f4xx_hal_dma.c **** /** @addtogroup DMA_Private_Functions
 130:Drivers/STM32F4xx_HAL_Driver/Src/stm32f4xx_hal_dma.c ****   * @{
 131:Drivers/STM32F4xx_HAL_Driver/Src/stm32f4xx_hal_dma.c ****   */
 132:Drivers/STM32F4xx_HAL_Driver/Src/stm32f4xx_hal_dma.c **** static void DMA_SetConfig(DMA_HandleTypeDef *hdma, uint32_t SrcAddress, uint32_t DstAddress, uint32
 133:Drivers/STM32F4xx_HAL_Driver/Src/stm32f4xx_hal_dma.c **** static uint32_t DMA_CalcBaseAndBitshift(DMA_HandleTypeDef *hdma);
 134:Drivers/STM32F4xx_HAL_Driver/Src/stm32f4xx_hal_dma.c **** static HAL_StatusTypeDef DMA_CheckFifoParam(DMA_HandleTypeDef *hdma);
 135:Drivers/STM32F4xx_HAL_Driver/Src/stm32f4xx_hal_dma.c **** 
 136:Drivers/STM32F4xx_HAL_Driver/Src/stm32f4xx_hal_dma.c **** /**
 137:Drivers/STM32F4xx_HAL_Driver/Src/stm32f4xx_hal_dma.c ****   * @}
 138:Drivers/STM32F4xx_HAL_Driver/Src/stm32f4xx_hal_dma.c ****   */  
 139:Drivers/STM32F4xx_HAL_Driver/Src/stm32f4xx_hal_dma.c **** 
 140:Drivers/STM32F4xx_HAL_Driver/Src/stm32f4xx_hal_dma.c **** /* Exported functions ---------------------------------------------------------*/
 141:Drivers/STM32F4xx_HAL_Driver/Src/stm32f4xx_hal_dma.c **** /** @addtogroup DMA_Exported_Functions
 142:Drivers/STM32F4xx_HAL_Driver/Src/stm32f4xx_hal_dma.c ****   * @{
 143:Drivers/STM32F4xx_HAL_Driver/Src/stm32f4xx_hal_dma.c ****   */
 144:Drivers/STM32F4xx_HAL_Driver/Src/stm32f4xx_hal_dma.c **** 
ARM GAS  C:\Users\EI\AppData\Local\Temp\ccZQ2WtN.s 			page 4


 145:Drivers/STM32F4xx_HAL_Driver/Src/stm32f4xx_hal_dma.c **** /** @addtogroup DMA_Exported_Functions_Group1
 146:Drivers/STM32F4xx_HAL_Driver/Src/stm32f4xx_hal_dma.c ****   *
 147:Drivers/STM32F4xx_HAL_Driver/Src/stm32f4xx_hal_dma.c **** @verbatim
 148:Drivers/STM32F4xx_HAL_Driver/Src/stm32f4xx_hal_dma.c ****  ===============================================================================
 149:Drivers/STM32F4xx_HAL_Driver/Src/stm32f4xx_hal_dma.c ****              ##### Initialization and de-initialization functions  #####
 150:Drivers/STM32F4xx_HAL_Driver/Src/stm32f4xx_hal_dma.c ****  ===============================================================================
 151:Drivers/STM32F4xx_HAL_Driver/Src/stm32f4xx_hal_dma.c ****     [..]
 152:Drivers/STM32F4xx_HAL_Driver/Src/stm32f4xx_hal_dma.c ****     This section provides functions allowing to initialize the DMA Stream source
 153:Drivers/STM32F4xx_HAL_Driver/Src/stm32f4xx_hal_dma.c ****     and destination addresses, incrementation and data sizes, transfer direction, 
 154:Drivers/STM32F4xx_HAL_Driver/Src/stm32f4xx_hal_dma.c ****     circular/normal mode selection, memory-to-memory mode selection and Stream priority value.
 155:Drivers/STM32F4xx_HAL_Driver/Src/stm32f4xx_hal_dma.c ****     [..]
 156:Drivers/STM32F4xx_HAL_Driver/Src/stm32f4xx_hal_dma.c ****     The HAL_DMA_Init() function follows the DMA configuration procedures as described in
 157:Drivers/STM32F4xx_HAL_Driver/Src/stm32f4xx_hal_dma.c ****     reference manual.
 158:Drivers/STM32F4xx_HAL_Driver/Src/stm32f4xx_hal_dma.c **** 
 159:Drivers/STM32F4xx_HAL_Driver/Src/stm32f4xx_hal_dma.c **** @endverbatim
 160:Drivers/STM32F4xx_HAL_Driver/Src/stm32f4xx_hal_dma.c ****   * @{
 161:Drivers/STM32F4xx_HAL_Driver/Src/stm32f4xx_hal_dma.c ****   */
 162:Drivers/STM32F4xx_HAL_Driver/Src/stm32f4xx_hal_dma.c ****   
 163:Drivers/STM32F4xx_HAL_Driver/Src/stm32f4xx_hal_dma.c **** /**
 164:Drivers/STM32F4xx_HAL_Driver/Src/stm32f4xx_hal_dma.c ****   * @brief  Initialize the DMA according to the specified
 165:Drivers/STM32F4xx_HAL_Driver/Src/stm32f4xx_hal_dma.c ****   *         parameters in the DMA_InitTypeDef and create the associated handle.
 166:Drivers/STM32F4xx_HAL_Driver/Src/stm32f4xx_hal_dma.c ****   * @param  hdma Pointer to a DMA_HandleTypeDef structure that contains
 167:Drivers/STM32F4xx_HAL_Driver/Src/stm32f4xx_hal_dma.c ****   *               the configuration information for the specified DMA Stream.  
 168:Drivers/STM32F4xx_HAL_Driver/Src/stm32f4xx_hal_dma.c ****   * @retval HAL status
 169:Drivers/STM32F4xx_HAL_Driver/Src/stm32f4xx_hal_dma.c ****   */
 170:Drivers/STM32F4xx_HAL_Driver/Src/stm32f4xx_hal_dma.c **** HAL_StatusTypeDef HAL_DMA_Init(DMA_HandleTypeDef *hdma)
 171:Drivers/STM32F4xx_HAL_Driver/Src/stm32f4xx_hal_dma.c **** {
  29              		.loc 1 171 1
  30              		.cfi_startproc
  31              		@ args = 0, pretend = 0, frame = 24
  32              		@ frame_needed = 1, uses_anonymous_args = 0
  33 0000 80B5     		push	{r7, lr}
  34              	.LCFI0:
  35              		.cfi_def_cfa_offset 8
  36              		.cfi_offset 7, -8
  37              		.cfi_offset 14, -4
  38 0002 86B0     		sub	sp, sp, #24
  39              	.LCFI1:
  40              		.cfi_def_cfa_offset 32
  41 0004 00AF     		add	r7, sp, #0
  42              	.LCFI2:
  43              		.cfi_def_cfa_register 7
  44 0006 7860     		str	r0, [r7, #4]
 172:Drivers/STM32F4xx_HAL_Driver/Src/stm32f4xx_hal_dma.c ****   uint32_t tmp = 0U;
  45              		.loc 1 172 12
  46 0008 0023     		movs	r3, #0
  47 000a 7B61     		str	r3, [r7, #20]
 173:Drivers/STM32F4xx_HAL_Driver/Src/stm32f4xx_hal_dma.c ****   uint32_t tickstart = HAL_GetTick();
  48              		.loc 1 173 24
  49 000c FFF7FEFF 		bl	HAL_GetTick
  50 0010 3861     		str	r0, [r7, #16]
 174:Drivers/STM32F4xx_HAL_Driver/Src/stm32f4xx_hal_dma.c ****   DMA_Base_Registers *regs;
 175:Drivers/STM32F4xx_HAL_Driver/Src/stm32f4xx_hal_dma.c **** 
 176:Drivers/STM32F4xx_HAL_Driver/Src/stm32f4xx_hal_dma.c ****   /* Check the DMA peripheral state */
 177:Drivers/STM32F4xx_HAL_Driver/Src/stm32f4xx_hal_dma.c ****   if(hdma == NULL)
  51              		.loc 1 177 5
  52 0012 7B68     		ldr	r3, [r7, #4]
ARM GAS  C:\Users\EI\AppData\Local\Temp\ccZQ2WtN.s 			page 5


  53 0014 002B     		cmp	r3, #0
  54 0016 01D1     		bne	.L2
 178:Drivers/STM32F4xx_HAL_Driver/Src/stm32f4xx_hal_dma.c ****   {
 179:Drivers/STM32F4xx_HAL_Driver/Src/stm32f4xx_hal_dma.c ****     return HAL_ERROR;
  55              		.loc 1 179 12
  56 0018 0123     		movs	r3, #1
  57 001a 99E0     		b	.L3
  58              	.L2:
 180:Drivers/STM32F4xx_HAL_Driver/Src/stm32f4xx_hal_dma.c ****   }
 181:Drivers/STM32F4xx_HAL_Driver/Src/stm32f4xx_hal_dma.c **** 
 182:Drivers/STM32F4xx_HAL_Driver/Src/stm32f4xx_hal_dma.c ****   /* Check the parameters */
 183:Drivers/STM32F4xx_HAL_Driver/Src/stm32f4xx_hal_dma.c ****   assert_param(IS_DMA_STREAM_ALL_INSTANCE(hdma->Instance));
 184:Drivers/STM32F4xx_HAL_Driver/Src/stm32f4xx_hal_dma.c ****   assert_param(IS_DMA_CHANNEL(hdma->Init.Channel));
 185:Drivers/STM32F4xx_HAL_Driver/Src/stm32f4xx_hal_dma.c ****   assert_param(IS_DMA_DIRECTION(hdma->Init.Direction));
 186:Drivers/STM32F4xx_HAL_Driver/Src/stm32f4xx_hal_dma.c ****   assert_param(IS_DMA_PERIPHERAL_INC_STATE(hdma->Init.PeriphInc));
 187:Drivers/STM32F4xx_HAL_Driver/Src/stm32f4xx_hal_dma.c ****   assert_param(IS_DMA_MEMORY_INC_STATE(hdma->Init.MemInc));
 188:Drivers/STM32F4xx_HAL_Driver/Src/stm32f4xx_hal_dma.c ****   assert_param(IS_DMA_PERIPHERAL_DATA_SIZE(hdma->Init.PeriphDataAlignment));
 189:Drivers/STM32F4xx_HAL_Driver/Src/stm32f4xx_hal_dma.c ****   assert_param(IS_DMA_MEMORY_DATA_SIZE(hdma->Init.MemDataAlignment));
 190:Drivers/STM32F4xx_HAL_Driver/Src/stm32f4xx_hal_dma.c ****   assert_param(IS_DMA_MODE(hdma->Init.Mode));
 191:Drivers/STM32F4xx_HAL_Driver/Src/stm32f4xx_hal_dma.c ****   assert_param(IS_DMA_PRIORITY(hdma->Init.Priority));
 192:Drivers/STM32F4xx_HAL_Driver/Src/stm32f4xx_hal_dma.c ****   assert_param(IS_DMA_FIFO_MODE_STATE(hdma->Init.FIFOMode));
 193:Drivers/STM32F4xx_HAL_Driver/Src/stm32f4xx_hal_dma.c ****   /* Check the memory burst, peripheral burst and FIFO threshold parameters only
 194:Drivers/STM32F4xx_HAL_Driver/Src/stm32f4xx_hal_dma.c ****      when FIFO mode is enabled */
 195:Drivers/STM32F4xx_HAL_Driver/Src/stm32f4xx_hal_dma.c ****   if(hdma->Init.FIFOMode != DMA_FIFOMODE_DISABLE)
 196:Drivers/STM32F4xx_HAL_Driver/Src/stm32f4xx_hal_dma.c ****   {
 197:Drivers/STM32F4xx_HAL_Driver/Src/stm32f4xx_hal_dma.c ****     assert_param(IS_DMA_FIFO_THRESHOLD(hdma->Init.FIFOThreshold));
 198:Drivers/STM32F4xx_HAL_Driver/Src/stm32f4xx_hal_dma.c ****     assert_param(IS_DMA_MEMORY_BURST(hdma->Init.MemBurst));
 199:Drivers/STM32F4xx_HAL_Driver/Src/stm32f4xx_hal_dma.c ****     assert_param(IS_DMA_PERIPHERAL_BURST(hdma->Init.PeriphBurst));
 200:Drivers/STM32F4xx_HAL_Driver/Src/stm32f4xx_hal_dma.c ****   }
 201:Drivers/STM32F4xx_HAL_Driver/Src/stm32f4xx_hal_dma.c **** 
 202:Drivers/STM32F4xx_HAL_Driver/Src/stm32f4xx_hal_dma.c ****   /* Change DMA peripheral state */
 203:Drivers/STM32F4xx_HAL_Driver/Src/stm32f4xx_hal_dma.c ****   hdma->State = HAL_DMA_STATE_BUSY;
  59              		.loc 1 203 15
  60 001c 7B68     		ldr	r3, [r7, #4]
  61 001e 0222     		movs	r2, #2
  62 0020 83F83520 		strb	r2, [r3, #53]
 204:Drivers/STM32F4xx_HAL_Driver/Src/stm32f4xx_hal_dma.c **** 
 205:Drivers/STM32F4xx_HAL_Driver/Src/stm32f4xx_hal_dma.c ****   /* Allocate lock resource */
 206:Drivers/STM32F4xx_HAL_Driver/Src/stm32f4xx_hal_dma.c ****   __HAL_UNLOCK(hdma);
  63              		.loc 1 206 3
  64 0024 7B68     		ldr	r3, [r7, #4]
  65 0026 0022     		movs	r2, #0
  66 0028 83F83420 		strb	r2, [r3, #52]
 207:Drivers/STM32F4xx_HAL_Driver/Src/stm32f4xx_hal_dma.c ****   
 208:Drivers/STM32F4xx_HAL_Driver/Src/stm32f4xx_hal_dma.c ****   /* Disable the peripheral */
 209:Drivers/STM32F4xx_HAL_Driver/Src/stm32f4xx_hal_dma.c ****   __HAL_DMA_DISABLE(hdma);
  67              		.loc 1 209 3
  68 002c 7B68     		ldr	r3, [r7, #4]
  69 002e 1B68     		ldr	r3, [r3]
  70 0030 1A68     		ldr	r2, [r3]
  71 0032 7B68     		ldr	r3, [r7, #4]
  72 0034 1B68     		ldr	r3, [r3]
  73 0036 22F00102 		bic	r2, r2, #1
  74 003a 1A60     		str	r2, [r3]
 210:Drivers/STM32F4xx_HAL_Driver/Src/stm32f4xx_hal_dma.c ****   
 211:Drivers/STM32F4xx_HAL_Driver/Src/stm32f4xx_hal_dma.c ****   /* Check if the DMA Stream is effectively disabled */
 212:Drivers/STM32F4xx_HAL_Driver/Src/stm32f4xx_hal_dma.c ****   while((hdma->Instance->CR & DMA_SxCR_EN) != RESET)
ARM GAS  C:\Users\EI\AppData\Local\Temp\ccZQ2WtN.s 			page 6


  75              		.loc 1 212 8
  76 003c 0FE0     		b	.L4
  77              	.L5:
 213:Drivers/STM32F4xx_HAL_Driver/Src/stm32f4xx_hal_dma.c ****   {
 214:Drivers/STM32F4xx_HAL_Driver/Src/stm32f4xx_hal_dma.c ****     /* Check for the Timeout */
 215:Drivers/STM32F4xx_HAL_Driver/Src/stm32f4xx_hal_dma.c ****     if((HAL_GetTick() - tickstart ) > HAL_TIMEOUT_DMA_ABORT)
  78              		.loc 1 215 9
  79 003e FFF7FEFF 		bl	HAL_GetTick
  80 0042 0246     		mov	r2, r0
  81              		.loc 1 215 23
  82 0044 3B69     		ldr	r3, [r7, #16]
  83 0046 D31A     		subs	r3, r2, r3
  84              		.loc 1 215 7
  85 0048 052B     		cmp	r3, #5
  86 004a 08D9     		bls	.L4
 216:Drivers/STM32F4xx_HAL_Driver/Src/stm32f4xx_hal_dma.c ****     {
 217:Drivers/STM32F4xx_HAL_Driver/Src/stm32f4xx_hal_dma.c ****       /* Update error code */
 218:Drivers/STM32F4xx_HAL_Driver/Src/stm32f4xx_hal_dma.c ****       hdma->ErrorCode = HAL_DMA_ERROR_TIMEOUT;
  87              		.loc 1 218 23
  88 004c 7B68     		ldr	r3, [r7, #4]
  89 004e 2022     		movs	r2, #32
  90 0050 5A65     		str	r2, [r3, #84]
 219:Drivers/STM32F4xx_HAL_Driver/Src/stm32f4xx_hal_dma.c ****       
 220:Drivers/STM32F4xx_HAL_Driver/Src/stm32f4xx_hal_dma.c ****       /* Change the DMA state */
 221:Drivers/STM32F4xx_HAL_Driver/Src/stm32f4xx_hal_dma.c ****       hdma->State = HAL_DMA_STATE_TIMEOUT;
  91              		.loc 1 221 19
  92 0052 7B68     		ldr	r3, [r7, #4]
  93 0054 0322     		movs	r2, #3
  94 0056 83F83520 		strb	r2, [r3, #53]
 222:Drivers/STM32F4xx_HAL_Driver/Src/stm32f4xx_hal_dma.c ****       
 223:Drivers/STM32F4xx_HAL_Driver/Src/stm32f4xx_hal_dma.c ****       return HAL_TIMEOUT;
  95              		.loc 1 223 14
  96 005a 0323     		movs	r3, #3
  97 005c 78E0     		b	.L3
  98              	.L4:
 212:Drivers/STM32F4xx_HAL_Driver/Src/stm32f4xx_hal_dma.c ****   {
  99              		.loc 1 212 14
 100 005e 7B68     		ldr	r3, [r7, #4]
 101 0060 1B68     		ldr	r3, [r3]
 212:Drivers/STM32F4xx_HAL_Driver/Src/stm32f4xx_hal_dma.c ****   {
 102              		.loc 1 212 24
 103 0062 1B68     		ldr	r3, [r3]
 212:Drivers/STM32F4xx_HAL_Driver/Src/stm32f4xx_hal_dma.c ****   {
 104              		.loc 1 212 29
 105 0064 03F00103 		and	r3, r3, #1
 212:Drivers/STM32F4xx_HAL_Driver/Src/stm32f4xx_hal_dma.c ****   {
 106              		.loc 1 212 8
 107 0068 002B     		cmp	r3, #0
 108 006a E8D1     		bne	.L5
 224:Drivers/STM32F4xx_HAL_Driver/Src/stm32f4xx_hal_dma.c ****     }
 225:Drivers/STM32F4xx_HAL_Driver/Src/stm32f4xx_hal_dma.c ****   }
 226:Drivers/STM32F4xx_HAL_Driver/Src/stm32f4xx_hal_dma.c ****   
 227:Drivers/STM32F4xx_HAL_Driver/Src/stm32f4xx_hal_dma.c ****   /* Get the CR register value */
 228:Drivers/STM32F4xx_HAL_Driver/Src/stm32f4xx_hal_dma.c ****   tmp = hdma->Instance->CR;
 109              		.loc 1 228 13
 110 006c 7B68     		ldr	r3, [r7, #4]
 111 006e 1B68     		ldr	r3, [r3]
ARM GAS  C:\Users\EI\AppData\Local\Temp\ccZQ2WtN.s 			page 7


 112              		.loc 1 228 7
 113 0070 1B68     		ldr	r3, [r3]
 114 0072 7B61     		str	r3, [r7, #20]
 229:Drivers/STM32F4xx_HAL_Driver/Src/stm32f4xx_hal_dma.c **** 
 230:Drivers/STM32F4xx_HAL_Driver/Src/stm32f4xx_hal_dma.c ****   /* Clear CHSEL, MBURST, PBURST, PL, MSIZE, PSIZE, MINC, PINC, CIRC, DIR, CT and DBM bits */
 231:Drivers/STM32F4xx_HAL_Driver/Src/stm32f4xx_hal_dma.c ****   tmp &= ((uint32_t)~(DMA_SxCR_CHSEL | DMA_SxCR_MBURST | DMA_SxCR_PBURST | \
 115              		.loc 1 231 7
 116 0074 7A69     		ldr	r2, [r7, #20]
 117 0076 384B     		ldr	r3, .L8
 118 0078 1340     		ands	r3, r3, r2
 119 007a 7B61     		str	r3, [r7, #20]
 232:Drivers/STM32F4xx_HAL_Driver/Src/stm32f4xx_hal_dma.c ****                       DMA_SxCR_PL    | DMA_SxCR_MSIZE  | DMA_SxCR_PSIZE  | \
 233:Drivers/STM32F4xx_HAL_Driver/Src/stm32f4xx_hal_dma.c ****                       DMA_SxCR_MINC  | DMA_SxCR_PINC   | DMA_SxCR_CIRC   | \
 234:Drivers/STM32F4xx_HAL_Driver/Src/stm32f4xx_hal_dma.c ****                       DMA_SxCR_DIR   | DMA_SxCR_CT     | DMA_SxCR_DBM));
 235:Drivers/STM32F4xx_HAL_Driver/Src/stm32f4xx_hal_dma.c **** 
 236:Drivers/STM32F4xx_HAL_Driver/Src/stm32f4xx_hal_dma.c ****   /* Prepare the DMA Stream configuration */
 237:Drivers/STM32F4xx_HAL_Driver/Src/stm32f4xx_hal_dma.c ****   tmp |=  hdma->Init.Channel             | hdma->Init.Direction        |
 120              		.loc 1 237 21
 121 007c 7B68     		ldr	r3, [r7, #4]
 122 007e 5A68     		ldr	r2, [r3, #4]
 123              		.loc 1 237 54
 124 0080 7B68     		ldr	r3, [r7, #4]
 125 0082 9B68     		ldr	r3, [r3, #8]
 126              		.loc 1 237 42
 127 0084 1A43     		orrs	r2, r2, r3
 238:Drivers/STM32F4xx_HAL_Driver/Src/stm32f4xx_hal_dma.c ****           hdma->Init.PeriphInc           | hdma->Init.MemInc           |
 128              		.loc 1 238 21
 129 0086 7B68     		ldr	r3, [r7, #4]
 130 0088 DB68     		ldr	r3, [r3, #12]
 237:Drivers/STM32F4xx_HAL_Driver/Src/stm32f4xx_hal_dma.c ****           hdma->Init.PeriphInc           | hdma->Init.MemInc           |
 131              		.loc 1 237 72
 132 008a 1A43     		orrs	r2, r2, r3
 133              		.loc 1 238 54
 134 008c 7B68     		ldr	r3, [r7, #4]
 135 008e 1B69     		ldr	r3, [r3, #16]
 136              		.loc 1 238 42
 137 0090 1A43     		orrs	r2, r2, r3
 239:Drivers/STM32F4xx_HAL_Driver/Src/stm32f4xx_hal_dma.c ****           hdma->Init.PeriphDataAlignment | hdma->Init.MemDataAlignment |
 138              		.loc 1 239 21
 139 0092 7B68     		ldr	r3, [r7, #4]
 140 0094 5B69     		ldr	r3, [r3, #20]
 238:Drivers/STM32F4xx_HAL_Driver/Src/stm32f4xx_hal_dma.c ****           hdma->Init.PeriphInc           | hdma->Init.MemInc           |
 141              		.loc 1 238 72
 142 0096 1A43     		orrs	r2, r2, r3
 143              		.loc 1 239 54
 144 0098 7B68     		ldr	r3, [r7, #4]
 145 009a 9B69     		ldr	r3, [r3, #24]
 146              		.loc 1 239 42
 147 009c 1A43     		orrs	r2, r2, r3
 240:Drivers/STM32F4xx_HAL_Driver/Src/stm32f4xx_hal_dma.c ****           hdma->Init.Mode                | hdma->Init.Priority;
 148              		.loc 1 240 21
 149 009e 7B68     		ldr	r3, [r7, #4]
 150 00a0 DB69     		ldr	r3, [r3, #28]
 239:Drivers/STM32F4xx_HAL_Driver/Src/stm32f4xx_hal_dma.c ****           hdma->Init.PeriphDataAlignment | hdma->Init.MemDataAlignment |
 151              		.loc 1 239 72
 152 00a2 1A43     		orrs	r2, r2, r3
 153              		.loc 1 240 54
ARM GAS  C:\Users\EI\AppData\Local\Temp\ccZQ2WtN.s 			page 8


 154 00a4 7B68     		ldr	r3, [r7, #4]
 155 00a6 1B6A     		ldr	r3, [r3, #32]
 156              		.loc 1 240 42
 157 00a8 1343     		orrs	r3, r3, r2
 237:Drivers/STM32F4xx_HAL_Driver/Src/stm32f4xx_hal_dma.c ****           hdma->Init.PeriphInc           | hdma->Init.MemInc           |
 158              		.loc 1 237 7
 159 00aa 7A69     		ldr	r2, [r7, #20]
 160 00ac 1343     		orrs	r3, r3, r2
 161 00ae 7B61     		str	r3, [r7, #20]
 241:Drivers/STM32F4xx_HAL_Driver/Src/stm32f4xx_hal_dma.c **** 
 242:Drivers/STM32F4xx_HAL_Driver/Src/stm32f4xx_hal_dma.c ****   /* the Memory burst and peripheral burst are not used when the FIFO is disabled */
 243:Drivers/STM32F4xx_HAL_Driver/Src/stm32f4xx_hal_dma.c ****   if(hdma->Init.FIFOMode == DMA_FIFOMODE_ENABLE)
 162              		.loc 1 243 16
 163 00b0 7B68     		ldr	r3, [r7, #4]
 164 00b2 5B6A     		ldr	r3, [r3, #36]
 165              		.loc 1 243 5
 166 00b4 042B     		cmp	r3, #4
 167 00b6 07D1     		bne	.L6
 244:Drivers/STM32F4xx_HAL_Driver/Src/stm32f4xx_hal_dma.c ****   {
 245:Drivers/STM32F4xx_HAL_Driver/Src/stm32f4xx_hal_dma.c ****     /* Get memory burst and peripheral burst */
 246:Drivers/STM32F4xx_HAL_Driver/Src/stm32f4xx_hal_dma.c ****     tmp |=  hdma->Init.MemBurst | hdma->Init.PeriphBurst;
 168              		.loc 1 246 23
 169 00b8 7B68     		ldr	r3, [r7, #4]
 170 00ba DA6A     		ldr	r2, [r3, #44]
 171              		.loc 1 246 45
 172 00bc 7B68     		ldr	r3, [r7, #4]
 173 00be 1B6B     		ldr	r3, [r3, #48]
 174              		.loc 1 246 33
 175 00c0 1343     		orrs	r3, r3, r2
 176              		.loc 1 246 9
 177 00c2 7A69     		ldr	r2, [r7, #20]
 178 00c4 1343     		orrs	r3, r3, r2
 179 00c6 7B61     		str	r3, [r7, #20]
 180              	.L6:
 247:Drivers/STM32F4xx_HAL_Driver/Src/stm32f4xx_hal_dma.c ****   }
 248:Drivers/STM32F4xx_HAL_Driver/Src/stm32f4xx_hal_dma.c ****   
 249:Drivers/STM32F4xx_HAL_Driver/Src/stm32f4xx_hal_dma.c ****   /* Write to DMA Stream CR register */
 250:Drivers/STM32F4xx_HAL_Driver/Src/stm32f4xx_hal_dma.c ****   hdma->Instance->CR = tmp;  
 181              		.loc 1 250 7
 182 00c8 7B68     		ldr	r3, [r7, #4]
 183 00ca 1B68     		ldr	r3, [r3]
 184              		.loc 1 250 22
 185 00cc 7A69     		ldr	r2, [r7, #20]
 186 00ce 1A60     		str	r2, [r3]
 251:Drivers/STM32F4xx_HAL_Driver/Src/stm32f4xx_hal_dma.c **** 
 252:Drivers/STM32F4xx_HAL_Driver/Src/stm32f4xx_hal_dma.c ****   /* Get the FCR register value */
 253:Drivers/STM32F4xx_HAL_Driver/Src/stm32f4xx_hal_dma.c ****   tmp = hdma->Instance->FCR;
 187              		.loc 1 253 13
 188 00d0 7B68     		ldr	r3, [r7, #4]
 189 00d2 1B68     		ldr	r3, [r3]
 190              		.loc 1 253 7
 191 00d4 5B69     		ldr	r3, [r3, #20]
 192 00d6 7B61     		str	r3, [r7, #20]
 254:Drivers/STM32F4xx_HAL_Driver/Src/stm32f4xx_hal_dma.c **** 
 255:Drivers/STM32F4xx_HAL_Driver/Src/stm32f4xx_hal_dma.c ****   /* Clear Direct mode and FIFO threshold bits */
 256:Drivers/STM32F4xx_HAL_Driver/Src/stm32f4xx_hal_dma.c ****   tmp &= (uint32_t)~(DMA_SxFCR_DMDIS | DMA_SxFCR_FTH);
 193              		.loc 1 256 7
ARM GAS  C:\Users\EI\AppData\Local\Temp\ccZQ2WtN.s 			page 9


 194 00d8 7B69     		ldr	r3, [r7, #20]
 195 00da 23F00703 		bic	r3, r3, #7
 196 00de 7B61     		str	r3, [r7, #20]
 257:Drivers/STM32F4xx_HAL_Driver/Src/stm32f4xx_hal_dma.c **** 
 258:Drivers/STM32F4xx_HAL_Driver/Src/stm32f4xx_hal_dma.c ****   /* Prepare the DMA Stream FIFO configuration */
 259:Drivers/STM32F4xx_HAL_Driver/Src/stm32f4xx_hal_dma.c ****   tmp |= hdma->Init.FIFOMode;
 197              		.loc 1 259 20
 198 00e0 7B68     		ldr	r3, [r7, #4]
 199 00e2 5B6A     		ldr	r3, [r3, #36]
 200              		.loc 1 259 7
 201 00e4 7A69     		ldr	r2, [r7, #20]
 202 00e6 1343     		orrs	r3, r3, r2
 203 00e8 7B61     		str	r3, [r7, #20]
 260:Drivers/STM32F4xx_HAL_Driver/Src/stm32f4xx_hal_dma.c **** 
 261:Drivers/STM32F4xx_HAL_Driver/Src/stm32f4xx_hal_dma.c ****   /* The FIFO threshold is not used when the FIFO mode is disabled */
 262:Drivers/STM32F4xx_HAL_Driver/Src/stm32f4xx_hal_dma.c ****   if(hdma->Init.FIFOMode == DMA_FIFOMODE_ENABLE)
 204              		.loc 1 262 16
 205 00ea 7B68     		ldr	r3, [r7, #4]
 206 00ec 5B6A     		ldr	r3, [r3, #36]
 207              		.loc 1 262 5
 208 00ee 042B     		cmp	r3, #4
 209 00f0 17D1     		bne	.L7
 263:Drivers/STM32F4xx_HAL_Driver/Src/stm32f4xx_hal_dma.c ****   {
 264:Drivers/STM32F4xx_HAL_Driver/Src/stm32f4xx_hal_dma.c ****     /* Get the FIFO threshold */
 265:Drivers/STM32F4xx_HAL_Driver/Src/stm32f4xx_hal_dma.c ****     tmp |= hdma->Init.FIFOThreshold;
 210              		.loc 1 265 22
 211 00f2 7B68     		ldr	r3, [r7, #4]
 212 00f4 9B6A     		ldr	r3, [r3, #40]
 213              		.loc 1 265 9
 214 00f6 7A69     		ldr	r2, [r7, #20]
 215 00f8 1343     		orrs	r3, r3, r2
 216 00fa 7B61     		str	r3, [r7, #20]
 266:Drivers/STM32F4xx_HAL_Driver/Src/stm32f4xx_hal_dma.c ****     
 267:Drivers/STM32F4xx_HAL_Driver/Src/stm32f4xx_hal_dma.c ****     /* Check compatibility between FIFO threshold level and size of the memory burst */
 268:Drivers/STM32F4xx_HAL_Driver/Src/stm32f4xx_hal_dma.c ****     /* for INCR4, INCR8, INCR16 bursts */
 269:Drivers/STM32F4xx_HAL_Driver/Src/stm32f4xx_hal_dma.c ****     if (hdma->Init.MemBurst != DMA_MBURST_SINGLE)
 217              		.loc 1 269 19
 218 00fc 7B68     		ldr	r3, [r7, #4]
 219 00fe DB6A     		ldr	r3, [r3, #44]
 220              		.loc 1 269 8
 221 0100 002B     		cmp	r3, #0
 222 0102 0ED0     		beq	.L7
 270:Drivers/STM32F4xx_HAL_Driver/Src/stm32f4xx_hal_dma.c ****     {
 271:Drivers/STM32F4xx_HAL_Driver/Src/stm32f4xx_hal_dma.c ****       if (DMA_CheckFifoParam(hdma) != HAL_OK)
 223              		.loc 1 271 11
 224 0104 7868     		ldr	r0, [r7, #4]
 225 0106 FFF7FEFF 		bl	DMA_CheckFifoParam
 226 010a 0346     		mov	r3, r0
 227              		.loc 1 271 10
 228 010c 002B     		cmp	r3, #0
 229 010e 08D0     		beq	.L7
 272:Drivers/STM32F4xx_HAL_Driver/Src/stm32f4xx_hal_dma.c ****       {
 273:Drivers/STM32F4xx_HAL_Driver/Src/stm32f4xx_hal_dma.c ****         /* Update error code */
 274:Drivers/STM32F4xx_HAL_Driver/Src/stm32f4xx_hal_dma.c ****         hdma->ErrorCode = HAL_DMA_ERROR_PARAM;
 230              		.loc 1 274 25
 231 0110 7B68     		ldr	r3, [r7, #4]
 232 0112 4022     		movs	r2, #64
ARM GAS  C:\Users\EI\AppData\Local\Temp\ccZQ2WtN.s 			page 10


 233 0114 5A65     		str	r2, [r3, #84]
 275:Drivers/STM32F4xx_HAL_Driver/Src/stm32f4xx_hal_dma.c ****         
 276:Drivers/STM32F4xx_HAL_Driver/Src/stm32f4xx_hal_dma.c ****         /* Change the DMA state */
 277:Drivers/STM32F4xx_HAL_Driver/Src/stm32f4xx_hal_dma.c ****         hdma->State = HAL_DMA_STATE_READY;
 234              		.loc 1 277 21
 235 0116 7B68     		ldr	r3, [r7, #4]
 236 0118 0122     		movs	r2, #1
 237 011a 83F83520 		strb	r2, [r3, #53]
 278:Drivers/STM32F4xx_HAL_Driver/Src/stm32f4xx_hal_dma.c ****         
 279:Drivers/STM32F4xx_HAL_Driver/Src/stm32f4xx_hal_dma.c ****         return HAL_ERROR; 
 238              		.loc 1 279 16
 239 011e 0123     		movs	r3, #1
 240 0120 16E0     		b	.L3
 241              	.L7:
 280:Drivers/STM32F4xx_HAL_Driver/Src/stm32f4xx_hal_dma.c ****       }
 281:Drivers/STM32F4xx_HAL_Driver/Src/stm32f4xx_hal_dma.c ****     }
 282:Drivers/STM32F4xx_HAL_Driver/Src/stm32f4xx_hal_dma.c ****   }
 283:Drivers/STM32F4xx_HAL_Driver/Src/stm32f4xx_hal_dma.c ****   
 284:Drivers/STM32F4xx_HAL_Driver/Src/stm32f4xx_hal_dma.c ****   /* Write to DMA Stream FCR */
 285:Drivers/STM32F4xx_HAL_Driver/Src/stm32f4xx_hal_dma.c ****   hdma->Instance->FCR = tmp;
 242              		.loc 1 285 7
 243 0122 7B68     		ldr	r3, [r7, #4]
 244 0124 1B68     		ldr	r3, [r3]
 245              		.loc 1 285 23
 246 0126 7A69     		ldr	r2, [r7, #20]
 247 0128 5A61     		str	r2, [r3, #20]
 286:Drivers/STM32F4xx_HAL_Driver/Src/stm32f4xx_hal_dma.c **** 
 287:Drivers/STM32F4xx_HAL_Driver/Src/stm32f4xx_hal_dma.c ****   /* Initialize StreamBaseAddress and StreamIndex parameters to be used to calculate
 288:Drivers/STM32F4xx_HAL_Driver/Src/stm32f4xx_hal_dma.c ****      DMA steam Base Address needed by HAL_DMA_IRQHandler() and HAL_DMA_PollForTransfer() */
 289:Drivers/STM32F4xx_HAL_Driver/Src/stm32f4xx_hal_dma.c ****   regs = (DMA_Base_Registers *)DMA_CalcBaseAndBitshift(hdma);
 248              		.loc 1 289 32
 249 012a 7868     		ldr	r0, [r7, #4]
 250 012c FFF7FEFF 		bl	DMA_CalcBaseAndBitshift
 251 0130 0346     		mov	r3, r0
 252              		.loc 1 289 8
 253 0132 FB60     		str	r3, [r7, #12]
 290:Drivers/STM32F4xx_HAL_Driver/Src/stm32f4xx_hal_dma.c ****   
 291:Drivers/STM32F4xx_HAL_Driver/Src/stm32f4xx_hal_dma.c ****   /* Clear all interrupt flags */
 292:Drivers/STM32F4xx_HAL_Driver/Src/stm32f4xx_hal_dma.c ****   regs->IFCR = 0x3FU << hdma->StreamIndex;
 254              		.loc 1 292 29
 255 0134 7B68     		ldr	r3, [r7, #4]
 256 0136 DB6D     		ldr	r3, [r3, #92]
 257              		.loc 1 292 22
 258 0138 3F22     		movs	r2, #63
 259 013a 9A40     		lsls	r2, r2, r3
 260              		.loc 1 292 14
 261 013c FB68     		ldr	r3, [r7, #12]
 262 013e 9A60     		str	r2, [r3, #8]
 293:Drivers/STM32F4xx_HAL_Driver/Src/stm32f4xx_hal_dma.c **** 
 294:Drivers/STM32F4xx_HAL_Driver/Src/stm32f4xx_hal_dma.c ****   /* Initialize the error code */
 295:Drivers/STM32F4xx_HAL_Driver/Src/stm32f4xx_hal_dma.c ****   hdma->ErrorCode = HAL_DMA_ERROR_NONE;
 263              		.loc 1 295 19
 264 0140 7B68     		ldr	r3, [r7, #4]
 265 0142 0022     		movs	r2, #0
 266 0144 5A65     		str	r2, [r3, #84]
 296:Drivers/STM32F4xx_HAL_Driver/Src/stm32f4xx_hal_dma.c ****                                                                                      
 297:Drivers/STM32F4xx_HAL_Driver/Src/stm32f4xx_hal_dma.c ****   /* Initialize the DMA state */
ARM GAS  C:\Users\EI\AppData\Local\Temp\ccZQ2WtN.s 			page 11


 298:Drivers/STM32F4xx_HAL_Driver/Src/stm32f4xx_hal_dma.c ****   hdma->State = HAL_DMA_STATE_READY;
 267              		.loc 1 298 15
 268 0146 7B68     		ldr	r3, [r7, #4]
 269 0148 0122     		movs	r2, #1
 270 014a 83F83520 		strb	r2, [r3, #53]
 299:Drivers/STM32F4xx_HAL_Driver/Src/stm32f4xx_hal_dma.c **** 
 300:Drivers/STM32F4xx_HAL_Driver/Src/stm32f4xx_hal_dma.c ****   return HAL_OK;
 271              		.loc 1 300 10
 272 014e 0023     		movs	r3, #0
 273              	.L3:
 301:Drivers/STM32F4xx_HAL_Driver/Src/stm32f4xx_hal_dma.c **** }
 274              		.loc 1 301 1
 275 0150 1846     		mov	r0, r3
 276 0152 1837     		adds	r7, r7, #24
 277              	.LCFI3:
 278              		.cfi_def_cfa_offset 8
 279 0154 BD46     		mov	sp, r7
 280              	.LCFI4:
 281              		.cfi_def_cfa_register 13
 282              		@ sp needed
 283 0156 80BD     		pop	{r7, pc}
 284              	.L9:
 285              		.align	2
 286              	.L8:
 287 0158 3F8010F0 		.word	-267354049
 288              		.cfi_endproc
 289              	.LFE216:
 291              		.section	.text.HAL_DMA_DeInit,"ax",%progbits
 292              		.align	1
 293              		.global	HAL_DMA_DeInit
 294              		.syntax unified
 295              		.thumb
 296              		.thumb_func
 297              		.fpu fpv4-sp-d16
 299              	HAL_DMA_DeInit:
 300              	.LFB217:
 302:Drivers/STM32F4xx_HAL_Driver/Src/stm32f4xx_hal_dma.c **** 
 303:Drivers/STM32F4xx_HAL_Driver/Src/stm32f4xx_hal_dma.c **** /**
 304:Drivers/STM32F4xx_HAL_Driver/Src/stm32f4xx_hal_dma.c ****   * @brief  DeInitializes the DMA peripheral 
 305:Drivers/STM32F4xx_HAL_Driver/Src/stm32f4xx_hal_dma.c ****   * @param  hdma pointer to a DMA_HandleTypeDef structure that contains
 306:Drivers/STM32F4xx_HAL_Driver/Src/stm32f4xx_hal_dma.c ****   *               the configuration information for the specified DMA Stream.  
 307:Drivers/STM32F4xx_HAL_Driver/Src/stm32f4xx_hal_dma.c ****   * @retval HAL status
 308:Drivers/STM32F4xx_HAL_Driver/Src/stm32f4xx_hal_dma.c ****   */
 309:Drivers/STM32F4xx_HAL_Driver/Src/stm32f4xx_hal_dma.c **** HAL_StatusTypeDef HAL_DMA_DeInit(DMA_HandleTypeDef *hdma)
 310:Drivers/STM32F4xx_HAL_Driver/Src/stm32f4xx_hal_dma.c **** {
 301              		.loc 1 310 1
 302              		.cfi_startproc
 303              		@ args = 0, pretend = 0, frame = 16
 304              		@ frame_needed = 1, uses_anonymous_args = 0
 305 0000 80B5     		push	{r7, lr}
 306              	.LCFI5:
 307              		.cfi_def_cfa_offset 8
 308              		.cfi_offset 7, -8
 309              		.cfi_offset 14, -4
 310 0002 84B0     		sub	sp, sp, #16
 311              	.LCFI6:
 312              		.cfi_def_cfa_offset 24
ARM GAS  C:\Users\EI\AppData\Local\Temp\ccZQ2WtN.s 			page 12


 313 0004 00AF     		add	r7, sp, #0
 314              	.LCFI7:
 315              		.cfi_def_cfa_register 7
 316 0006 7860     		str	r0, [r7, #4]
 311:Drivers/STM32F4xx_HAL_Driver/Src/stm32f4xx_hal_dma.c ****   DMA_Base_Registers *regs;
 312:Drivers/STM32F4xx_HAL_Driver/Src/stm32f4xx_hal_dma.c **** 
 313:Drivers/STM32F4xx_HAL_Driver/Src/stm32f4xx_hal_dma.c ****   /* Check the DMA peripheral state */
 314:Drivers/STM32F4xx_HAL_Driver/Src/stm32f4xx_hal_dma.c ****   if(hdma == NULL)
 317              		.loc 1 314 5
 318 0008 7B68     		ldr	r3, [r7, #4]
 319 000a 002B     		cmp	r3, #0
 320 000c 01D1     		bne	.L11
 315:Drivers/STM32F4xx_HAL_Driver/Src/stm32f4xx_hal_dma.c ****   {
 316:Drivers/STM32F4xx_HAL_Driver/Src/stm32f4xx_hal_dma.c ****     return HAL_ERROR;
 321              		.loc 1 316 12
 322 000e 0123     		movs	r3, #1
 323 0010 50E0     		b	.L12
 324              	.L11:
 317:Drivers/STM32F4xx_HAL_Driver/Src/stm32f4xx_hal_dma.c ****   }
 318:Drivers/STM32F4xx_HAL_Driver/Src/stm32f4xx_hal_dma.c ****   
 319:Drivers/STM32F4xx_HAL_Driver/Src/stm32f4xx_hal_dma.c ****   /* Check the DMA peripheral state */
 320:Drivers/STM32F4xx_HAL_Driver/Src/stm32f4xx_hal_dma.c ****   if(hdma->State == HAL_DMA_STATE_BUSY)
 325              		.loc 1 320 10
 326 0012 7B68     		ldr	r3, [r7, #4]
 327 0014 93F83530 		ldrb	r3, [r3, #53]
 328 0018 DBB2     		uxtb	r3, r3
 329              		.loc 1 320 5
 330 001a 022B     		cmp	r3, #2
 331 001c 01D1     		bne	.L13
 321:Drivers/STM32F4xx_HAL_Driver/Src/stm32f4xx_hal_dma.c ****   {
 322:Drivers/STM32F4xx_HAL_Driver/Src/stm32f4xx_hal_dma.c ****     /* Return error status */
 323:Drivers/STM32F4xx_HAL_Driver/Src/stm32f4xx_hal_dma.c ****     return HAL_BUSY;
 332              		.loc 1 323 12
 333 001e 0223     		movs	r3, #2
 334 0020 48E0     		b	.L12
 335              	.L13:
 324:Drivers/STM32F4xx_HAL_Driver/Src/stm32f4xx_hal_dma.c ****   }
 325:Drivers/STM32F4xx_HAL_Driver/Src/stm32f4xx_hal_dma.c **** 
 326:Drivers/STM32F4xx_HAL_Driver/Src/stm32f4xx_hal_dma.c ****   /* Check the parameters */
 327:Drivers/STM32F4xx_HAL_Driver/Src/stm32f4xx_hal_dma.c ****   assert_param(IS_DMA_STREAM_ALL_INSTANCE(hdma->Instance));
 328:Drivers/STM32F4xx_HAL_Driver/Src/stm32f4xx_hal_dma.c **** 
 329:Drivers/STM32F4xx_HAL_Driver/Src/stm32f4xx_hal_dma.c ****   /* Disable the selected DMA Streamx */
 330:Drivers/STM32F4xx_HAL_Driver/Src/stm32f4xx_hal_dma.c ****   __HAL_DMA_DISABLE(hdma);
 336              		.loc 1 330 3
 337 0022 7B68     		ldr	r3, [r7, #4]
 338 0024 1B68     		ldr	r3, [r3]
 339 0026 1A68     		ldr	r2, [r3]
 340 0028 7B68     		ldr	r3, [r7, #4]
 341 002a 1B68     		ldr	r3, [r3]
 342 002c 22F00102 		bic	r2, r2, #1
 343 0030 1A60     		str	r2, [r3]
 331:Drivers/STM32F4xx_HAL_Driver/Src/stm32f4xx_hal_dma.c **** 
 332:Drivers/STM32F4xx_HAL_Driver/Src/stm32f4xx_hal_dma.c ****   /* Reset DMA Streamx control register */
 333:Drivers/STM32F4xx_HAL_Driver/Src/stm32f4xx_hal_dma.c ****   hdma->Instance->CR   = 0U;
 344              		.loc 1 333 7
 345 0032 7B68     		ldr	r3, [r7, #4]
 346 0034 1B68     		ldr	r3, [r3]
ARM GAS  C:\Users\EI\AppData\Local\Temp\ccZQ2WtN.s 			page 13


 347              		.loc 1 333 24
 348 0036 0022     		movs	r2, #0
 349 0038 1A60     		str	r2, [r3]
 334:Drivers/STM32F4xx_HAL_Driver/Src/stm32f4xx_hal_dma.c **** 
 335:Drivers/STM32F4xx_HAL_Driver/Src/stm32f4xx_hal_dma.c ****   /* Reset DMA Streamx number of data to transfer register */
 336:Drivers/STM32F4xx_HAL_Driver/Src/stm32f4xx_hal_dma.c ****   hdma->Instance->NDTR = 0U;
 350              		.loc 1 336 7
 351 003a 7B68     		ldr	r3, [r7, #4]
 352 003c 1B68     		ldr	r3, [r3]
 353              		.loc 1 336 24
 354 003e 0022     		movs	r2, #0
 355 0040 5A60     		str	r2, [r3, #4]
 337:Drivers/STM32F4xx_HAL_Driver/Src/stm32f4xx_hal_dma.c **** 
 338:Drivers/STM32F4xx_HAL_Driver/Src/stm32f4xx_hal_dma.c ****   /* Reset DMA Streamx peripheral address register */
 339:Drivers/STM32F4xx_HAL_Driver/Src/stm32f4xx_hal_dma.c ****   hdma->Instance->PAR  = 0U;
 356              		.loc 1 339 7
 357 0042 7B68     		ldr	r3, [r7, #4]
 358 0044 1B68     		ldr	r3, [r3]
 359              		.loc 1 339 24
 360 0046 0022     		movs	r2, #0
 361 0048 9A60     		str	r2, [r3, #8]
 340:Drivers/STM32F4xx_HAL_Driver/Src/stm32f4xx_hal_dma.c **** 
 341:Drivers/STM32F4xx_HAL_Driver/Src/stm32f4xx_hal_dma.c ****   /* Reset DMA Streamx memory 0 address register */
 342:Drivers/STM32F4xx_HAL_Driver/Src/stm32f4xx_hal_dma.c ****   hdma->Instance->M0AR = 0U;
 362              		.loc 1 342 7
 363 004a 7B68     		ldr	r3, [r7, #4]
 364 004c 1B68     		ldr	r3, [r3]
 365              		.loc 1 342 24
 366 004e 0022     		movs	r2, #0
 367 0050 DA60     		str	r2, [r3, #12]
 343:Drivers/STM32F4xx_HAL_Driver/Src/stm32f4xx_hal_dma.c ****   
 344:Drivers/STM32F4xx_HAL_Driver/Src/stm32f4xx_hal_dma.c ****   /* Reset DMA Streamx memory 1 address register */
 345:Drivers/STM32F4xx_HAL_Driver/Src/stm32f4xx_hal_dma.c ****   hdma->Instance->M1AR = 0U;
 368              		.loc 1 345 7
 369 0052 7B68     		ldr	r3, [r7, #4]
 370 0054 1B68     		ldr	r3, [r3]
 371              		.loc 1 345 24
 372 0056 0022     		movs	r2, #0
 373 0058 1A61     		str	r2, [r3, #16]
 346:Drivers/STM32F4xx_HAL_Driver/Src/stm32f4xx_hal_dma.c ****   
 347:Drivers/STM32F4xx_HAL_Driver/Src/stm32f4xx_hal_dma.c ****   /* Reset DMA Streamx FIFO control register */
 348:Drivers/STM32F4xx_HAL_Driver/Src/stm32f4xx_hal_dma.c ****   hdma->Instance->FCR  = 0x00000021U;
 374              		.loc 1 348 7
 375 005a 7B68     		ldr	r3, [r7, #4]
 376 005c 1B68     		ldr	r3, [r3]
 377              		.loc 1 348 24
 378 005e 2122     		movs	r2, #33
 379 0060 5A61     		str	r2, [r3, #20]
 349:Drivers/STM32F4xx_HAL_Driver/Src/stm32f4xx_hal_dma.c ****   
 350:Drivers/STM32F4xx_HAL_Driver/Src/stm32f4xx_hal_dma.c ****   /* Get DMA steam Base Address */  
 351:Drivers/STM32F4xx_HAL_Driver/Src/stm32f4xx_hal_dma.c ****   regs = (DMA_Base_Registers *)DMA_CalcBaseAndBitshift(hdma);
 380              		.loc 1 351 32
 381 0062 7868     		ldr	r0, [r7, #4]
 382 0064 FFF7FEFF 		bl	DMA_CalcBaseAndBitshift
 383 0068 0346     		mov	r3, r0
 384              		.loc 1 351 8
 385 006a FB60     		str	r3, [r7, #12]
ARM GAS  C:\Users\EI\AppData\Local\Temp\ccZQ2WtN.s 			page 14


 352:Drivers/STM32F4xx_HAL_Driver/Src/stm32f4xx_hal_dma.c ****   
 353:Drivers/STM32F4xx_HAL_Driver/Src/stm32f4xx_hal_dma.c ****   /* Clean all callbacks */
 354:Drivers/STM32F4xx_HAL_Driver/Src/stm32f4xx_hal_dma.c ****   hdma->XferCpltCallback = NULL;
 386              		.loc 1 354 26
 387 006c 7B68     		ldr	r3, [r7, #4]
 388 006e 0022     		movs	r2, #0
 389 0070 DA63     		str	r2, [r3, #60]
 355:Drivers/STM32F4xx_HAL_Driver/Src/stm32f4xx_hal_dma.c ****   hdma->XferHalfCpltCallback = NULL;
 390              		.loc 1 355 30
 391 0072 7B68     		ldr	r3, [r7, #4]
 392 0074 0022     		movs	r2, #0
 393 0076 1A64     		str	r2, [r3, #64]
 356:Drivers/STM32F4xx_HAL_Driver/Src/stm32f4xx_hal_dma.c ****   hdma->XferM1CpltCallback = NULL;
 394              		.loc 1 356 28
 395 0078 7B68     		ldr	r3, [r7, #4]
 396 007a 0022     		movs	r2, #0
 397 007c 5A64     		str	r2, [r3, #68]
 357:Drivers/STM32F4xx_HAL_Driver/Src/stm32f4xx_hal_dma.c ****   hdma->XferM1HalfCpltCallback = NULL;
 398              		.loc 1 357 32
 399 007e 7B68     		ldr	r3, [r7, #4]
 400 0080 0022     		movs	r2, #0
 401 0082 9A64     		str	r2, [r3, #72]
 358:Drivers/STM32F4xx_HAL_Driver/Src/stm32f4xx_hal_dma.c ****   hdma->XferErrorCallback = NULL;
 402              		.loc 1 358 27
 403 0084 7B68     		ldr	r3, [r7, #4]
 404 0086 0022     		movs	r2, #0
 405 0088 DA64     		str	r2, [r3, #76]
 359:Drivers/STM32F4xx_HAL_Driver/Src/stm32f4xx_hal_dma.c ****   hdma->XferAbortCallback = NULL;
 406              		.loc 1 359 27
 407 008a 7B68     		ldr	r3, [r7, #4]
 408 008c 0022     		movs	r2, #0
 409 008e 1A65     		str	r2, [r3, #80]
 360:Drivers/STM32F4xx_HAL_Driver/Src/stm32f4xx_hal_dma.c **** 
 361:Drivers/STM32F4xx_HAL_Driver/Src/stm32f4xx_hal_dma.c ****   /* Clear all interrupt flags at correct offset within the register */
 362:Drivers/STM32F4xx_HAL_Driver/Src/stm32f4xx_hal_dma.c ****   regs->IFCR = 0x3FU << hdma->StreamIndex;
 410              		.loc 1 362 29
 411 0090 7B68     		ldr	r3, [r7, #4]
 412 0092 DB6D     		ldr	r3, [r3, #92]
 413              		.loc 1 362 22
 414 0094 3F22     		movs	r2, #63
 415 0096 9A40     		lsls	r2, r2, r3
 416              		.loc 1 362 14
 417 0098 FB68     		ldr	r3, [r7, #12]
 418 009a 9A60     		str	r2, [r3, #8]
 363:Drivers/STM32F4xx_HAL_Driver/Src/stm32f4xx_hal_dma.c **** 
 364:Drivers/STM32F4xx_HAL_Driver/Src/stm32f4xx_hal_dma.c ****   /* Reset the error code */
 365:Drivers/STM32F4xx_HAL_Driver/Src/stm32f4xx_hal_dma.c ****   hdma->ErrorCode = HAL_DMA_ERROR_NONE;
 419              		.loc 1 365 19
 420 009c 7B68     		ldr	r3, [r7, #4]
 421 009e 0022     		movs	r2, #0
 422 00a0 5A65     		str	r2, [r3, #84]
 366:Drivers/STM32F4xx_HAL_Driver/Src/stm32f4xx_hal_dma.c **** 
 367:Drivers/STM32F4xx_HAL_Driver/Src/stm32f4xx_hal_dma.c ****   /* Reset the DMA state */
 368:Drivers/STM32F4xx_HAL_Driver/Src/stm32f4xx_hal_dma.c ****   hdma->State = HAL_DMA_STATE_RESET;
 423              		.loc 1 368 15
 424 00a2 7B68     		ldr	r3, [r7, #4]
 425 00a4 0022     		movs	r2, #0
ARM GAS  C:\Users\EI\AppData\Local\Temp\ccZQ2WtN.s 			page 15


 426 00a6 83F83520 		strb	r2, [r3, #53]
 369:Drivers/STM32F4xx_HAL_Driver/Src/stm32f4xx_hal_dma.c **** 
 370:Drivers/STM32F4xx_HAL_Driver/Src/stm32f4xx_hal_dma.c ****   /* Release Lock */
 371:Drivers/STM32F4xx_HAL_Driver/Src/stm32f4xx_hal_dma.c ****   __HAL_UNLOCK(hdma);
 427              		.loc 1 371 3
 428 00aa 7B68     		ldr	r3, [r7, #4]
 429 00ac 0022     		movs	r2, #0
 430 00ae 83F83420 		strb	r2, [r3, #52]
 372:Drivers/STM32F4xx_HAL_Driver/Src/stm32f4xx_hal_dma.c **** 
 373:Drivers/STM32F4xx_HAL_Driver/Src/stm32f4xx_hal_dma.c ****   return HAL_OK;
 431              		.loc 1 373 10
 432 00b2 0023     		movs	r3, #0
 433              	.L12:
 374:Drivers/STM32F4xx_HAL_Driver/Src/stm32f4xx_hal_dma.c **** }
 434              		.loc 1 374 1
 435 00b4 1846     		mov	r0, r3
 436 00b6 1037     		adds	r7, r7, #16
 437              	.LCFI8:
 438              		.cfi_def_cfa_offset 8
 439 00b8 BD46     		mov	sp, r7
 440              	.LCFI9:
 441              		.cfi_def_cfa_register 13
 442              		@ sp needed
 443 00ba 80BD     		pop	{r7, pc}
 444              		.cfi_endproc
 445              	.LFE217:
 447              		.section	.text.HAL_DMA_Start,"ax",%progbits
 448              		.align	1
 449              		.global	HAL_DMA_Start
 450              		.syntax unified
 451              		.thumb
 452              		.thumb_func
 453              		.fpu fpv4-sp-d16
 455              	HAL_DMA_Start:
 456              	.LFB218:
 375:Drivers/STM32F4xx_HAL_Driver/Src/stm32f4xx_hal_dma.c **** 
 376:Drivers/STM32F4xx_HAL_Driver/Src/stm32f4xx_hal_dma.c **** /**
 377:Drivers/STM32F4xx_HAL_Driver/Src/stm32f4xx_hal_dma.c ****   * @}
 378:Drivers/STM32F4xx_HAL_Driver/Src/stm32f4xx_hal_dma.c ****   */
 379:Drivers/STM32F4xx_HAL_Driver/Src/stm32f4xx_hal_dma.c **** 
 380:Drivers/STM32F4xx_HAL_Driver/Src/stm32f4xx_hal_dma.c **** /** @addtogroup DMA_Exported_Functions_Group2
 381:Drivers/STM32F4xx_HAL_Driver/Src/stm32f4xx_hal_dma.c ****   *
 382:Drivers/STM32F4xx_HAL_Driver/Src/stm32f4xx_hal_dma.c **** @verbatim   
 383:Drivers/STM32F4xx_HAL_Driver/Src/stm32f4xx_hal_dma.c ****  ===============================================================================
 384:Drivers/STM32F4xx_HAL_Driver/Src/stm32f4xx_hal_dma.c ****                       #####  IO operation functions  #####
 385:Drivers/STM32F4xx_HAL_Driver/Src/stm32f4xx_hal_dma.c ****  ===============================================================================
 386:Drivers/STM32F4xx_HAL_Driver/Src/stm32f4xx_hal_dma.c ****     [..]  This section provides functions allowing to:
 387:Drivers/STM32F4xx_HAL_Driver/Src/stm32f4xx_hal_dma.c ****       (+) Configure the source, destination address and data length and Start DMA transfer
 388:Drivers/STM32F4xx_HAL_Driver/Src/stm32f4xx_hal_dma.c ****       (+) Configure the source, destination address and data length and 
 389:Drivers/STM32F4xx_HAL_Driver/Src/stm32f4xx_hal_dma.c ****           Start DMA transfer with interrupt
 390:Drivers/STM32F4xx_HAL_Driver/Src/stm32f4xx_hal_dma.c ****       (+) Abort DMA transfer
 391:Drivers/STM32F4xx_HAL_Driver/Src/stm32f4xx_hal_dma.c ****       (+) Poll for transfer complete
 392:Drivers/STM32F4xx_HAL_Driver/Src/stm32f4xx_hal_dma.c ****       (+) Handle DMA interrupt request  
 393:Drivers/STM32F4xx_HAL_Driver/Src/stm32f4xx_hal_dma.c **** 
 394:Drivers/STM32F4xx_HAL_Driver/Src/stm32f4xx_hal_dma.c **** @endverbatim
 395:Drivers/STM32F4xx_HAL_Driver/Src/stm32f4xx_hal_dma.c ****   * @{
 396:Drivers/STM32F4xx_HAL_Driver/Src/stm32f4xx_hal_dma.c ****   */
ARM GAS  C:\Users\EI\AppData\Local\Temp\ccZQ2WtN.s 			page 16


 397:Drivers/STM32F4xx_HAL_Driver/Src/stm32f4xx_hal_dma.c **** 
 398:Drivers/STM32F4xx_HAL_Driver/Src/stm32f4xx_hal_dma.c **** /**
 399:Drivers/STM32F4xx_HAL_Driver/Src/stm32f4xx_hal_dma.c ****   * @brief  Starts the DMA Transfer.
 400:Drivers/STM32F4xx_HAL_Driver/Src/stm32f4xx_hal_dma.c ****   * @param  hdma       pointer to a DMA_HandleTypeDef structure that contains
 401:Drivers/STM32F4xx_HAL_Driver/Src/stm32f4xx_hal_dma.c ****   *                     the configuration information for the specified DMA Stream.
 402:Drivers/STM32F4xx_HAL_Driver/Src/stm32f4xx_hal_dma.c ****   * @param  SrcAddress The source memory Buffer address
 403:Drivers/STM32F4xx_HAL_Driver/Src/stm32f4xx_hal_dma.c ****   * @param  DstAddress The destination memory Buffer address
 404:Drivers/STM32F4xx_HAL_Driver/Src/stm32f4xx_hal_dma.c ****   * @param  DataLength The length of data to be transferred from source to destination
 405:Drivers/STM32F4xx_HAL_Driver/Src/stm32f4xx_hal_dma.c ****   * @retval HAL status
 406:Drivers/STM32F4xx_HAL_Driver/Src/stm32f4xx_hal_dma.c ****   */
 407:Drivers/STM32F4xx_HAL_Driver/Src/stm32f4xx_hal_dma.c **** HAL_StatusTypeDef HAL_DMA_Start(DMA_HandleTypeDef *hdma, uint32_t SrcAddress, uint32_t DstAddress, 
 408:Drivers/STM32F4xx_HAL_Driver/Src/stm32f4xx_hal_dma.c **** {
 457              		.loc 1 408 1
 458              		.cfi_startproc
 459              		@ args = 0, pretend = 0, frame = 24
 460              		@ frame_needed = 1, uses_anonymous_args = 0
 461 0000 80B5     		push	{r7, lr}
 462              	.LCFI10:
 463              		.cfi_def_cfa_offset 8
 464              		.cfi_offset 7, -8
 465              		.cfi_offset 14, -4
 466 0002 86B0     		sub	sp, sp, #24
 467              	.LCFI11:
 468              		.cfi_def_cfa_offset 32
 469 0004 00AF     		add	r7, sp, #0
 470              	.LCFI12:
 471              		.cfi_def_cfa_register 7
 472 0006 F860     		str	r0, [r7, #12]
 473 0008 B960     		str	r1, [r7, #8]
 474 000a 7A60     		str	r2, [r7, #4]
 475 000c 3B60     		str	r3, [r7]
 409:Drivers/STM32F4xx_HAL_Driver/Src/stm32f4xx_hal_dma.c ****   HAL_StatusTypeDef status = HAL_OK;
 476              		.loc 1 409 21
 477 000e 0023     		movs	r3, #0
 478 0010 FB75     		strb	r3, [r7, #23]
 410:Drivers/STM32F4xx_HAL_Driver/Src/stm32f4xx_hal_dma.c ****   
 411:Drivers/STM32F4xx_HAL_Driver/Src/stm32f4xx_hal_dma.c ****   /* Check the parameters */
 412:Drivers/STM32F4xx_HAL_Driver/Src/stm32f4xx_hal_dma.c ****   assert_param(IS_DMA_BUFFER_SIZE(DataLength));
 413:Drivers/STM32F4xx_HAL_Driver/Src/stm32f4xx_hal_dma.c **** 
 414:Drivers/STM32F4xx_HAL_Driver/Src/stm32f4xx_hal_dma.c ****   /* Process locked */
 415:Drivers/STM32F4xx_HAL_Driver/Src/stm32f4xx_hal_dma.c ****   __HAL_LOCK(hdma);
 479              		.loc 1 415 3
 480 0012 FB68     		ldr	r3, [r7, #12]
 481 0014 93F83430 		ldrb	r3, [r3, #52]	@ zero_extendqisi2
 482 0018 012B     		cmp	r3, #1
 483 001a 01D1     		bne	.L15
 484              		.loc 1 415 3 is_stmt 0 discriminator 1
 485 001c 0223     		movs	r3, #2
 486 001e 26E0     		b	.L16
 487              	.L15:
 488              		.loc 1 415 3 discriminator 2
 489 0020 FB68     		ldr	r3, [r7, #12]
 490 0022 0122     		movs	r2, #1
 491 0024 83F83420 		strb	r2, [r3, #52]
 416:Drivers/STM32F4xx_HAL_Driver/Src/stm32f4xx_hal_dma.c **** 
 417:Drivers/STM32F4xx_HAL_Driver/Src/stm32f4xx_hal_dma.c ****   if(HAL_DMA_STATE_READY == hdma->State)
 492              		.loc 1 417 33 is_stmt 1 discriminator 2
ARM GAS  C:\Users\EI\AppData\Local\Temp\ccZQ2WtN.s 			page 17


 493 0028 FB68     		ldr	r3, [r7, #12]
 494 002a 93F83530 		ldrb	r3, [r3, #53]
 495 002e DBB2     		uxtb	r3, r3
 496              		.loc 1 417 5 discriminator 2
 497 0030 012B     		cmp	r3, #1
 498 0032 15D1     		bne	.L17
 418:Drivers/STM32F4xx_HAL_Driver/Src/stm32f4xx_hal_dma.c ****   {
 419:Drivers/STM32F4xx_HAL_Driver/Src/stm32f4xx_hal_dma.c ****     /* Change DMA peripheral state */
 420:Drivers/STM32F4xx_HAL_Driver/Src/stm32f4xx_hal_dma.c ****     hdma->State = HAL_DMA_STATE_BUSY;
 499              		.loc 1 420 17
 500 0034 FB68     		ldr	r3, [r7, #12]
 501 0036 0222     		movs	r2, #2
 502 0038 83F83520 		strb	r2, [r3, #53]
 421:Drivers/STM32F4xx_HAL_Driver/Src/stm32f4xx_hal_dma.c ****     
 422:Drivers/STM32F4xx_HAL_Driver/Src/stm32f4xx_hal_dma.c ****     /* Initialize the error code */
 423:Drivers/STM32F4xx_HAL_Driver/Src/stm32f4xx_hal_dma.c ****     hdma->ErrorCode = HAL_DMA_ERROR_NONE;
 503              		.loc 1 423 21
 504 003c FB68     		ldr	r3, [r7, #12]
 505 003e 0022     		movs	r2, #0
 506 0040 5A65     		str	r2, [r3, #84]
 424:Drivers/STM32F4xx_HAL_Driver/Src/stm32f4xx_hal_dma.c ****     
 425:Drivers/STM32F4xx_HAL_Driver/Src/stm32f4xx_hal_dma.c ****     /* Configure the source, destination address and the data length */
 426:Drivers/STM32F4xx_HAL_Driver/Src/stm32f4xx_hal_dma.c ****     DMA_SetConfig(hdma, SrcAddress, DstAddress, DataLength);
 507              		.loc 1 426 5
 508 0042 3B68     		ldr	r3, [r7]
 509 0044 7A68     		ldr	r2, [r7, #4]
 510 0046 B968     		ldr	r1, [r7, #8]
 511 0048 F868     		ldr	r0, [r7, #12]
 512 004a FFF7FEFF 		bl	DMA_SetConfig
 427:Drivers/STM32F4xx_HAL_Driver/Src/stm32f4xx_hal_dma.c **** 
 428:Drivers/STM32F4xx_HAL_Driver/Src/stm32f4xx_hal_dma.c ****     /* Enable the Peripheral */
 429:Drivers/STM32F4xx_HAL_Driver/Src/stm32f4xx_hal_dma.c ****     __HAL_DMA_ENABLE(hdma);
 513              		.loc 1 429 5
 514 004e FB68     		ldr	r3, [r7, #12]
 515 0050 1B68     		ldr	r3, [r3]
 516 0052 1A68     		ldr	r2, [r3]
 517 0054 FB68     		ldr	r3, [r7, #12]
 518 0056 1B68     		ldr	r3, [r3]
 519 0058 42F00102 		orr	r2, r2, #1
 520 005c 1A60     		str	r2, [r3]
 521 005e 05E0     		b	.L18
 522              	.L17:
 430:Drivers/STM32F4xx_HAL_Driver/Src/stm32f4xx_hal_dma.c ****   }
 431:Drivers/STM32F4xx_HAL_Driver/Src/stm32f4xx_hal_dma.c ****   else
 432:Drivers/STM32F4xx_HAL_Driver/Src/stm32f4xx_hal_dma.c ****   {
 433:Drivers/STM32F4xx_HAL_Driver/Src/stm32f4xx_hal_dma.c ****     /* Process unlocked */
 434:Drivers/STM32F4xx_HAL_Driver/Src/stm32f4xx_hal_dma.c ****     __HAL_UNLOCK(hdma);
 523              		.loc 1 434 5
 524 0060 FB68     		ldr	r3, [r7, #12]
 525 0062 0022     		movs	r2, #0
 526 0064 83F83420 		strb	r2, [r3, #52]
 435:Drivers/STM32F4xx_HAL_Driver/Src/stm32f4xx_hal_dma.c ****     
 436:Drivers/STM32F4xx_HAL_Driver/Src/stm32f4xx_hal_dma.c ****     /* Return error status */
 437:Drivers/STM32F4xx_HAL_Driver/Src/stm32f4xx_hal_dma.c ****     status = HAL_BUSY;
 527              		.loc 1 437 12
 528 0068 0223     		movs	r3, #2
 529 006a FB75     		strb	r3, [r7, #23]
ARM GAS  C:\Users\EI\AppData\Local\Temp\ccZQ2WtN.s 			page 18


 530              	.L18:
 438:Drivers/STM32F4xx_HAL_Driver/Src/stm32f4xx_hal_dma.c ****   } 
 439:Drivers/STM32F4xx_HAL_Driver/Src/stm32f4xx_hal_dma.c ****   return status; 
 531              		.loc 1 439 10
 532 006c FB7D     		ldrb	r3, [r7, #23]	@ zero_extendqisi2
 533              	.L16:
 440:Drivers/STM32F4xx_HAL_Driver/Src/stm32f4xx_hal_dma.c **** }
 534              		.loc 1 440 1
 535 006e 1846     		mov	r0, r3
 536 0070 1837     		adds	r7, r7, #24
 537              	.LCFI13:
 538              		.cfi_def_cfa_offset 8
 539 0072 BD46     		mov	sp, r7
 540              	.LCFI14:
 541              		.cfi_def_cfa_register 13
 542              		@ sp needed
 543 0074 80BD     		pop	{r7, pc}
 544              		.cfi_endproc
 545              	.LFE218:
 547              		.section	.text.HAL_DMA_Start_IT,"ax",%progbits
 548              		.align	1
 549              		.global	HAL_DMA_Start_IT
 550              		.syntax unified
 551              		.thumb
 552              		.thumb_func
 553              		.fpu fpv4-sp-d16
 555              	HAL_DMA_Start_IT:
 556              	.LFB219:
 441:Drivers/STM32F4xx_HAL_Driver/Src/stm32f4xx_hal_dma.c **** 
 442:Drivers/STM32F4xx_HAL_Driver/Src/stm32f4xx_hal_dma.c **** /**
 443:Drivers/STM32F4xx_HAL_Driver/Src/stm32f4xx_hal_dma.c ****   * @brief  Start the DMA Transfer with interrupt enabled.
 444:Drivers/STM32F4xx_HAL_Driver/Src/stm32f4xx_hal_dma.c ****   * @param  hdma       pointer to a DMA_HandleTypeDef structure that contains
 445:Drivers/STM32F4xx_HAL_Driver/Src/stm32f4xx_hal_dma.c ****   *                     the configuration information for the specified DMA Stream.  
 446:Drivers/STM32F4xx_HAL_Driver/Src/stm32f4xx_hal_dma.c ****   * @param  SrcAddress The source memory Buffer address
 447:Drivers/STM32F4xx_HAL_Driver/Src/stm32f4xx_hal_dma.c ****   * @param  DstAddress The destination memory Buffer address
 448:Drivers/STM32F4xx_HAL_Driver/Src/stm32f4xx_hal_dma.c ****   * @param  DataLength The length of data to be transferred from source to destination
 449:Drivers/STM32F4xx_HAL_Driver/Src/stm32f4xx_hal_dma.c ****   * @retval HAL status
 450:Drivers/STM32F4xx_HAL_Driver/Src/stm32f4xx_hal_dma.c ****   */
 451:Drivers/STM32F4xx_HAL_Driver/Src/stm32f4xx_hal_dma.c **** HAL_StatusTypeDef HAL_DMA_Start_IT(DMA_HandleTypeDef *hdma, uint32_t SrcAddress, uint32_t DstAddres
 452:Drivers/STM32F4xx_HAL_Driver/Src/stm32f4xx_hal_dma.c **** {
 557              		.loc 1 452 1
 558              		.cfi_startproc
 559              		@ args = 0, pretend = 0, frame = 24
 560              		@ frame_needed = 1, uses_anonymous_args = 0
 561 0000 80B5     		push	{r7, lr}
 562              	.LCFI15:
 563              		.cfi_def_cfa_offset 8
 564              		.cfi_offset 7, -8
 565              		.cfi_offset 14, -4
 566 0002 86B0     		sub	sp, sp, #24
 567              	.LCFI16:
 568              		.cfi_def_cfa_offset 32
 569 0004 00AF     		add	r7, sp, #0
 570              	.LCFI17:
 571              		.cfi_def_cfa_register 7
 572 0006 F860     		str	r0, [r7, #12]
 573 0008 B960     		str	r1, [r7, #8]
ARM GAS  C:\Users\EI\AppData\Local\Temp\ccZQ2WtN.s 			page 19


 574 000a 7A60     		str	r2, [r7, #4]
 575 000c 3B60     		str	r3, [r7]
 453:Drivers/STM32F4xx_HAL_Driver/Src/stm32f4xx_hal_dma.c ****   HAL_StatusTypeDef status = HAL_OK;
 576              		.loc 1 453 21
 577 000e 0023     		movs	r3, #0
 578 0010 FB75     		strb	r3, [r7, #23]
 454:Drivers/STM32F4xx_HAL_Driver/Src/stm32f4xx_hal_dma.c **** 
 455:Drivers/STM32F4xx_HAL_Driver/Src/stm32f4xx_hal_dma.c ****   /* calculate DMA base and stream number */
 456:Drivers/STM32F4xx_HAL_Driver/Src/stm32f4xx_hal_dma.c ****   DMA_Base_Registers *regs = (DMA_Base_Registers *)hdma->StreamBaseAddress;
 579              		.loc 1 456 56
 580 0012 FB68     		ldr	r3, [r7, #12]
 581 0014 9B6D     		ldr	r3, [r3, #88]
 582              		.loc 1 456 23
 583 0016 3B61     		str	r3, [r7, #16]
 457:Drivers/STM32F4xx_HAL_Driver/Src/stm32f4xx_hal_dma.c ****   
 458:Drivers/STM32F4xx_HAL_Driver/Src/stm32f4xx_hal_dma.c ****   /* Check the parameters */
 459:Drivers/STM32F4xx_HAL_Driver/Src/stm32f4xx_hal_dma.c ****   assert_param(IS_DMA_BUFFER_SIZE(DataLength));
 460:Drivers/STM32F4xx_HAL_Driver/Src/stm32f4xx_hal_dma.c ****  
 461:Drivers/STM32F4xx_HAL_Driver/Src/stm32f4xx_hal_dma.c ****   /* Process locked */
 462:Drivers/STM32F4xx_HAL_Driver/Src/stm32f4xx_hal_dma.c ****   __HAL_LOCK(hdma);
 584              		.loc 1 462 3
 585 0018 FB68     		ldr	r3, [r7, #12]
 586 001a 93F83430 		ldrb	r3, [r3, #52]	@ zero_extendqisi2
 587 001e 012B     		cmp	r3, #1
 588 0020 01D1     		bne	.L20
 589              		.loc 1 462 3 is_stmt 0 discriminator 1
 590 0022 0223     		movs	r3, #2
 591 0024 40E0     		b	.L21
 592              	.L20:
 593              		.loc 1 462 3 discriminator 2
 594 0026 FB68     		ldr	r3, [r7, #12]
 595 0028 0122     		movs	r2, #1
 596 002a 83F83420 		strb	r2, [r3, #52]
 463:Drivers/STM32F4xx_HAL_Driver/Src/stm32f4xx_hal_dma.c ****   
 464:Drivers/STM32F4xx_HAL_Driver/Src/stm32f4xx_hal_dma.c ****   if(HAL_DMA_STATE_READY == hdma->State)
 597              		.loc 1 464 33 is_stmt 1 discriminator 2
 598 002e FB68     		ldr	r3, [r7, #12]
 599 0030 93F83530 		ldrb	r3, [r3, #53]
 600 0034 DBB2     		uxtb	r3, r3
 601              		.loc 1 464 5 discriminator 2
 602 0036 012B     		cmp	r3, #1
 603 0038 2FD1     		bne	.L22
 465:Drivers/STM32F4xx_HAL_Driver/Src/stm32f4xx_hal_dma.c ****   {
 466:Drivers/STM32F4xx_HAL_Driver/Src/stm32f4xx_hal_dma.c ****     /* Change DMA peripheral state */
 467:Drivers/STM32F4xx_HAL_Driver/Src/stm32f4xx_hal_dma.c ****     hdma->State = HAL_DMA_STATE_BUSY;
 604              		.loc 1 467 17
 605 003a FB68     		ldr	r3, [r7, #12]
 606 003c 0222     		movs	r2, #2
 607 003e 83F83520 		strb	r2, [r3, #53]
 468:Drivers/STM32F4xx_HAL_Driver/Src/stm32f4xx_hal_dma.c ****     
 469:Drivers/STM32F4xx_HAL_Driver/Src/stm32f4xx_hal_dma.c ****     /* Initialize the error code */
 470:Drivers/STM32F4xx_HAL_Driver/Src/stm32f4xx_hal_dma.c ****     hdma->ErrorCode = HAL_DMA_ERROR_NONE;
 608              		.loc 1 470 21
 609 0042 FB68     		ldr	r3, [r7, #12]
 610 0044 0022     		movs	r2, #0
 611 0046 5A65     		str	r2, [r3, #84]
 471:Drivers/STM32F4xx_HAL_Driver/Src/stm32f4xx_hal_dma.c ****     
ARM GAS  C:\Users\EI\AppData\Local\Temp\ccZQ2WtN.s 			page 20


 472:Drivers/STM32F4xx_HAL_Driver/Src/stm32f4xx_hal_dma.c ****     /* Configure the source, destination address and the data length */
 473:Drivers/STM32F4xx_HAL_Driver/Src/stm32f4xx_hal_dma.c ****     DMA_SetConfig(hdma, SrcAddress, DstAddress, DataLength);
 612              		.loc 1 473 5
 613 0048 3B68     		ldr	r3, [r7]
 614 004a 7A68     		ldr	r2, [r7, #4]
 615 004c B968     		ldr	r1, [r7, #8]
 616 004e F868     		ldr	r0, [r7, #12]
 617 0050 FFF7FEFF 		bl	DMA_SetConfig
 474:Drivers/STM32F4xx_HAL_Driver/Src/stm32f4xx_hal_dma.c ****     
 475:Drivers/STM32F4xx_HAL_Driver/Src/stm32f4xx_hal_dma.c ****     /* Clear all interrupt flags at correct offset within the register */
 476:Drivers/STM32F4xx_HAL_Driver/Src/stm32f4xx_hal_dma.c ****     regs->IFCR = 0x3FU << hdma->StreamIndex;
 618              		.loc 1 476 31
 619 0054 FB68     		ldr	r3, [r7, #12]
 620 0056 DB6D     		ldr	r3, [r3, #92]
 621              		.loc 1 476 24
 622 0058 3F22     		movs	r2, #63
 623 005a 9A40     		lsls	r2, r2, r3
 624              		.loc 1 476 16
 625 005c 3B69     		ldr	r3, [r7, #16]
 626 005e 9A60     		str	r2, [r3, #8]
 477:Drivers/STM32F4xx_HAL_Driver/Src/stm32f4xx_hal_dma.c ****     
 478:Drivers/STM32F4xx_HAL_Driver/Src/stm32f4xx_hal_dma.c ****     /* Enable Common interrupts*/
 479:Drivers/STM32F4xx_HAL_Driver/Src/stm32f4xx_hal_dma.c ****     hdma->Instance->CR  |= DMA_IT_TC | DMA_IT_TE | DMA_IT_DME;
 627              		.loc 1 479 9
 628 0060 FB68     		ldr	r3, [r7, #12]
 629 0062 1B68     		ldr	r3, [r3]
 630              		.loc 1 479 25
 631 0064 1A68     		ldr	r2, [r3]
 632              		.loc 1 479 9
 633 0066 FB68     		ldr	r3, [r7, #12]
 634 0068 1B68     		ldr	r3, [r3]
 635              		.loc 1 479 25
 636 006a 42F01602 		orr	r2, r2, #22
 637 006e 1A60     		str	r2, [r3]
 480:Drivers/STM32F4xx_HAL_Driver/Src/stm32f4xx_hal_dma.c ****     
 481:Drivers/STM32F4xx_HAL_Driver/Src/stm32f4xx_hal_dma.c ****     if(hdma->XferHalfCpltCallback != NULL)
 638              		.loc 1 481 12
 639 0070 FB68     		ldr	r3, [r7, #12]
 640 0072 1B6C     		ldr	r3, [r3, #64]
 641              		.loc 1 481 7
 642 0074 002B     		cmp	r3, #0
 643 0076 07D0     		beq	.L23
 482:Drivers/STM32F4xx_HAL_Driver/Src/stm32f4xx_hal_dma.c ****     {
 483:Drivers/STM32F4xx_HAL_Driver/Src/stm32f4xx_hal_dma.c ****       hdma->Instance->CR  |= DMA_IT_HT;
 644              		.loc 1 483 11
 645 0078 FB68     		ldr	r3, [r7, #12]
 646 007a 1B68     		ldr	r3, [r3]
 647              		.loc 1 483 27
 648 007c 1A68     		ldr	r2, [r3]
 649              		.loc 1 483 11
 650 007e FB68     		ldr	r3, [r7, #12]
 651 0080 1B68     		ldr	r3, [r3]
 652              		.loc 1 483 27
 653 0082 42F00802 		orr	r2, r2, #8
 654 0086 1A60     		str	r2, [r3]
 655              	.L23:
 484:Drivers/STM32F4xx_HAL_Driver/Src/stm32f4xx_hal_dma.c ****     }
ARM GAS  C:\Users\EI\AppData\Local\Temp\ccZQ2WtN.s 			page 21


 485:Drivers/STM32F4xx_HAL_Driver/Src/stm32f4xx_hal_dma.c ****     
 486:Drivers/STM32F4xx_HAL_Driver/Src/stm32f4xx_hal_dma.c ****     /* Enable the Peripheral */
 487:Drivers/STM32F4xx_HAL_Driver/Src/stm32f4xx_hal_dma.c ****     __HAL_DMA_ENABLE(hdma);
 656              		.loc 1 487 5
 657 0088 FB68     		ldr	r3, [r7, #12]
 658 008a 1B68     		ldr	r3, [r3]
 659 008c 1A68     		ldr	r2, [r3]
 660 008e FB68     		ldr	r3, [r7, #12]
 661 0090 1B68     		ldr	r3, [r3]
 662 0092 42F00102 		orr	r2, r2, #1
 663 0096 1A60     		str	r2, [r3]
 664 0098 05E0     		b	.L24
 665              	.L22:
 488:Drivers/STM32F4xx_HAL_Driver/Src/stm32f4xx_hal_dma.c ****   }
 489:Drivers/STM32F4xx_HAL_Driver/Src/stm32f4xx_hal_dma.c ****   else
 490:Drivers/STM32F4xx_HAL_Driver/Src/stm32f4xx_hal_dma.c ****   {
 491:Drivers/STM32F4xx_HAL_Driver/Src/stm32f4xx_hal_dma.c ****     /* Process unlocked */
 492:Drivers/STM32F4xx_HAL_Driver/Src/stm32f4xx_hal_dma.c ****     __HAL_UNLOCK(hdma);	  
 666              		.loc 1 492 5
 667 009a FB68     		ldr	r3, [r7, #12]
 668 009c 0022     		movs	r2, #0
 669 009e 83F83420 		strb	r2, [r3, #52]
 493:Drivers/STM32F4xx_HAL_Driver/Src/stm32f4xx_hal_dma.c ****     
 494:Drivers/STM32F4xx_HAL_Driver/Src/stm32f4xx_hal_dma.c ****     /* Return error status */
 495:Drivers/STM32F4xx_HAL_Driver/Src/stm32f4xx_hal_dma.c ****     status = HAL_BUSY;
 670              		.loc 1 495 12
 671 00a2 0223     		movs	r3, #2
 672 00a4 FB75     		strb	r3, [r7, #23]
 673              	.L24:
 496:Drivers/STM32F4xx_HAL_Driver/Src/stm32f4xx_hal_dma.c ****   }
 497:Drivers/STM32F4xx_HAL_Driver/Src/stm32f4xx_hal_dma.c ****   
 498:Drivers/STM32F4xx_HAL_Driver/Src/stm32f4xx_hal_dma.c ****   return status;
 674              		.loc 1 498 10
 675 00a6 FB7D     		ldrb	r3, [r7, #23]	@ zero_extendqisi2
 676              	.L21:
 499:Drivers/STM32F4xx_HAL_Driver/Src/stm32f4xx_hal_dma.c **** }
 677              		.loc 1 499 1
 678 00a8 1846     		mov	r0, r3
 679 00aa 1837     		adds	r7, r7, #24
 680              	.LCFI18:
 681              		.cfi_def_cfa_offset 8
 682 00ac BD46     		mov	sp, r7
 683              	.LCFI19:
 684              		.cfi_def_cfa_register 13
 685              		@ sp needed
 686 00ae 80BD     		pop	{r7, pc}
 687              		.cfi_endproc
 688              	.LFE219:
 690              		.section	.text.HAL_DMA_Abort,"ax",%progbits
 691              		.align	1
 692              		.global	HAL_DMA_Abort
 693              		.syntax unified
 694              		.thumb
 695              		.thumb_func
 696              		.fpu fpv4-sp-d16
 698              	HAL_DMA_Abort:
 699              	.LFB220:
ARM GAS  C:\Users\EI\AppData\Local\Temp\ccZQ2WtN.s 			page 22


 500:Drivers/STM32F4xx_HAL_Driver/Src/stm32f4xx_hal_dma.c **** 
 501:Drivers/STM32F4xx_HAL_Driver/Src/stm32f4xx_hal_dma.c **** /**
 502:Drivers/STM32F4xx_HAL_Driver/Src/stm32f4xx_hal_dma.c ****   * @brief  Aborts the DMA Transfer.
 503:Drivers/STM32F4xx_HAL_Driver/Src/stm32f4xx_hal_dma.c ****   * @param  hdma   pointer to a DMA_HandleTypeDef structure that contains
 504:Drivers/STM32F4xx_HAL_Driver/Src/stm32f4xx_hal_dma.c ****   *                 the configuration information for the specified DMA Stream.
 505:Drivers/STM32F4xx_HAL_Driver/Src/stm32f4xx_hal_dma.c ****   *                   
 506:Drivers/STM32F4xx_HAL_Driver/Src/stm32f4xx_hal_dma.c ****   * @note  After disabling a DMA Stream, a check for wait until the DMA Stream is 
 507:Drivers/STM32F4xx_HAL_Driver/Src/stm32f4xx_hal_dma.c ****   *        effectively disabled is added. If a Stream is disabled 
 508:Drivers/STM32F4xx_HAL_Driver/Src/stm32f4xx_hal_dma.c ****   *        while a data transfer is ongoing, the current data will be transferred
 509:Drivers/STM32F4xx_HAL_Driver/Src/stm32f4xx_hal_dma.c ****   *        and the Stream will be effectively disabled only after the transfer of
 510:Drivers/STM32F4xx_HAL_Driver/Src/stm32f4xx_hal_dma.c ****   *        this single data is finished.  
 511:Drivers/STM32F4xx_HAL_Driver/Src/stm32f4xx_hal_dma.c ****   * @retval HAL status
 512:Drivers/STM32F4xx_HAL_Driver/Src/stm32f4xx_hal_dma.c ****   */
 513:Drivers/STM32F4xx_HAL_Driver/Src/stm32f4xx_hal_dma.c **** HAL_StatusTypeDef HAL_DMA_Abort(DMA_HandleTypeDef *hdma)
 514:Drivers/STM32F4xx_HAL_Driver/Src/stm32f4xx_hal_dma.c **** {
 700              		.loc 1 514 1
 701              		.cfi_startproc
 702              		@ args = 0, pretend = 0, frame = 16
 703              		@ frame_needed = 1, uses_anonymous_args = 0
 704 0000 80B5     		push	{r7, lr}
 705              	.LCFI20:
 706              		.cfi_def_cfa_offset 8
 707              		.cfi_offset 7, -8
 708              		.cfi_offset 14, -4
 709 0002 84B0     		sub	sp, sp, #16
 710              	.LCFI21:
 711              		.cfi_def_cfa_offset 24
 712 0004 00AF     		add	r7, sp, #0
 713              	.LCFI22:
 714              		.cfi_def_cfa_register 7
 715 0006 7860     		str	r0, [r7, #4]
 515:Drivers/STM32F4xx_HAL_Driver/Src/stm32f4xx_hal_dma.c ****   /* calculate DMA base and stream number */
 516:Drivers/STM32F4xx_HAL_Driver/Src/stm32f4xx_hal_dma.c ****   DMA_Base_Registers *regs = (DMA_Base_Registers *)hdma->StreamBaseAddress;
 716              		.loc 1 516 56
 717 0008 7B68     		ldr	r3, [r7, #4]
 718 000a 9B6D     		ldr	r3, [r3, #88]
 719              		.loc 1 516 23
 720 000c FB60     		str	r3, [r7, #12]
 517:Drivers/STM32F4xx_HAL_Driver/Src/stm32f4xx_hal_dma.c ****   
 518:Drivers/STM32F4xx_HAL_Driver/Src/stm32f4xx_hal_dma.c ****   uint32_t tickstart = HAL_GetTick();
 721              		.loc 1 518 24
 722 000e FFF7FEFF 		bl	HAL_GetTick
 723 0012 B860     		str	r0, [r7, #8]
 519:Drivers/STM32F4xx_HAL_Driver/Src/stm32f4xx_hal_dma.c ****   
 520:Drivers/STM32F4xx_HAL_Driver/Src/stm32f4xx_hal_dma.c ****   if(hdma->State != HAL_DMA_STATE_BUSY)
 724              		.loc 1 520 10
 725 0014 7B68     		ldr	r3, [r7, #4]
 726 0016 93F83530 		ldrb	r3, [r3, #53]
 727 001a DBB2     		uxtb	r3, r3
 728              		.loc 1 520 5
 729 001c 022B     		cmp	r3, #2
 730 001e 08D0     		beq	.L26
 521:Drivers/STM32F4xx_HAL_Driver/Src/stm32f4xx_hal_dma.c ****   {
 522:Drivers/STM32F4xx_HAL_Driver/Src/stm32f4xx_hal_dma.c ****     hdma->ErrorCode = HAL_DMA_ERROR_NO_XFER;
 731              		.loc 1 522 21
 732 0020 7B68     		ldr	r3, [r7, #4]
 733 0022 8022     		movs	r2, #128
ARM GAS  C:\Users\EI\AppData\Local\Temp\ccZQ2WtN.s 			page 23


 734 0024 5A65     		str	r2, [r3, #84]
 523:Drivers/STM32F4xx_HAL_Driver/Src/stm32f4xx_hal_dma.c ****     
 524:Drivers/STM32F4xx_HAL_Driver/Src/stm32f4xx_hal_dma.c ****     /* Process Unlocked */
 525:Drivers/STM32F4xx_HAL_Driver/Src/stm32f4xx_hal_dma.c ****     __HAL_UNLOCK(hdma);
 735              		.loc 1 525 5
 736 0026 7B68     		ldr	r3, [r7, #4]
 737 0028 0022     		movs	r2, #0
 738 002a 83F83420 		strb	r2, [r3, #52]
 526:Drivers/STM32F4xx_HAL_Driver/Src/stm32f4xx_hal_dma.c ****     
 527:Drivers/STM32F4xx_HAL_Driver/Src/stm32f4xx_hal_dma.c ****     return HAL_ERROR;
 739              		.loc 1 527 12
 740 002e 0123     		movs	r3, #1
 741 0030 52E0     		b	.L27
 742              	.L26:
 528:Drivers/STM32F4xx_HAL_Driver/Src/stm32f4xx_hal_dma.c ****   }
 529:Drivers/STM32F4xx_HAL_Driver/Src/stm32f4xx_hal_dma.c ****   else
 530:Drivers/STM32F4xx_HAL_Driver/Src/stm32f4xx_hal_dma.c ****   {
 531:Drivers/STM32F4xx_HAL_Driver/Src/stm32f4xx_hal_dma.c ****     /* Disable all the transfer interrupts */
 532:Drivers/STM32F4xx_HAL_Driver/Src/stm32f4xx_hal_dma.c ****     hdma->Instance->CR  &= ~(DMA_IT_TC | DMA_IT_TE | DMA_IT_DME);
 743              		.loc 1 532 9
 744 0032 7B68     		ldr	r3, [r7, #4]
 745 0034 1B68     		ldr	r3, [r3]
 746              		.loc 1 532 25
 747 0036 1A68     		ldr	r2, [r3]
 748              		.loc 1 532 9
 749 0038 7B68     		ldr	r3, [r7, #4]
 750 003a 1B68     		ldr	r3, [r3]
 751              		.loc 1 532 25
 752 003c 22F01602 		bic	r2, r2, #22
 753 0040 1A60     		str	r2, [r3]
 533:Drivers/STM32F4xx_HAL_Driver/Src/stm32f4xx_hal_dma.c ****     hdma->Instance->FCR &= ~(DMA_IT_FE);
 754              		.loc 1 533 9
 755 0042 7B68     		ldr	r3, [r7, #4]
 756 0044 1B68     		ldr	r3, [r3]
 757              		.loc 1 533 25
 758 0046 5A69     		ldr	r2, [r3, #20]
 759              		.loc 1 533 9
 760 0048 7B68     		ldr	r3, [r7, #4]
 761 004a 1B68     		ldr	r3, [r3]
 762              		.loc 1 533 25
 763 004c 22F08002 		bic	r2, r2, #128
 764 0050 5A61     		str	r2, [r3, #20]
 534:Drivers/STM32F4xx_HAL_Driver/Src/stm32f4xx_hal_dma.c ****     
 535:Drivers/STM32F4xx_HAL_Driver/Src/stm32f4xx_hal_dma.c ****     if((hdma->XferHalfCpltCallback != NULL) || (hdma->XferM1HalfCpltCallback != NULL))
 765              		.loc 1 535 13
 766 0052 7B68     		ldr	r3, [r7, #4]
 767 0054 1B6C     		ldr	r3, [r3, #64]
 768              		.loc 1 535 7
 769 0056 002B     		cmp	r3, #0
 770 0058 03D1     		bne	.L28
 771              		.loc 1 535 53 discriminator 1
 772 005a 7B68     		ldr	r3, [r7, #4]
 773 005c 9B6C     		ldr	r3, [r3, #72]
 774              		.loc 1 535 45 discriminator 1
 775 005e 002B     		cmp	r3, #0
 776 0060 07D0     		beq	.L29
 777              	.L28:
ARM GAS  C:\Users\EI\AppData\Local\Temp\ccZQ2WtN.s 			page 24


 536:Drivers/STM32F4xx_HAL_Driver/Src/stm32f4xx_hal_dma.c ****     {
 537:Drivers/STM32F4xx_HAL_Driver/Src/stm32f4xx_hal_dma.c ****       hdma->Instance->CR  &= ~(DMA_IT_HT);
 778              		.loc 1 537 11
 779 0062 7B68     		ldr	r3, [r7, #4]
 780 0064 1B68     		ldr	r3, [r3]
 781              		.loc 1 537 27
 782 0066 1A68     		ldr	r2, [r3]
 783              		.loc 1 537 11
 784 0068 7B68     		ldr	r3, [r7, #4]
 785 006a 1B68     		ldr	r3, [r3]
 786              		.loc 1 537 27
 787 006c 22F00802 		bic	r2, r2, #8
 788 0070 1A60     		str	r2, [r3]
 789              	.L29:
 538:Drivers/STM32F4xx_HAL_Driver/Src/stm32f4xx_hal_dma.c ****     }
 539:Drivers/STM32F4xx_HAL_Driver/Src/stm32f4xx_hal_dma.c ****     
 540:Drivers/STM32F4xx_HAL_Driver/Src/stm32f4xx_hal_dma.c ****     /* Disable the stream */
 541:Drivers/STM32F4xx_HAL_Driver/Src/stm32f4xx_hal_dma.c ****     __HAL_DMA_DISABLE(hdma);
 790              		.loc 1 541 5
 791 0072 7B68     		ldr	r3, [r7, #4]
 792 0074 1B68     		ldr	r3, [r3]
 793 0076 1A68     		ldr	r2, [r3]
 794 0078 7B68     		ldr	r3, [r7, #4]
 795 007a 1B68     		ldr	r3, [r3]
 796 007c 22F00102 		bic	r2, r2, #1
 797 0080 1A60     		str	r2, [r3]
 542:Drivers/STM32F4xx_HAL_Driver/Src/stm32f4xx_hal_dma.c ****     
 543:Drivers/STM32F4xx_HAL_Driver/Src/stm32f4xx_hal_dma.c ****     /* Check if the DMA Stream is effectively disabled */
 544:Drivers/STM32F4xx_HAL_Driver/Src/stm32f4xx_hal_dma.c ****     while((hdma->Instance->CR & DMA_SxCR_EN) != RESET)
 798              		.loc 1 544 10
 799 0082 13E0     		b	.L30
 800              	.L31:
 545:Drivers/STM32F4xx_HAL_Driver/Src/stm32f4xx_hal_dma.c ****     {
 546:Drivers/STM32F4xx_HAL_Driver/Src/stm32f4xx_hal_dma.c ****       /* Check for the Timeout */
 547:Drivers/STM32F4xx_HAL_Driver/Src/stm32f4xx_hal_dma.c ****       if((HAL_GetTick() - tickstart ) > HAL_TIMEOUT_DMA_ABORT)
 801              		.loc 1 547 11
 802 0084 FFF7FEFF 		bl	HAL_GetTick
 803 0088 0246     		mov	r2, r0
 804              		.loc 1 547 25
 805 008a BB68     		ldr	r3, [r7, #8]
 806 008c D31A     		subs	r3, r2, r3
 807              		.loc 1 547 9
 808 008e 052B     		cmp	r3, #5
 809 0090 0CD9     		bls	.L30
 548:Drivers/STM32F4xx_HAL_Driver/Src/stm32f4xx_hal_dma.c ****       {
 549:Drivers/STM32F4xx_HAL_Driver/Src/stm32f4xx_hal_dma.c ****         /* Update error code */
 550:Drivers/STM32F4xx_HAL_Driver/Src/stm32f4xx_hal_dma.c ****         hdma->ErrorCode = HAL_DMA_ERROR_TIMEOUT;
 810              		.loc 1 550 25
 811 0092 7B68     		ldr	r3, [r7, #4]
 812 0094 2022     		movs	r2, #32
 813 0096 5A65     		str	r2, [r3, #84]
 551:Drivers/STM32F4xx_HAL_Driver/Src/stm32f4xx_hal_dma.c ****         
 552:Drivers/STM32F4xx_HAL_Driver/Src/stm32f4xx_hal_dma.c ****         /* Change the DMA state */
 553:Drivers/STM32F4xx_HAL_Driver/Src/stm32f4xx_hal_dma.c ****         hdma->State = HAL_DMA_STATE_TIMEOUT;
 814              		.loc 1 553 21
 815 0098 7B68     		ldr	r3, [r7, #4]
 816 009a 0322     		movs	r2, #3
ARM GAS  C:\Users\EI\AppData\Local\Temp\ccZQ2WtN.s 			page 25


 817 009c 83F83520 		strb	r2, [r3, #53]
 554:Drivers/STM32F4xx_HAL_Driver/Src/stm32f4xx_hal_dma.c ****         
 555:Drivers/STM32F4xx_HAL_Driver/Src/stm32f4xx_hal_dma.c ****         /* Process Unlocked */
 556:Drivers/STM32F4xx_HAL_Driver/Src/stm32f4xx_hal_dma.c ****         __HAL_UNLOCK(hdma);
 818              		.loc 1 556 9
 819 00a0 7B68     		ldr	r3, [r7, #4]
 820 00a2 0022     		movs	r2, #0
 821 00a4 83F83420 		strb	r2, [r3, #52]
 557:Drivers/STM32F4xx_HAL_Driver/Src/stm32f4xx_hal_dma.c ****         
 558:Drivers/STM32F4xx_HAL_Driver/Src/stm32f4xx_hal_dma.c ****         return HAL_TIMEOUT;
 822              		.loc 1 558 16
 823 00a8 0323     		movs	r3, #3
 824 00aa 15E0     		b	.L27
 825              	.L30:
 544:Drivers/STM32F4xx_HAL_Driver/Src/stm32f4xx_hal_dma.c ****     {
 826              		.loc 1 544 16
 827 00ac 7B68     		ldr	r3, [r7, #4]
 828 00ae 1B68     		ldr	r3, [r3]
 544:Drivers/STM32F4xx_HAL_Driver/Src/stm32f4xx_hal_dma.c ****     {
 829              		.loc 1 544 26
 830 00b0 1B68     		ldr	r3, [r3]
 544:Drivers/STM32F4xx_HAL_Driver/Src/stm32f4xx_hal_dma.c ****     {
 831              		.loc 1 544 31
 832 00b2 03F00103 		and	r3, r3, #1
 544:Drivers/STM32F4xx_HAL_Driver/Src/stm32f4xx_hal_dma.c ****     {
 833              		.loc 1 544 10
 834 00b6 002B     		cmp	r3, #0
 835 00b8 E4D1     		bne	.L31
 559:Drivers/STM32F4xx_HAL_Driver/Src/stm32f4xx_hal_dma.c ****       }
 560:Drivers/STM32F4xx_HAL_Driver/Src/stm32f4xx_hal_dma.c ****     }
 561:Drivers/STM32F4xx_HAL_Driver/Src/stm32f4xx_hal_dma.c ****     
 562:Drivers/STM32F4xx_HAL_Driver/Src/stm32f4xx_hal_dma.c ****     /* Clear all interrupt flags at correct offset within the register */
 563:Drivers/STM32F4xx_HAL_Driver/Src/stm32f4xx_hal_dma.c ****     regs->IFCR = 0x3FU << hdma->StreamIndex;
 836              		.loc 1 563 31
 837 00ba 7B68     		ldr	r3, [r7, #4]
 838 00bc DB6D     		ldr	r3, [r3, #92]
 839              		.loc 1 563 24
 840 00be 3F22     		movs	r2, #63
 841 00c0 9A40     		lsls	r2, r2, r3
 842              		.loc 1 563 16
 843 00c2 FB68     		ldr	r3, [r7, #12]
 844 00c4 9A60     		str	r2, [r3, #8]
 564:Drivers/STM32F4xx_HAL_Driver/Src/stm32f4xx_hal_dma.c ****     
 565:Drivers/STM32F4xx_HAL_Driver/Src/stm32f4xx_hal_dma.c ****     /* Change the DMA state*/
 566:Drivers/STM32F4xx_HAL_Driver/Src/stm32f4xx_hal_dma.c ****     hdma->State = HAL_DMA_STATE_READY;
 845              		.loc 1 566 17
 846 00c6 7B68     		ldr	r3, [r7, #4]
 847 00c8 0122     		movs	r2, #1
 848 00ca 83F83520 		strb	r2, [r3, #53]
 567:Drivers/STM32F4xx_HAL_Driver/Src/stm32f4xx_hal_dma.c ****     
 568:Drivers/STM32F4xx_HAL_Driver/Src/stm32f4xx_hal_dma.c ****     /* Process Unlocked */
 569:Drivers/STM32F4xx_HAL_Driver/Src/stm32f4xx_hal_dma.c ****     __HAL_UNLOCK(hdma);
 849              		.loc 1 569 5
 850 00ce 7B68     		ldr	r3, [r7, #4]
 851 00d0 0022     		movs	r2, #0
 852 00d2 83F83420 		strb	r2, [r3, #52]
 570:Drivers/STM32F4xx_HAL_Driver/Src/stm32f4xx_hal_dma.c ****   }
ARM GAS  C:\Users\EI\AppData\Local\Temp\ccZQ2WtN.s 			page 26


 571:Drivers/STM32F4xx_HAL_Driver/Src/stm32f4xx_hal_dma.c ****   return HAL_OK;
 853              		.loc 1 571 10
 854 00d6 0023     		movs	r3, #0
 855              	.L27:
 572:Drivers/STM32F4xx_HAL_Driver/Src/stm32f4xx_hal_dma.c **** }
 856              		.loc 1 572 1
 857 00d8 1846     		mov	r0, r3
 858 00da 1037     		adds	r7, r7, #16
 859              	.LCFI23:
 860              		.cfi_def_cfa_offset 8
 861 00dc BD46     		mov	sp, r7
 862              	.LCFI24:
 863              		.cfi_def_cfa_register 13
 864              		@ sp needed
 865 00de 80BD     		pop	{r7, pc}
 866              		.cfi_endproc
 867              	.LFE220:
 869              		.section	.text.HAL_DMA_Abort_IT,"ax",%progbits
 870              		.align	1
 871              		.global	HAL_DMA_Abort_IT
 872              		.syntax unified
 873              		.thumb
 874              		.thumb_func
 875              		.fpu fpv4-sp-d16
 877              	HAL_DMA_Abort_IT:
 878              	.LFB221:
 573:Drivers/STM32F4xx_HAL_Driver/Src/stm32f4xx_hal_dma.c **** 
 574:Drivers/STM32F4xx_HAL_Driver/Src/stm32f4xx_hal_dma.c **** /**
 575:Drivers/STM32F4xx_HAL_Driver/Src/stm32f4xx_hal_dma.c ****   * @brief  Aborts the DMA Transfer in Interrupt mode.
 576:Drivers/STM32F4xx_HAL_Driver/Src/stm32f4xx_hal_dma.c ****   * @param  hdma   pointer to a DMA_HandleTypeDef structure that contains
 577:Drivers/STM32F4xx_HAL_Driver/Src/stm32f4xx_hal_dma.c ****   *                 the configuration information for the specified DMA Stream.
 578:Drivers/STM32F4xx_HAL_Driver/Src/stm32f4xx_hal_dma.c ****   * @retval HAL status
 579:Drivers/STM32F4xx_HAL_Driver/Src/stm32f4xx_hal_dma.c ****   */
 580:Drivers/STM32F4xx_HAL_Driver/Src/stm32f4xx_hal_dma.c **** HAL_StatusTypeDef HAL_DMA_Abort_IT(DMA_HandleTypeDef *hdma)
 581:Drivers/STM32F4xx_HAL_Driver/Src/stm32f4xx_hal_dma.c **** {
 879              		.loc 1 581 1
 880              		.cfi_startproc
 881              		@ args = 0, pretend = 0, frame = 8
 882              		@ frame_needed = 1, uses_anonymous_args = 0
 883              		@ link register save eliminated.
 884 0000 80B4     		push	{r7}
 885              	.LCFI25:
 886              		.cfi_def_cfa_offset 4
 887              		.cfi_offset 7, -4
 888 0002 83B0     		sub	sp, sp, #12
 889              	.LCFI26:
 890              		.cfi_def_cfa_offset 16
 891 0004 00AF     		add	r7, sp, #0
 892              	.LCFI27:
 893              		.cfi_def_cfa_register 7
 894 0006 7860     		str	r0, [r7, #4]
 582:Drivers/STM32F4xx_HAL_Driver/Src/stm32f4xx_hal_dma.c ****   if(hdma->State != HAL_DMA_STATE_BUSY)
 895              		.loc 1 582 10
 896 0008 7B68     		ldr	r3, [r7, #4]
 897 000a 93F83530 		ldrb	r3, [r3, #53]
 898 000e DBB2     		uxtb	r3, r3
 899              		.loc 1 582 5
ARM GAS  C:\Users\EI\AppData\Local\Temp\ccZQ2WtN.s 			page 27


 900 0010 022B     		cmp	r3, #2
 901 0012 04D0     		beq	.L33
 583:Drivers/STM32F4xx_HAL_Driver/Src/stm32f4xx_hal_dma.c ****   {
 584:Drivers/STM32F4xx_HAL_Driver/Src/stm32f4xx_hal_dma.c ****     hdma->ErrorCode = HAL_DMA_ERROR_NO_XFER;
 902              		.loc 1 584 21
 903 0014 7B68     		ldr	r3, [r7, #4]
 904 0016 8022     		movs	r2, #128
 905 0018 5A65     		str	r2, [r3, #84]
 585:Drivers/STM32F4xx_HAL_Driver/Src/stm32f4xx_hal_dma.c ****     return HAL_ERROR;
 906              		.loc 1 585 12
 907 001a 0123     		movs	r3, #1
 908 001c 0CE0     		b	.L34
 909              	.L33:
 586:Drivers/STM32F4xx_HAL_Driver/Src/stm32f4xx_hal_dma.c ****   }
 587:Drivers/STM32F4xx_HAL_Driver/Src/stm32f4xx_hal_dma.c ****   else
 588:Drivers/STM32F4xx_HAL_Driver/Src/stm32f4xx_hal_dma.c ****   {
 589:Drivers/STM32F4xx_HAL_Driver/Src/stm32f4xx_hal_dma.c ****     /* Set Abort State  */
 590:Drivers/STM32F4xx_HAL_Driver/Src/stm32f4xx_hal_dma.c ****     hdma->State = HAL_DMA_STATE_ABORT;
 910              		.loc 1 590 17
 911 001e 7B68     		ldr	r3, [r7, #4]
 912 0020 0522     		movs	r2, #5
 913 0022 83F83520 		strb	r2, [r3, #53]
 591:Drivers/STM32F4xx_HAL_Driver/Src/stm32f4xx_hal_dma.c ****     
 592:Drivers/STM32F4xx_HAL_Driver/Src/stm32f4xx_hal_dma.c ****     /* Disable the stream */
 593:Drivers/STM32F4xx_HAL_Driver/Src/stm32f4xx_hal_dma.c ****     __HAL_DMA_DISABLE(hdma);
 914              		.loc 1 593 5
 915 0026 7B68     		ldr	r3, [r7, #4]
 916 0028 1B68     		ldr	r3, [r3]
 917 002a 1A68     		ldr	r2, [r3]
 918 002c 7B68     		ldr	r3, [r7, #4]
 919 002e 1B68     		ldr	r3, [r3]
 920 0030 22F00102 		bic	r2, r2, #1
 921 0034 1A60     		str	r2, [r3]
 594:Drivers/STM32F4xx_HAL_Driver/Src/stm32f4xx_hal_dma.c ****   }
 595:Drivers/STM32F4xx_HAL_Driver/Src/stm32f4xx_hal_dma.c **** 
 596:Drivers/STM32F4xx_HAL_Driver/Src/stm32f4xx_hal_dma.c ****   return HAL_OK;
 922              		.loc 1 596 10
 923 0036 0023     		movs	r3, #0
 924              	.L34:
 597:Drivers/STM32F4xx_HAL_Driver/Src/stm32f4xx_hal_dma.c **** }
 925              		.loc 1 597 1
 926 0038 1846     		mov	r0, r3
 927 003a 0C37     		adds	r7, r7, #12
 928              	.LCFI28:
 929              		.cfi_def_cfa_offset 4
 930 003c BD46     		mov	sp, r7
 931              	.LCFI29:
 932              		.cfi_def_cfa_register 13
 933              		@ sp needed
 934 003e 5DF8047B 		ldr	r7, [sp], #4
 935              	.LCFI30:
 936              		.cfi_restore 7
 937              		.cfi_def_cfa_offset 0
 938 0042 7047     		bx	lr
 939              		.cfi_endproc
 940              	.LFE221:
 942              		.section	.text.HAL_DMA_PollForTransfer,"ax",%progbits
ARM GAS  C:\Users\EI\AppData\Local\Temp\ccZQ2WtN.s 			page 28


 943              		.align	1
 944              		.global	HAL_DMA_PollForTransfer
 945              		.syntax unified
 946              		.thumb
 947              		.thumb_func
 948              		.fpu fpv4-sp-d16
 950              	HAL_DMA_PollForTransfer:
 951              	.LFB222:
 598:Drivers/STM32F4xx_HAL_Driver/Src/stm32f4xx_hal_dma.c **** 
 599:Drivers/STM32F4xx_HAL_Driver/Src/stm32f4xx_hal_dma.c **** /**
 600:Drivers/STM32F4xx_HAL_Driver/Src/stm32f4xx_hal_dma.c ****   * @brief  Polling for transfer complete.
 601:Drivers/STM32F4xx_HAL_Driver/Src/stm32f4xx_hal_dma.c ****   * @param  hdma          pointer to a DMA_HandleTypeDef structure that contains
 602:Drivers/STM32F4xx_HAL_Driver/Src/stm32f4xx_hal_dma.c ****   *                        the configuration information for the specified DMA Stream.
 603:Drivers/STM32F4xx_HAL_Driver/Src/stm32f4xx_hal_dma.c ****   * @param  CompleteLevel Specifies the DMA level complete.
 604:Drivers/STM32F4xx_HAL_Driver/Src/stm32f4xx_hal_dma.c ****   * @note   The polling mode is kept in this version for legacy. it is recommended to use the IT mo
 605:Drivers/STM32F4xx_HAL_Driver/Src/stm32f4xx_hal_dma.c ****   *         This model could be used for debug purpose.
 606:Drivers/STM32F4xx_HAL_Driver/Src/stm32f4xx_hal_dma.c ****   * @note   The HAL_DMA_PollForTransfer API cannot be used in circular and double buffering mode (a
 607:Drivers/STM32F4xx_HAL_Driver/Src/stm32f4xx_hal_dma.c ****   * @param  Timeout       Timeout duration.
 608:Drivers/STM32F4xx_HAL_Driver/Src/stm32f4xx_hal_dma.c ****   * @retval HAL status
 609:Drivers/STM32F4xx_HAL_Driver/Src/stm32f4xx_hal_dma.c ****   */
 610:Drivers/STM32F4xx_HAL_Driver/Src/stm32f4xx_hal_dma.c **** HAL_StatusTypeDef HAL_DMA_PollForTransfer(DMA_HandleTypeDef *hdma, HAL_DMA_LevelCompleteTypeDef Com
 611:Drivers/STM32F4xx_HAL_Driver/Src/stm32f4xx_hal_dma.c **** {
 952              		.loc 1 611 1
 953              		.cfi_startproc
 954              		@ args = 0, pretend = 0, frame = 40
 955              		@ frame_needed = 1, uses_anonymous_args = 0
 956 0000 80B5     		push	{r7, lr}
 957              	.LCFI31:
 958              		.cfi_def_cfa_offset 8
 959              		.cfi_offset 7, -8
 960              		.cfi_offset 14, -4
 961 0002 8AB0     		sub	sp, sp, #40
 962              	.LCFI32:
 963              		.cfi_def_cfa_offset 48
 964 0004 00AF     		add	r7, sp, #0
 965              	.LCFI33:
 966              		.cfi_def_cfa_register 7
 967 0006 F860     		str	r0, [r7, #12]
 968 0008 0B46     		mov	r3, r1
 969 000a 7A60     		str	r2, [r7, #4]
 970 000c FB72     		strb	r3, [r7, #11]
 612:Drivers/STM32F4xx_HAL_Driver/Src/stm32f4xx_hal_dma.c ****   HAL_StatusTypeDef status = HAL_OK; 
 971              		.loc 1 612 21
 972 000e 0023     		movs	r3, #0
 973 0010 FB77     		strb	r3, [r7, #31]
 613:Drivers/STM32F4xx_HAL_Driver/Src/stm32f4xx_hal_dma.c ****   uint32_t mask_cpltlevel;
 614:Drivers/STM32F4xx_HAL_Driver/Src/stm32f4xx_hal_dma.c ****   uint32_t tickstart = HAL_GetTick(); 
 974              		.loc 1 614 24
 975 0012 FFF7FEFF 		bl	HAL_GetTick
 976 0016 B861     		str	r0, [r7, #24]
 615:Drivers/STM32F4xx_HAL_Driver/Src/stm32f4xx_hal_dma.c ****   uint32_t tmpisr;
 616:Drivers/STM32F4xx_HAL_Driver/Src/stm32f4xx_hal_dma.c ****   
 617:Drivers/STM32F4xx_HAL_Driver/Src/stm32f4xx_hal_dma.c ****   /* calculate DMA base and stream number */
 618:Drivers/STM32F4xx_HAL_Driver/Src/stm32f4xx_hal_dma.c ****   DMA_Base_Registers *regs;
 619:Drivers/STM32F4xx_HAL_Driver/Src/stm32f4xx_hal_dma.c **** 
 620:Drivers/STM32F4xx_HAL_Driver/Src/stm32f4xx_hal_dma.c ****   if(HAL_DMA_STATE_BUSY != hdma->State)
 977              		.loc 1 620 32
ARM GAS  C:\Users\EI\AppData\Local\Temp\ccZQ2WtN.s 			page 29


 978 0018 FB68     		ldr	r3, [r7, #12]
 979 001a 93F83530 		ldrb	r3, [r3, #53]
 980 001e DBB2     		uxtb	r3, r3
 981              		.loc 1 620 5
 982 0020 022B     		cmp	r3, #2
 983 0022 08D0     		beq	.L36
 621:Drivers/STM32F4xx_HAL_Driver/Src/stm32f4xx_hal_dma.c ****   {
 622:Drivers/STM32F4xx_HAL_Driver/Src/stm32f4xx_hal_dma.c ****     /* No transfer ongoing */
 623:Drivers/STM32F4xx_HAL_Driver/Src/stm32f4xx_hal_dma.c ****     hdma->ErrorCode = HAL_DMA_ERROR_NO_XFER;
 984              		.loc 1 623 21
 985 0024 FB68     		ldr	r3, [r7, #12]
 986 0026 8022     		movs	r2, #128
 987 0028 5A65     		str	r2, [r3, #84]
 624:Drivers/STM32F4xx_HAL_Driver/Src/stm32f4xx_hal_dma.c ****     __HAL_UNLOCK(hdma);
 988              		.loc 1 624 5
 989 002a FB68     		ldr	r3, [r7, #12]
 990 002c 0022     		movs	r2, #0
 991 002e 83F83420 		strb	r2, [r3, #52]
 625:Drivers/STM32F4xx_HAL_Driver/Src/stm32f4xx_hal_dma.c ****     return HAL_ERROR;
 992              		.loc 1 625 12
 993 0032 0123     		movs	r3, #1
 994 0034 BFE0     		b	.L37
 995              	.L36:
 626:Drivers/STM32F4xx_HAL_Driver/Src/stm32f4xx_hal_dma.c ****   }
 627:Drivers/STM32F4xx_HAL_Driver/Src/stm32f4xx_hal_dma.c **** 
 628:Drivers/STM32F4xx_HAL_Driver/Src/stm32f4xx_hal_dma.c ****   /* Polling mode not supported in circular mode and double buffering mode */
 629:Drivers/STM32F4xx_HAL_Driver/Src/stm32f4xx_hal_dma.c ****   if ((hdma->Instance->CR & DMA_SxCR_CIRC) != RESET)
 996              		.loc 1 629 12
 997 0036 FB68     		ldr	r3, [r7, #12]
 998 0038 1B68     		ldr	r3, [r3]
 999              		.loc 1 629 22
 1000 003a 1B68     		ldr	r3, [r3]
 1001              		.loc 1 629 27
 1002 003c 03F48073 		and	r3, r3, #256
 1003              		.loc 1 629 6
 1004 0040 002B     		cmp	r3, #0
 1005 0042 05D0     		beq	.L38
 630:Drivers/STM32F4xx_HAL_Driver/Src/stm32f4xx_hal_dma.c ****   {
 631:Drivers/STM32F4xx_HAL_Driver/Src/stm32f4xx_hal_dma.c ****     hdma->ErrorCode = HAL_DMA_ERROR_NOT_SUPPORTED;
 1006              		.loc 1 631 21
 1007 0044 FB68     		ldr	r3, [r7, #12]
 1008 0046 4FF48072 		mov	r2, #256
 1009 004a 5A65     		str	r2, [r3, #84]
 632:Drivers/STM32F4xx_HAL_Driver/Src/stm32f4xx_hal_dma.c ****     return HAL_ERROR;
 1010              		.loc 1 632 12
 1011 004c 0123     		movs	r3, #1
 1012 004e B2E0     		b	.L37
 1013              	.L38:
 633:Drivers/STM32F4xx_HAL_Driver/Src/stm32f4xx_hal_dma.c ****   }
 634:Drivers/STM32F4xx_HAL_Driver/Src/stm32f4xx_hal_dma.c ****   
 635:Drivers/STM32F4xx_HAL_Driver/Src/stm32f4xx_hal_dma.c ****   /* Get the level transfer complete flag */
 636:Drivers/STM32F4xx_HAL_Driver/Src/stm32f4xx_hal_dma.c ****   if(CompleteLevel == HAL_DMA_FULL_TRANSFER)
 1014              		.loc 1 636 5
 1015 0050 FB7A     		ldrb	r3, [r7, #11]	@ zero_extendqisi2
 1016 0052 002B     		cmp	r3, #0
 1017 0054 06D1     		bne	.L39
 637:Drivers/STM32F4xx_HAL_Driver/Src/stm32f4xx_hal_dma.c ****   {
ARM GAS  C:\Users\EI\AppData\Local\Temp\ccZQ2WtN.s 			page 30


 638:Drivers/STM32F4xx_HAL_Driver/Src/stm32f4xx_hal_dma.c ****     /* Transfer Complete flag */
 639:Drivers/STM32F4xx_HAL_Driver/Src/stm32f4xx_hal_dma.c ****     mask_cpltlevel = DMA_FLAG_TCIF0_4 << hdma->StreamIndex;
 1018              		.loc 1 639 46
 1019 0056 FB68     		ldr	r3, [r7, #12]
 1020 0058 DB6D     		ldr	r3, [r3, #92]
 1021              		.loc 1 639 20
 1022 005a 2022     		movs	r2, #32
 1023 005c 02FA03F3 		lsl	r3, r2, r3
 1024 0060 7B62     		str	r3, [r7, #36]
 1025 0062 05E0     		b	.L40
 1026              	.L39:
 640:Drivers/STM32F4xx_HAL_Driver/Src/stm32f4xx_hal_dma.c ****   }
 641:Drivers/STM32F4xx_HAL_Driver/Src/stm32f4xx_hal_dma.c ****   else
 642:Drivers/STM32F4xx_HAL_Driver/Src/stm32f4xx_hal_dma.c ****   {
 643:Drivers/STM32F4xx_HAL_Driver/Src/stm32f4xx_hal_dma.c ****     /* Half Transfer Complete flag */
 644:Drivers/STM32F4xx_HAL_Driver/Src/stm32f4xx_hal_dma.c ****     mask_cpltlevel = DMA_FLAG_HTIF0_4 << hdma->StreamIndex;
 1027              		.loc 1 644 46
 1028 0064 FB68     		ldr	r3, [r7, #12]
 1029 0066 DB6D     		ldr	r3, [r3, #92]
 1030              		.loc 1 644 20
 1031 0068 1022     		movs	r2, #16
 1032 006a 02FA03F3 		lsl	r3, r2, r3
 1033 006e 7B62     		str	r3, [r7, #36]
 1034              	.L40:
 645:Drivers/STM32F4xx_HAL_Driver/Src/stm32f4xx_hal_dma.c ****   }
 646:Drivers/STM32F4xx_HAL_Driver/Src/stm32f4xx_hal_dma.c ****   
 647:Drivers/STM32F4xx_HAL_Driver/Src/stm32f4xx_hal_dma.c ****   regs = (DMA_Base_Registers *)hdma->StreamBaseAddress;
 1035              		.loc 1 647 36
 1036 0070 FB68     		ldr	r3, [r7, #12]
 1037 0072 9B6D     		ldr	r3, [r3, #88]
 1038              		.loc 1 647 8
 1039 0074 7B61     		str	r3, [r7, #20]
 648:Drivers/STM32F4xx_HAL_Driver/Src/stm32f4xx_hal_dma.c ****   tmpisr = regs->ISR;
 1040              		.loc 1 648 10
 1041 0076 7B69     		ldr	r3, [r7, #20]
 1042 0078 1B68     		ldr	r3, [r3]
 1043 007a 3B62     		str	r3, [r7, #32]
 649:Drivers/STM32F4xx_HAL_Driver/Src/stm32f4xx_hal_dma.c ****   
 650:Drivers/STM32F4xx_HAL_Driver/Src/stm32f4xx_hal_dma.c ****   while(((tmpisr & mask_cpltlevel) == RESET) && ((hdma->ErrorCode & HAL_DMA_ERROR_TE) == RESET))
 1044              		.loc 1 650 8
 1045 007c 5AE0     		b	.L41
 1046              	.L47:
 651:Drivers/STM32F4xx_HAL_Driver/Src/stm32f4xx_hal_dma.c ****   {
 652:Drivers/STM32F4xx_HAL_Driver/Src/stm32f4xx_hal_dma.c ****     /* Check for the Timeout (Not applicable in circular mode)*/
 653:Drivers/STM32F4xx_HAL_Driver/Src/stm32f4xx_hal_dma.c ****     if(Timeout != HAL_MAX_DELAY)
 1047              		.loc 1 653 7
 1048 007e 7B68     		ldr	r3, [r7, #4]
 1049 0080 B3F1FF3F 		cmp	r3, #-1
 1050 0084 17D0     		beq	.L42
 654:Drivers/STM32F4xx_HAL_Driver/Src/stm32f4xx_hal_dma.c ****     {
 655:Drivers/STM32F4xx_HAL_Driver/Src/stm32f4xx_hal_dma.c ****       if((Timeout == 0U)||((HAL_GetTick() - tickstart ) > Timeout))
 1051              		.loc 1 655 9
 1052 0086 7B68     		ldr	r3, [r7, #4]
 1053 0088 002B     		cmp	r3, #0
 1054 008a 07D0     		beq	.L43
 1055              		.loc 1 655 29 discriminator 1
 1056 008c FFF7FEFF 		bl	HAL_GetTick
ARM GAS  C:\Users\EI\AppData\Local\Temp\ccZQ2WtN.s 			page 31


 1057 0090 0246     		mov	r2, r0
 1058              		.loc 1 655 43 discriminator 1
 1059 0092 BB69     		ldr	r3, [r7, #24]
 1060 0094 D31A     		subs	r3, r2, r3
 1061              		.loc 1 655 25 discriminator 1
 1062 0096 7A68     		ldr	r2, [r7, #4]
 1063 0098 9A42     		cmp	r2, r3
 1064 009a 0CD2     		bcs	.L42
 1065              	.L43:
 656:Drivers/STM32F4xx_HAL_Driver/Src/stm32f4xx_hal_dma.c ****       {
 657:Drivers/STM32F4xx_HAL_Driver/Src/stm32f4xx_hal_dma.c ****         /* Update error code */
 658:Drivers/STM32F4xx_HAL_Driver/Src/stm32f4xx_hal_dma.c ****         hdma->ErrorCode = HAL_DMA_ERROR_TIMEOUT;
 1066              		.loc 1 658 25
 1067 009c FB68     		ldr	r3, [r7, #12]
 1068 009e 2022     		movs	r2, #32
 1069 00a0 5A65     		str	r2, [r3, #84]
 659:Drivers/STM32F4xx_HAL_Driver/Src/stm32f4xx_hal_dma.c ****         
 660:Drivers/STM32F4xx_HAL_Driver/Src/stm32f4xx_hal_dma.c ****         /* Change the DMA state */
 661:Drivers/STM32F4xx_HAL_Driver/Src/stm32f4xx_hal_dma.c ****         hdma->State = HAL_DMA_STATE_READY;
 1070              		.loc 1 661 21
 1071 00a2 FB68     		ldr	r3, [r7, #12]
 1072 00a4 0122     		movs	r2, #1
 1073 00a6 83F83520 		strb	r2, [r3, #53]
 662:Drivers/STM32F4xx_HAL_Driver/Src/stm32f4xx_hal_dma.c ****         
 663:Drivers/STM32F4xx_HAL_Driver/Src/stm32f4xx_hal_dma.c ****         /* Process Unlocked */
 664:Drivers/STM32F4xx_HAL_Driver/Src/stm32f4xx_hal_dma.c ****         __HAL_UNLOCK(hdma);
 1074              		.loc 1 664 9
 1075 00aa FB68     		ldr	r3, [r7, #12]
 1076 00ac 0022     		movs	r2, #0
 1077 00ae 83F83420 		strb	r2, [r3, #52]
 665:Drivers/STM32F4xx_HAL_Driver/Src/stm32f4xx_hal_dma.c ****         
 666:Drivers/STM32F4xx_HAL_Driver/Src/stm32f4xx_hal_dma.c ****         return HAL_TIMEOUT;
 1078              		.loc 1 666 16
 1079 00b2 0323     		movs	r3, #3
 1080 00b4 7FE0     		b	.L37
 1081              	.L42:
 667:Drivers/STM32F4xx_HAL_Driver/Src/stm32f4xx_hal_dma.c ****       }
 668:Drivers/STM32F4xx_HAL_Driver/Src/stm32f4xx_hal_dma.c ****     }
 669:Drivers/STM32F4xx_HAL_Driver/Src/stm32f4xx_hal_dma.c **** 
 670:Drivers/STM32F4xx_HAL_Driver/Src/stm32f4xx_hal_dma.c ****     /* Get the ISR register value */
 671:Drivers/STM32F4xx_HAL_Driver/Src/stm32f4xx_hal_dma.c ****     tmpisr = regs->ISR;
 1082              		.loc 1 671 12
 1083 00b6 7B69     		ldr	r3, [r7, #20]
 1084 00b8 1B68     		ldr	r3, [r3]
 1085 00ba 3B62     		str	r3, [r7, #32]
 672:Drivers/STM32F4xx_HAL_Driver/Src/stm32f4xx_hal_dma.c **** 
 673:Drivers/STM32F4xx_HAL_Driver/Src/stm32f4xx_hal_dma.c ****     if((tmpisr & (DMA_FLAG_TEIF0_4 << hdma->StreamIndex)) != RESET)
 1086              		.loc 1 673 43
 1087 00bc FB68     		ldr	r3, [r7, #12]
 1088 00be DB6D     		ldr	r3, [r3, #92]
 1089              		.loc 1 673 36
 1090 00c0 0822     		movs	r2, #8
 1091 00c2 9A40     		lsls	r2, r2, r3
 1092              		.loc 1 673 16
 1093 00c4 3B6A     		ldr	r3, [r7, #32]
 1094 00c6 1340     		ands	r3, r3, r2
 1095              		.loc 1 673 7
ARM GAS  C:\Users\EI\AppData\Local\Temp\ccZQ2WtN.s 			page 32


 1096 00c8 002B     		cmp	r3, #0
 1097 00ca 0BD0     		beq	.L44
 674:Drivers/STM32F4xx_HAL_Driver/Src/stm32f4xx_hal_dma.c ****     {
 675:Drivers/STM32F4xx_HAL_Driver/Src/stm32f4xx_hal_dma.c ****       /* Update error code */
 676:Drivers/STM32F4xx_HAL_Driver/Src/stm32f4xx_hal_dma.c ****       hdma->ErrorCode |= HAL_DMA_ERROR_TE;
 1098              		.loc 1 676 23
 1099 00cc FB68     		ldr	r3, [r7, #12]
 1100 00ce 5B6D     		ldr	r3, [r3, #84]
 1101 00d0 43F00102 		orr	r2, r3, #1
 1102 00d4 FB68     		ldr	r3, [r7, #12]
 1103 00d6 5A65     		str	r2, [r3, #84]
 677:Drivers/STM32F4xx_HAL_Driver/Src/stm32f4xx_hal_dma.c ****       
 678:Drivers/STM32F4xx_HAL_Driver/Src/stm32f4xx_hal_dma.c ****       /* Clear the transfer error flag */
 679:Drivers/STM32F4xx_HAL_Driver/Src/stm32f4xx_hal_dma.c ****       regs->IFCR = DMA_FLAG_TEIF0_4 << hdma->StreamIndex;
 1104              		.loc 1 679 44
 1105 00d8 FB68     		ldr	r3, [r7, #12]
 1106 00da DB6D     		ldr	r3, [r3, #92]
 1107              		.loc 1 679 37
 1108 00dc 0822     		movs	r2, #8
 1109 00de 9A40     		lsls	r2, r2, r3
 1110              		.loc 1 679 18
 1111 00e0 7B69     		ldr	r3, [r7, #20]
 1112 00e2 9A60     		str	r2, [r3, #8]
 1113              	.L44:
 680:Drivers/STM32F4xx_HAL_Driver/Src/stm32f4xx_hal_dma.c ****     }
 681:Drivers/STM32F4xx_HAL_Driver/Src/stm32f4xx_hal_dma.c ****     
 682:Drivers/STM32F4xx_HAL_Driver/Src/stm32f4xx_hal_dma.c ****     if((tmpisr & (DMA_FLAG_FEIF0_4 << hdma->StreamIndex)) != RESET)
 1114              		.loc 1 682 43
 1115 00e4 FB68     		ldr	r3, [r7, #12]
 1116 00e6 DB6D     		ldr	r3, [r3, #92]
 1117              		.loc 1 682 36
 1118 00e8 0122     		movs	r2, #1
 1119 00ea 9A40     		lsls	r2, r2, r3
 1120              		.loc 1 682 16
 1121 00ec 3B6A     		ldr	r3, [r7, #32]
 1122 00ee 1340     		ands	r3, r3, r2
 1123              		.loc 1 682 7
 1124 00f0 002B     		cmp	r3, #0
 1125 00f2 0BD0     		beq	.L45
 683:Drivers/STM32F4xx_HAL_Driver/Src/stm32f4xx_hal_dma.c ****     {
 684:Drivers/STM32F4xx_HAL_Driver/Src/stm32f4xx_hal_dma.c ****       /* Update error code */
 685:Drivers/STM32F4xx_HAL_Driver/Src/stm32f4xx_hal_dma.c ****       hdma->ErrorCode |= HAL_DMA_ERROR_FE;
 1126              		.loc 1 685 23
 1127 00f4 FB68     		ldr	r3, [r7, #12]
 1128 00f6 5B6D     		ldr	r3, [r3, #84]
 1129 00f8 43F00202 		orr	r2, r3, #2
 1130 00fc FB68     		ldr	r3, [r7, #12]
 1131 00fe 5A65     		str	r2, [r3, #84]
 686:Drivers/STM32F4xx_HAL_Driver/Src/stm32f4xx_hal_dma.c ****       
 687:Drivers/STM32F4xx_HAL_Driver/Src/stm32f4xx_hal_dma.c ****       /* Clear the FIFO error flag */
 688:Drivers/STM32F4xx_HAL_Driver/Src/stm32f4xx_hal_dma.c ****       regs->IFCR = DMA_FLAG_FEIF0_4 << hdma->StreamIndex;
 1132              		.loc 1 688 44
 1133 0100 FB68     		ldr	r3, [r7, #12]
 1134 0102 DB6D     		ldr	r3, [r3, #92]
 1135              		.loc 1 688 37
 1136 0104 0122     		movs	r2, #1
 1137 0106 9A40     		lsls	r2, r2, r3
ARM GAS  C:\Users\EI\AppData\Local\Temp\ccZQ2WtN.s 			page 33


 1138              		.loc 1 688 18
 1139 0108 7B69     		ldr	r3, [r7, #20]
 1140 010a 9A60     		str	r2, [r3, #8]
 1141              	.L45:
 689:Drivers/STM32F4xx_HAL_Driver/Src/stm32f4xx_hal_dma.c ****     }
 690:Drivers/STM32F4xx_HAL_Driver/Src/stm32f4xx_hal_dma.c ****     
 691:Drivers/STM32F4xx_HAL_Driver/Src/stm32f4xx_hal_dma.c ****     if((tmpisr & (DMA_FLAG_DMEIF0_4 << hdma->StreamIndex)) != RESET)
 1142              		.loc 1 691 44
 1143 010c FB68     		ldr	r3, [r7, #12]
 1144 010e DB6D     		ldr	r3, [r3, #92]
 1145              		.loc 1 691 37
 1146 0110 0422     		movs	r2, #4
 1147 0112 9A40     		lsls	r2, r2, r3
 1148              		.loc 1 691 16
 1149 0114 3B6A     		ldr	r3, [r7, #32]
 1150 0116 1340     		ands	r3, r3, r2
 1151              		.loc 1 691 7
 1152 0118 002B     		cmp	r3, #0
 1153 011a 0BD0     		beq	.L41
 692:Drivers/STM32F4xx_HAL_Driver/Src/stm32f4xx_hal_dma.c ****     {
 693:Drivers/STM32F4xx_HAL_Driver/Src/stm32f4xx_hal_dma.c ****       /* Update error code */
 694:Drivers/STM32F4xx_HAL_Driver/Src/stm32f4xx_hal_dma.c ****       hdma->ErrorCode |= HAL_DMA_ERROR_DME;
 1154              		.loc 1 694 23
 1155 011c FB68     		ldr	r3, [r7, #12]
 1156 011e 5B6D     		ldr	r3, [r3, #84]
 1157 0120 43F00402 		orr	r2, r3, #4
 1158 0124 FB68     		ldr	r3, [r7, #12]
 1159 0126 5A65     		str	r2, [r3, #84]
 695:Drivers/STM32F4xx_HAL_Driver/Src/stm32f4xx_hal_dma.c ****       
 696:Drivers/STM32F4xx_HAL_Driver/Src/stm32f4xx_hal_dma.c ****       /* Clear the Direct Mode error flag */
 697:Drivers/STM32F4xx_HAL_Driver/Src/stm32f4xx_hal_dma.c ****       regs->IFCR = DMA_FLAG_DMEIF0_4 << hdma->StreamIndex;
 1160              		.loc 1 697 45
 1161 0128 FB68     		ldr	r3, [r7, #12]
 1162 012a DB6D     		ldr	r3, [r3, #92]
 1163              		.loc 1 697 38
 1164 012c 0422     		movs	r2, #4
 1165 012e 9A40     		lsls	r2, r2, r3
 1166              		.loc 1 697 18
 1167 0130 7B69     		ldr	r3, [r7, #20]
 1168 0132 9A60     		str	r2, [r3, #8]
 1169              	.L41:
 650:Drivers/STM32F4xx_HAL_Driver/Src/stm32f4xx_hal_dma.c ****   {
 1170              		.loc 1 650 18
 1171 0134 3A6A     		ldr	r2, [r7, #32]
 1172 0136 7B6A     		ldr	r3, [r7, #36]
 1173 0138 1340     		ands	r3, r3, r2
 650:Drivers/STM32F4xx_HAL_Driver/Src/stm32f4xx_hal_dma.c ****   {
 1174              		.loc 1 650 8
 1175 013a 002B     		cmp	r3, #0
 1176 013c 05D1     		bne	.L46
 650:Drivers/STM32F4xx_HAL_Driver/Src/stm32f4xx_hal_dma.c ****   {
 1177              		.loc 1 650 55 discriminator 1
 1178 013e FB68     		ldr	r3, [r7, #12]
 1179 0140 5B6D     		ldr	r3, [r3, #84]
 650:Drivers/STM32F4xx_HAL_Driver/Src/stm32f4xx_hal_dma.c ****   {
 1180              		.loc 1 650 67 discriminator 1
 1181 0142 03F00103 		and	r3, r3, #1
ARM GAS  C:\Users\EI\AppData\Local\Temp\ccZQ2WtN.s 			page 34


 650:Drivers/STM32F4xx_HAL_Driver/Src/stm32f4xx_hal_dma.c ****   {
 1182              		.loc 1 650 46 discriminator 1
 1183 0146 002B     		cmp	r3, #0
 1184 0148 99D0     		beq	.L47
 1185              	.L46:
 698:Drivers/STM32F4xx_HAL_Driver/Src/stm32f4xx_hal_dma.c ****     }
 699:Drivers/STM32F4xx_HAL_Driver/Src/stm32f4xx_hal_dma.c ****   }
 700:Drivers/STM32F4xx_HAL_Driver/Src/stm32f4xx_hal_dma.c ****   
 701:Drivers/STM32F4xx_HAL_Driver/Src/stm32f4xx_hal_dma.c ****   if(hdma->ErrorCode != HAL_DMA_ERROR_NONE)
 1186              		.loc 1 701 10
 1187 014a FB68     		ldr	r3, [r7, #12]
 1188 014c 5B6D     		ldr	r3, [r3, #84]
 1189              		.loc 1 701 5
 1190 014e 002B     		cmp	r3, #0
 1191 0150 18D0     		beq	.L48
 702:Drivers/STM32F4xx_HAL_Driver/Src/stm32f4xx_hal_dma.c ****   {
 703:Drivers/STM32F4xx_HAL_Driver/Src/stm32f4xx_hal_dma.c ****     if((hdma->ErrorCode & HAL_DMA_ERROR_TE) != RESET)
 1192              		.loc 1 703 13
 1193 0152 FB68     		ldr	r3, [r7, #12]
 1194 0154 5B6D     		ldr	r3, [r3, #84]
 1195              		.loc 1 703 25
 1196 0156 03F00103 		and	r3, r3, #1
 1197              		.loc 1 703 7
 1198 015a 002B     		cmp	r3, #0
 1199 015c 12D0     		beq	.L48
 704:Drivers/STM32F4xx_HAL_Driver/Src/stm32f4xx_hal_dma.c ****     {
 705:Drivers/STM32F4xx_HAL_Driver/Src/stm32f4xx_hal_dma.c ****       HAL_DMA_Abort(hdma);
 1200              		.loc 1 705 7
 1201 015e F868     		ldr	r0, [r7, #12]
 1202 0160 FFF7FEFF 		bl	HAL_DMA_Abort
 706:Drivers/STM32F4xx_HAL_Driver/Src/stm32f4xx_hal_dma.c ****     
 707:Drivers/STM32F4xx_HAL_Driver/Src/stm32f4xx_hal_dma.c ****       /* Clear the half transfer and transfer complete flags */
 708:Drivers/STM32F4xx_HAL_Driver/Src/stm32f4xx_hal_dma.c ****       regs->IFCR = (DMA_FLAG_HTIF0_4 | DMA_FLAG_TCIF0_4) << hdma->StreamIndex;
 1203              		.loc 1 708 65
 1204 0164 FB68     		ldr	r3, [r7, #12]
 1205 0166 DB6D     		ldr	r3, [r3, #92]
 1206              		.loc 1 708 58
 1207 0168 3022     		movs	r2, #48
 1208 016a 9A40     		lsls	r2, r2, r3
 1209              		.loc 1 708 18
 1210 016c 7B69     		ldr	r3, [r7, #20]
 1211 016e 9A60     		str	r2, [r3, #8]
 709:Drivers/STM32F4xx_HAL_Driver/Src/stm32f4xx_hal_dma.c ****     
 710:Drivers/STM32F4xx_HAL_Driver/Src/stm32f4xx_hal_dma.c ****       /* Change the DMA state */
 711:Drivers/STM32F4xx_HAL_Driver/Src/stm32f4xx_hal_dma.c ****       hdma->State= HAL_DMA_STATE_READY;
 1212              		.loc 1 711 18
 1213 0170 FB68     		ldr	r3, [r7, #12]
 1214 0172 0122     		movs	r2, #1
 1215 0174 83F83520 		strb	r2, [r3, #53]
 712:Drivers/STM32F4xx_HAL_Driver/Src/stm32f4xx_hal_dma.c **** 
 713:Drivers/STM32F4xx_HAL_Driver/Src/stm32f4xx_hal_dma.c ****       /* Process Unlocked */
 714:Drivers/STM32F4xx_HAL_Driver/Src/stm32f4xx_hal_dma.c ****       __HAL_UNLOCK(hdma);
 1216              		.loc 1 714 7
 1217 0178 FB68     		ldr	r3, [r7, #12]
 1218 017a 0022     		movs	r2, #0
 1219 017c 83F83420 		strb	r2, [r3, #52]
 715:Drivers/STM32F4xx_HAL_Driver/Src/stm32f4xx_hal_dma.c **** 
ARM GAS  C:\Users\EI\AppData\Local\Temp\ccZQ2WtN.s 			page 35


 716:Drivers/STM32F4xx_HAL_Driver/Src/stm32f4xx_hal_dma.c ****       return HAL_ERROR;
 1220              		.loc 1 716 14
 1221 0180 0123     		movs	r3, #1
 1222 0182 18E0     		b	.L37
 1223              	.L48:
 717:Drivers/STM32F4xx_HAL_Driver/Src/stm32f4xx_hal_dma.c ****    }
 718:Drivers/STM32F4xx_HAL_Driver/Src/stm32f4xx_hal_dma.c ****   }
 719:Drivers/STM32F4xx_HAL_Driver/Src/stm32f4xx_hal_dma.c ****   
 720:Drivers/STM32F4xx_HAL_Driver/Src/stm32f4xx_hal_dma.c ****   /* Get the level transfer complete flag */
 721:Drivers/STM32F4xx_HAL_Driver/Src/stm32f4xx_hal_dma.c ****   if(CompleteLevel == HAL_DMA_FULL_TRANSFER)
 1224              		.loc 1 721 5
 1225 0184 FB7A     		ldrb	r3, [r7, #11]	@ zero_extendqisi2
 1226 0186 002B     		cmp	r3, #0
 1227 0188 0ED1     		bne	.L49
 722:Drivers/STM32F4xx_HAL_Driver/Src/stm32f4xx_hal_dma.c ****   {
 723:Drivers/STM32F4xx_HAL_Driver/Src/stm32f4xx_hal_dma.c ****     /* Clear the half transfer and transfer complete flags */
 724:Drivers/STM32F4xx_HAL_Driver/Src/stm32f4xx_hal_dma.c ****     regs->IFCR = (DMA_FLAG_HTIF0_4 | DMA_FLAG_TCIF0_4) << hdma->StreamIndex;
 1228              		.loc 1 724 63
 1229 018a FB68     		ldr	r3, [r7, #12]
 1230 018c DB6D     		ldr	r3, [r3, #92]
 1231              		.loc 1 724 56
 1232 018e 3022     		movs	r2, #48
 1233 0190 9A40     		lsls	r2, r2, r3
 1234              		.loc 1 724 16
 1235 0192 7B69     		ldr	r3, [r7, #20]
 1236 0194 9A60     		str	r2, [r3, #8]
 725:Drivers/STM32F4xx_HAL_Driver/Src/stm32f4xx_hal_dma.c ****     
 726:Drivers/STM32F4xx_HAL_Driver/Src/stm32f4xx_hal_dma.c ****     hdma->State = HAL_DMA_STATE_READY;
 1237              		.loc 1 726 17
 1238 0196 FB68     		ldr	r3, [r7, #12]
 1239 0198 0122     		movs	r2, #1
 1240 019a 83F83520 		strb	r2, [r3, #53]
 727:Drivers/STM32F4xx_HAL_Driver/Src/stm32f4xx_hal_dma.c ****     
 728:Drivers/STM32F4xx_HAL_Driver/Src/stm32f4xx_hal_dma.c ****     /* Process Unlocked */
 729:Drivers/STM32F4xx_HAL_Driver/Src/stm32f4xx_hal_dma.c ****     __HAL_UNLOCK(hdma);
 1241              		.loc 1 729 5
 1242 019e FB68     		ldr	r3, [r7, #12]
 1243 01a0 0022     		movs	r2, #0
 1244 01a2 83F83420 		strb	r2, [r3, #52]
 1245 01a6 05E0     		b	.L50
 1246              	.L49:
 730:Drivers/STM32F4xx_HAL_Driver/Src/stm32f4xx_hal_dma.c ****   }
 731:Drivers/STM32F4xx_HAL_Driver/Src/stm32f4xx_hal_dma.c ****   else
 732:Drivers/STM32F4xx_HAL_Driver/Src/stm32f4xx_hal_dma.c ****   {
 733:Drivers/STM32F4xx_HAL_Driver/Src/stm32f4xx_hal_dma.c ****     /* Clear the half transfer and transfer complete flags */
 734:Drivers/STM32F4xx_HAL_Driver/Src/stm32f4xx_hal_dma.c ****     regs->IFCR = (DMA_FLAG_HTIF0_4) << hdma->StreamIndex;
 1247              		.loc 1 734 44
 1248 01a8 FB68     		ldr	r3, [r7, #12]
 1249 01aa DB6D     		ldr	r3, [r3, #92]
 1250              		.loc 1 734 37
 1251 01ac 1022     		movs	r2, #16
 1252 01ae 9A40     		lsls	r2, r2, r3
 1253              		.loc 1 734 16
 1254 01b0 7B69     		ldr	r3, [r7, #20]
 1255 01b2 9A60     		str	r2, [r3, #8]
 1256              	.L50:
 735:Drivers/STM32F4xx_HAL_Driver/Src/stm32f4xx_hal_dma.c ****   }
ARM GAS  C:\Users\EI\AppData\Local\Temp\ccZQ2WtN.s 			page 36


 736:Drivers/STM32F4xx_HAL_Driver/Src/stm32f4xx_hal_dma.c ****   
 737:Drivers/STM32F4xx_HAL_Driver/Src/stm32f4xx_hal_dma.c ****   return status;
 1257              		.loc 1 737 10
 1258 01b4 FB7F     		ldrb	r3, [r7, #31]	@ zero_extendqisi2
 1259              	.L37:
 738:Drivers/STM32F4xx_HAL_Driver/Src/stm32f4xx_hal_dma.c **** }
 1260              		.loc 1 738 1
 1261 01b6 1846     		mov	r0, r3
 1262 01b8 2837     		adds	r7, r7, #40
 1263              	.LCFI34:
 1264              		.cfi_def_cfa_offset 8
 1265 01ba BD46     		mov	sp, r7
 1266              	.LCFI35:
 1267              		.cfi_def_cfa_register 13
 1268              		@ sp needed
 1269 01bc 80BD     		pop	{r7, pc}
 1270              		.cfi_endproc
 1271              	.LFE222:
 1273              		.section	.text.HAL_DMA_IRQHandler,"ax",%progbits
 1274              		.align	1
 1275              		.global	HAL_DMA_IRQHandler
 1276              		.syntax unified
 1277              		.thumb
 1278              		.thumb_func
 1279              		.fpu fpv4-sp-d16
 1281              	HAL_DMA_IRQHandler:
 1282              	.LFB223:
 739:Drivers/STM32F4xx_HAL_Driver/Src/stm32f4xx_hal_dma.c **** 
 740:Drivers/STM32F4xx_HAL_Driver/Src/stm32f4xx_hal_dma.c **** /**
 741:Drivers/STM32F4xx_HAL_Driver/Src/stm32f4xx_hal_dma.c ****   * @brief  Handles DMA interrupt request.
 742:Drivers/STM32F4xx_HAL_Driver/Src/stm32f4xx_hal_dma.c ****   * @param  hdma pointer to a DMA_HandleTypeDef structure that contains
 743:Drivers/STM32F4xx_HAL_Driver/Src/stm32f4xx_hal_dma.c ****   *               the configuration information for the specified DMA Stream.  
 744:Drivers/STM32F4xx_HAL_Driver/Src/stm32f4xx_hal_dma.c ****   * @retval None
 745:Drivers/STM32F4xx_HAL_Driver/Src/stm32f4xx_hal_dma.c ****   */
 746:Drivers/STM32F4xx_HAL_Driver/Src/stm32f4xx_hal_dma.c **** void HAL_DMA_IRQHandler(DMA_HandleTypeDef *hdma)
 747:Drivers/STM32F4xx_HAL_Driver/Src/stm32f4xx_hal_dma.c **** {
 1283              		.loc 1 747 1
 1284              		.cfi_startproc
 1285              		@ args = 0, pretend = 0, frame = 24
 1286              		@ frame_needed = 1, uses_anonymous_args = 0
 1287 0000 80B5     		push	{r7, lr}
 1288              	.LCFI36:
 1289              		.cfi_def_cfa_offset 8
 1290              		.cfi_offset 7, -8
 1291              		.cfi_offset 14, -4
 1292 0002 86B0     		sub	sp, sp, #24
 1293              	.LCFI37:
 1294              		.cfi_def_cfa_offset 32
 1295 0004 00AF     		add	r7, sp, #0
 1296              	.LCFI38:
 1297              		.cfi_def_cfa_register 7
 1298 0006 7860     		str	r0, [r7, #4]
 748:Drivers/STM32F4xx_HAL_Driver/Src/stm32f4xx_hal_dma.c ****   uint32_t tmpisr;
 749:Drivers/STM32F4xx_HAL_Driver/Src/stm32f4xx_hal_dma.c ****   __IO uint32_t count = 0U;
 1299              		.loc 1 749 17
 1300 0008 0023     		movs	r3, #0
 1301 000a BB60     		str	r3, [r7, #8]
ARM GAS  C:\Users\EI\AppData\Local\Temp\ccZQ2WtN.s 			page 37


 750:Drivers/STM32F4xx_HAL_Driver/Src/stm32f4xx_hal_dma.c ****   uint32_t timeout = SystemCoreClock / 9600U;
 1302              		.loc 1 750 38
 1303 000c 8E4B     		ldr	r3, .L74
 1304 000e 1B68     		ldr	r3, [r3]
 1305              		.loc 1 750 12
 1306 0010 8E4A     		ldr	r2, .L74+4
 1307 0012 A2FB0323 		umull	r2, r3, r2, r3
 1308 0016 9B0A     		lsrs	r3, r3, #10
 1309 0018 7B61     		str	r3, [r7, #20]
 751:Drivers/STM32F4xx_HAL_Driver/Src/stm32f4xx_hal_dma.c **** 
 752:Drivers/STM32F4xx_HAL_Driver/Src/stm32f4xx_hal_dma.c ****   /* calculate DMA base and stream number */
 753:Drivers/STM32F4xx_HAL_Driver/Src/stm32f4xx_hal_dma.c ****   DMA_Base_Registers *regs = (DMA_Base_Registers *)hdma->StreamBaseAddress;
 1310              		.loc 1 753 56
 1311 001a 7B68     		ldr	r3, [r7, #4]
 1312 001c 9B6D     		ldr	r3, [r3, #88]
 1313              		.loc 1 753 23
 1314 001e 3B61     		str	r3, [r7, #16]
 754:Drivers/STM32F4xx_HAL_Driver/Src/stm32f4xx_hal_dma.c **** 
 755:Drivers/STM32F4xx_HAL_Driver/Src/stm32f4xx_hal_dma.c ****   tmpisr = regs->ISR;
 1315              		.loc 1 755 10
 1316 0020 3B69     		ldr	r3, [r7, #16]
 1317 0022 1B68     		ldr	r3, [r3]
 1318 0024 FB60     		str	r3, [r7, #12]
 756:Drivers/STM32F4xx_HAL_Driver/Src/stm32f4xx_hal_dma.c **** 
 757:Drivers/STM32F4xx_HAL_Driver/Src/stm32f4xx_hal_dma.c ****   /* Transfer Error Interrupt management ***************************************/
 758:Drivers/STM32F4xx_HAL_Driver/Src/stm32f4xx_hal_dma.c ****   if ((tmpisr & (DMA_FLAG_TEIF0_4 << hdma->StreamIndex)) != RESET)
 1319              		.loc 1 758 42
 1320 0026 7B68     		ldr	r3, [r7, #4]
 1321 0028 DB6D     		ldr	r3, [r3, #92]
 1322              		.loc 1 758 35
 1323 002a 0822     		movs	r2, #8
 1324 002c 9A40     		lsls	r2, r2, r3
 1325              		.loc 1 758 15
 1326 002e FB68     		ldr	r3, [r7, #12]
 1327 0030 1340     		ands	r3, r3, r2
 1328              		.loc 1 758 6
 1329 0032 002B     		cmp	r3, #0
 1330 0034 1AD0     		beq	.L52
 759:Drivers/STM32F4xx_HAL_Driver/Src/stm32f4xx_hal_dma.c ****   {
 760:Drivers/STM32F4xx_HAL_Driver/Src/stm32f4xx_hal_dma.c ****     if(__HAL_DMA_GET_IT_SOURCE(hdma, DMA_IT_TE) != RESET)
 1331              		.loc 1 760 8
 1332 0036 7B68     		ldr	r3, [r7, #4]
 1333 0038 1B68     		ldr	r3, [r3]
 1334 003a 1B68     		ldr	r3, [r3]
 1335 003c 03F00403 		and	r3, r3, #4
 1336              		.loc 1 760 7
 1337 0040 002B     		cmp	r3, #0
 1338 0042 13D0     		beq	.L52
 761:Drivers/STM32F4xx_HAL_Driver/Src/stm32f4xx_hal_dma.c ****     {
 762:Drivers/STM32F4xx_HAL_Driver/Src/stm32f4xx_hal_dma.c ****       /* Disable the transfer error interrupt */
 763:Drivers/STM32F4xx_HAL_Driver/Src/stm32f4xx_hal_dma.c ****       hdma->Instance->CR  &= ~(DMA_IT_TE);
 1339              		.loc 1 763 11
 1340 0044 7B68     		ldr	r3, [r7, #4]
 1341 0046 1B68     		ldr	r3, [r3]
 1342              		.loc 1 763 27
 1343 0048 1A68     		ldr	r2, [r3]
 1344              		.loc 1 763 11
ARM GAS  C:\Users\EI\AppData\Local\Temp\ccZQ2WtN.s 			page 38


 1345 004a 7B68     		ldr	r3, [r7, #4]
 1346 004c 1B68     		ldr	r3, [r3]
 1347              		.loc 1 763 27
 1348 004e 22F00402 		bic	r2, r2, #4
 1349 0052 1A60     		str	r2, [r3]
 764:Drivers/STM32F4xx_HAL_Driver/Src/stm32f4xx_hal_dma.c ****       
 765:Drivers/STM32F4xx_HAL_Driver/Src/stm32f4xx_hal_dma.c ****       /* Clear the transfer error flag */
 766:Drivers/STM32F4xx_HAL_Driver/Src/stm32f4xx_hal_dma.c ****       regs->IFCR = DMA_FLAG_TEIF0_4 << hdma->StreamIndex;
 1350              		.loc 1 766 44
 1351 0054 7B68     		ldr	r3, [r7, #4]
 1352 0056 DB6D     		ldr	r3, [r3, #92]
 1353              		.loc 1 766 37
 1354 0058 0822     		movs	r2, #8
 1355 005a 9A40     		lsls	r2, r2, r3
 1356              		.loc 1 766 18
 1357 005c 3B69     		ldr	r3, [r7, #16]
 1358 005e 9A60     		str	r2, [r3, #8]
 767:Drivers/STM32F4xx_HAL_Driver/Src/stm32f4xx_hal_dma.c ****       
 768:Drivers/STM32F4xx_HAL_Driver/Src/stm32f4xx_hal_dma.c ****       /* Update error code */
 769:Drivers/STM32F4xx_HAL_Driver/Src/stm32f4xx_hal_dma.c ****       hdma->ErrorCode |= HAL_DMA_ERROR_TE;
 1359              		.loc 1 769 23
 1360 0060 7B68     		ldr	r3, [r7, #4]
 1361 0062 5B6D     		ldr	r3, [r3, #84]
 1362 0064 43F00102 		orr	r2, r3, #1
 1363 0068 7B68     		ldr	r3, [r7, #4]
 1364 006a 5A65     		str	r2, [r3, #84]
 1365              	.L52:
 770:Drivers/STM32F4xx_HAL_Driver/Src/stm32f4xx_hal_dma.c ****     }
 771:Drivers/STM32F4xx_HAL_Driver/Src/stm32f4xx_hal_dma.c ****   }
 772:Drivers/STM32F4xx_HAL_Driver/Src/stm32f4xx_hal_dma.c ****   /* FIFO Error Interrupt management ******************************************/
 773:Drivers/STM32F4xx_HAL_Driver/Src/stm32f4xx_hal_dma.c ****   if ((tmpisr & (DMA_FLAG_FEIF0_4 << hdma->StreamIndex)) != RESET)
 1366              		.loc 1 773 42
 1367 006c 7B68     		ldr	r3, [r7, #4]
 1368 006e DB6D     		ldr	r3, [r3, #92]
 1369              		.loc 1 773 35
 1370 0070 0122     		movs	r2, #1
 1371 0072 9A40     		lsls	r2, r2, r3
 1372              		.loc 1 773 15
 1373 0074 FB68     		ldr	r3, [r7, #12]
 1374 0076 1340     		ands	r3, r3, r2
 1375              		.loc 1 773 6
 1376 0078 002B     		cmp	r3, #0
 1377 007a 12D0     		beq	.L53
 774:Drivers/STM32F4xx_HAL_Driver/Src/stm32f4xx_hal_dma.c ****   {
 775:Drivers/STM32F4xx_HAL_Driver/Src/stm32f4xx_hal_dma.c ****     if(__HAL_DMA_GET_IT_SOURCE(hdma, DMA_IT_FE) != RESET)
 1378              		.loc 1 775 8
 1379 007c 7B68     		ldr	r3, [r7, #4]
 1380 007e 1B68     		ldr	r3, [r3]
 1381 0080 5B69     		ldr	r3, [r3, #20]
 1382 0082 03F08003 		and	r3, r3, #128
 1383              		.loc 1 775 7
 1384 0086 002B     		cmp	r3, #0
 1385 0088 0BD0     		beq	.L53
 776:Drivers/STM32F4xx_HAL_Driver/Src/stm32f4xx_hal_dma.c ****     {
 777:Drivers/STM32F4xx_HAL_Driver/Src/stm32f4xx_hal_dma.c ****       /* Clear the FIFO error flag */
 778:Drivers/STM32F4xx_HAL_Driver/Src/stm32f4xx_hal_dma.c ****       regs->IFCR = DMA_FLAG_FEIF0_4 << hdma->StreamIndex;
 1386              		.loc 1 778 44
ARM GAS  C:\Users\EI\AppData\Local\Temp\ccZQ2WtN.s 			page 39


 1387 008a 7B68     		ldr	r3, [r7, #4]
 1388 008c DB6D     		ldr	r3, [r3, #92]
 1389              		.loc 1 778 37
 1390 008e 0122     		movs	r2, #1
 1391 0090 9A40     		lsls	r2, r2, r3
 1392              		.loc 1 778 18
 1393 0092 3B69     		ldr	r3, [r7, #16]
 1394 0094 9A60     		str	r2, [r3, #8]
 779:Drivers/STM32F4xx_HAL_Driver/Src/stm32f4xx_hal_dma.c **** 
 780:Drivers/STM32F4xx_HAL_Driver/Src/stm32f4xx_hal_dma.c ****       /* Update error code */
 781:Drivers/STM32F4xx_HAL_Driver/Src/stm32f4xx_hal_dma.c ****       hdma->ErrorCode |= HAL_DMA_ERROR_FE;
 1395              		.loc 1 781 23
 1396 0096 7B68     		ldr	r3, [r7, #4]
 1397 0098 5B6D     		ldr	r3, [r3, #84]
 1398 009a 43F00202 		orr	r2, r3, #2
 1399 009e 7B68     		ldr	r3, [r7, #4]
 1400 00a0 5A65     		str	r2, [r3, #84]
 1401              	.L53:
 782:Drivers/STM32F4xx_HAL_Driver/Src/stm32f4xx_hal_dma.c ****     }
 783:Drivers/STM32F4xx_HAL_Driver/Src/stm32f4xx_hal_dma.c ****   }
 784:Drivers/STM32F4xx_HAL_Driver/Src/stm32f4xx_hal_dma.c ****   /* Direct Mode Error Interrupt management ***********************************/
 785:Drivers/STM32F4xx_HAL_Driver/Src/stm32f4xx_hal_dma.c ****   if ((tmpisr & (DMA_FLAG_DMEIF0_4 << hdma->StreamIndex)) != RESET)
 1402              		.loc 1 785 43
 1403 00a2 7B68     		ldr	r3, [r7, #4]
 1404 00a4 DB6D     		ldr	r3, [r3, #92]
 1405              		.loc 1 785 36
 1406 00a6 0422     		movs	r2, #4
 1407 00a8 9A40     		lsls	r2, r2, r3
 1408              		.loc 1 785 15
 1409 00aa FB68     		ldr	r3, [r7, #12]
 1410 00ac 1340     		ands	r3, r3, r2
 1411              		.loc 1 785 6
 1412 00ae 002B     		cmp	r3, #0
 1413 00b0 12D0     		beq	.L54
 786:Drivers/STM32F4xx_HAL_Driver/Src/stm32f4xx_hal_dma.c ****   {
 787:Drivers/STM32F4xx_HAL_Driver/Src/stm32f4xx_hal_dma.c ****     if(__HAL_DMA_GET_IT_SOURCE(hdma, DMA_IT_DME) != RESET)
 1414              		.loc 1 787 8
 1415 00b2 7B68     		ldr	r3, [r7, #4]
 1416 00b4 1B68     		ldr	r3, [r3]
 1417 00b6 1B68     		ldr	r3, [r3]
 1418 00b8 03F00203 		and	r3, r3, #2
 1419              		.loc 1 787 7
 1420 00bc 002B     		cmp	r3, #0
 1421 00be 0BD0     		beq	.L54
 788:Drivers/STM32F4xx_HAL_Driver/Src/stm32f4xx_hal_dma.c ****     {
 789:Drivers/STM32F4xx_HAL_Driver/Src/stm32f4xx_hal_dma.c ****       /* Clear the direct mode error flag */
 790:Drivers/STM32F4xx_HAL_Driver/Src/stm32f4xx_hal_dma.c ****       regs->IFCR = DMA_FLAG_DMEIF0_4 << hdma->StreamIndex;
 1422              		.loc 1 790 45
 1423 00c0 7B68     		ldr	r3, [r7, #4]
 1424 00c2 DB6D     		ldr	r3, [r3, #92]
 1425              		.loc 1 790 38
 1426 00c4 0422     		movs	r2, #4
 1427 00c6 9A40     		lsls	r2, r2, r3
 1428              		.loc 1 790 18
 1429 00c8 3B69     		ldr	r3, [r7, #16]
 1430 00ca 9A60     		str	r2, [r3, #8]
 791:Drivers/STM32F4xx_HAL_Driver/Src/stm32f4xx_hal_dma.c **** 
ARM GAS  C:\Users\EI\AppData\Local\Temp\ccZQ2WtN.s 			page 40


 792:Drivers/STM32F4xx_HAL_Driver/Src/stm32f4xx_hal_dma.c ****       /* Update error code */
 793:Drivers/STM32F4xx_HAL_Driver/Src/stm32f4xx_hal_dma.c ****       hdma->ErrorCode |= HAL_DMA_ERROR_DME;
 1431              		.loc 1 793 23
 1432 00cc 7B68     		ldr	r3, [r7, #4]
 1433 00ce 5B6D     		ldr	r3, [r3, #84]
 1434 00d0 43F00402 		orr	r2, r3, #4
 1435 00d4 7B68     		ldr	r3, [r7, #4]
 1436 00d6 5A65     		str	r2, [r3, #84]
 1437              	.L54:
 794:Drivers/STM32F4xx_HAL_Driver/Src/stm32f4xx_hal_dma.c ****     }
 795:Drivers/STM32F4xx_HAL_Driver/Src/stm32f4xx_hal_dma.c ****   }
 796:Drivers/STM32F4xx_HAL_Driver/Src/stm32f4xx_hal_dma.c ****   /* Half Transfer Complete Interrupt management ******************************/
 797:Drivers/STM32F4xx_HAL_Driver/Src/stm32f4xx_hal_dma.c ****   if ((tmpisr & (DMA_FLAG_HTIF0_4 << hdma->StreamIndex)) != RESET)
 1438              		.loc 1 797 42
 1439 00d8 7B68     		ldr	r3, [r7, #4]
 1440 00da DB6D     		ldr	r3, [r3, #92]
 1441              		.loc 1 797 35
 1442 00dc 1022     		movs	r2, #16
 1443 00de 9A40     		lsls	r2, r2, r3
 1444              		.loc 1 797 15
 1445 00e0 FB68     		ldr	r3, [r7, #12]
 1446 00e2 1340     		ands	r3, r3, r2
 1447              		.loc 1 797 6
 1448 00e4 002B     		cmp	r3, #0
 1449 00e6 43D0     		beq	.L55
 798:Drivers/STM32F4xx_HAL_Driver/Src/stm32f4xx_hal_dma.c ****   {
 799:Drivers/STM32F4xx_HAL_Driver/Src/stm32f4xx_hal_dma.c ****     if(__HAL_DMA_GET_IT_SOURCE(hdma, DMA_IT_HT) != RESET)
 1450              		.loc 1 799 8
 1451 00e8 7B68     		ldr	r3, [r7, #4]
 1452 00ea 1B68     		ldr	r3, [r3]
 1453 00ec 1B68     		ldr	r3, [r3]
 1454 00ee 03F00803 		and	r3, r3, #8
 1455              		.loc 1 799 7
 1456 00f2 002B     		cmp	r3, #0
 1457 00f4 3CD0     		beq	.L55
 800:Drivers/STM32F4xx_HAL_Driver/Src/stm32f4xx_hal_dma.c ****     {
 801:Drivers/STM32F4xx_HAL_Driver/Src/stm32f4xx_hal_dma.c ****       /* Clear the half transfer complete flag */
 802:Drivers/STM32F4xx_HAL_Driver/Src/stm32f4xx_hal_dma.c ****       regs->IFCR = DMA_FLAG_HTIF0_4 << hdma->StreamIndex;
 1458              		.loc 1 802 44
 1459 00f6 7B68     		ldr	r3, [r7, #4]
 1460 00f8 DB6D     		ldr	r3, [r3, #92]
 1461              		.loc 1 802 37
 1462 00fa 1022     		movs	r2, #16
 1463 00fc 9A40     		lsls	r2, r2, r3
 1464              		.loc 1 802 18
 1465 00fe 3B69     		ldr	r3, [r7, #16]
 1466 0100 9A60     		str	r2, [r3, #8]
 803:Drivers/STM32F4xx_HAL_Driver/Src/stm32f4xx_hal_dma.c ****       
 804:Drivers/STM32F4xx_HAL_Driver/Src/stm32f4xx_hal_dma.c ****       /* Multi_Buffering mode enabled */
 805:Drivers/STM32F4xx_HAL_Driver/Src/stm32f4xx_hal_dma.c ****       if(((hdma->Instance->CR) & (uint32_t)(DMA_SxCR_DBM)) != RESET)
 1467              		.loc 1 805 16
 1468 0102 7B68     		ldr	r3, [r7, #4]
 1469 0104 1B68     		ldr	r3, [r3]
 1470              		.loc 1 805 26
 1471 0106 1B68     		ldr	r3, [r3]
 1472              		.loc 1 805 32
 1473 0108 03F48023 		and	r3, r3, #262144
ARM GAS  C:\Users\EI\AppData\Local\Temp\ccZQ2WtN.s 			page 41


 1474              		.loc 1 805 9
 1475 010c 002B     		cmp	r3, #0
 1476 010e 18D0     		beq	.L56
 806:Drivers/STM32F4xx_HAL_Driver/Src/stm32f4xx_hal_dma.c ****       {
 807:Drivers/STM32F4xx_HAL_Driver/Src/stm32f4xx_hal_dma.c ****         /* Current memory buffer used is Memory 0 */
 808:Drivers/STM32F4xx_HAL_Driver/Src/stm32f4xx_hal_dma.c ****         if((hdma->Instance->CR & DMA_SxCR_CT) == RESET)
 1477              		.loc 1 808 17
 1478 0110 7B68     		ldr	r3, [r7, #4]
 1479 0112 1B68     		ldr	r3, [r3]
 1480              		.loc 1 808 27
 1481 0114 1B68     		ldr	r3, [r3]
 1482              		.loc 1 808 32
 1483 0116 03F40023 		and	r3, r3, #524288
 1484              		.loc 1 808 11
 1485 011a 002B     		cmp	r3, #0
 1486 011c 08D1     		bne	.L57
 809:Drivers/STM32F4xx_HAL_Driver/Src/stm32f4xx_hal_dma.c ****         {
 810:Drivers/STM32F4xx_HAL_Driver/Src/stm32f4xx_hal_dma.c ****           if(hdma->XferHalfCpltCallback != NULL)
 1487              		.loc 1 810 18
 1488 011e 7B68     		ldr	r3, [r7, #4]
 1489 0120 1B6C     		ldr	r3, [r3, #64]
 1490              		.loc 1 810 13
 1491 0122 002B     		cmp	r3, #0
 1492 0124 24D0     		beq	.L55
 811:Drivers/STM32F4xx_HAL_Driver/Src/stm32f4xx_hal_dma.c ****           {
 812:Drivers/STM32F4xx_HAL_Driver/Src/stm32f4xx_hal_dma.c ****             /* Half transfer callback */
 813:Drivers/STM32F4xx_HAL_Driver/Src/stm32f4xx_hal_dma.c ****             hdma->XferHalfCpltCallback(hdma);
 1493              		.loc 1 813 17
 1494 0126 7B68     		ldr	r3, [r7, #4]
 1495 0128 1B6C     		ldr	r3, [r3, #64]
 1496              		.loc 1 813 13
 1497 012a 7868     		ldr	r0, [r7, #4]
 1498 012c 9847     		blx	r3
 1499              	.LVL0:
 1500 012e 1FE0     		b	.L55
 1501              	.L57:
 814:Drivers/STM32F4xx_HAL_Driver/Src/stm32f4xx_hal_dma.c ****           }
 815:Drivers/STM32F4xx_HAL_Driver/Src/stm32f4xx_hal_dma.c ****         }
 816:Drivers/STM32F4xx_HAL_Driver/Src/stm32f4xx_hal_dma.c ****         /* Current memory buffer used is Memory 1 */
 817:Drivers/STM32F4xx_HAL_Driver/Src/stm32f4xx_hal_dma.c ****         else
 818:Drivers/STM32F4xx_HAL_Driver/Src/stm32f4xx_hal_dma.c ****         {
 819:Drivers/STM32F4xx_HAL_Driver/Src/stm32f4xx_hal_dma.c ****           if(hdma->XferM1HalfCpltCallback != NULL)
 1502              		.loc 1 819 18
 1503 0130 7B68     		ldr	r3, [r7, #4]
 1504 0132 9B6C     		ldr	r3, [r3, #72]
 1505              		.loc 1 819 13
 1506 0134 002B     		cmp	r3, #0
 1507 0136 1BD0     		beq	.L55
 820:Drivers/STM32F4xx_HAL_Driver/Src/stm32f4xx_hal_dma.c ****           {
 821:Drivers/STM32F4xx_HAL_Driver/Src/stm32f4xx_hal_dma.c ****             /* Half transfer callback */
 822:Drivers/STM32F4xx_HAL_Driver/Src/stm32f4xx_hal_dma.c ****             hdma->XferM1HalfCpltCallback(hdma);
 1508              		.loc 1 822 17
 1509 0138 7B68     		ldr	r3, [r7, #4]
 1510 013a 9B6C     		ldr	r3, [r3, #72]
 1511              		.loc 1 822 13
 1512 013c 7868     		ldr	r0, [r7, #4]
 1513 013e 9847     		blx	r3
ARM GAS  C:\Users\EI\AppData\Local\Temp\ccZQ2WtN.s 			page 42


 1514              	.LVL1:
 1515 0140 16E0     		b	.L55
 1516              	.L56:
 823:Drivers/STM32F4xx_HAL_Driver/Src/stm32f4xx_hal_dma.c ****           }
 824:Drivers/STM32F4xx_HAL_Driver/Src/stm32f4xx_hal_dma.c ****         }
 825:Drivers/STM32F4xx_HAL_Driver/Src/stm32f4xx_hal_dma.c ****       }
 826:Drivers/STM32F4xx_HAL_Driver/Src/stm32f4xx_hal_dma.c ****       else
 827:Drivers/STM32F4xx_HAL_Driver/Src/stm32f4xx_hal_dma.c ****       {
 828:Drivers/STM32F4xx_HAL_Driver/Src/stm32f4xx_hal_dma.c ****         /* Disable the half transfer interrupt if the DMA mode is not CIRCULAR */
 829:Drivers/STM32F4xx_HAL_Driver/Src/stm32f4xx_hal_dma.c ****         if((hdma->Instance->CR & DMA_SxCR_CIRC) == RESET)
 1517              		.loc 1 829 17
 1518 0142 7B68     		ldr	r3, [r7, #4]
 1519 0144 1B68     		ldr	r3, [r3]
 1520              		.loc 1 829 27
 1521 0146 1B68     		ldr	r3, [r3]
 1522              		.loc 1 829 32
 1523 0148 03F48073 		and	r3, r3, #256
 1524              		.loc 1 829 11
 1525 014c 002B     		cmp	r3, #0
 1526 014e 07D1     		bne	.L58
 830:Drivers/STM32F4xx_HAL_Driver/Src/stm32f4xx_hal_dma.c ****         {
 831:Drivers/STM32F4xx_HAL_Driver/Src/stm32f4xx_hal_dma.c ****           /* Disable the half transfer interrupt */
 832:Drivers/STM32F4xx_HAL_Driver/Src/stm32f4xx_hal_dma.c ****           hdma->Instance->CR  &= ~(DMA_IT_HT);
 1527              		.loc 1 832 15
 1528 0150 7B68     		ldr	r3, [r7, #4]
 1529 0152 1B68     		ldr	r3, [r3]
 1530              		.loc 1 832 31
 1531 0154 1A68     		ldr	r2, [r3]
 1532              		.loc 1 832 15
 1533 0156 7B68     		ldr	r3, [r7, #4]
 1534 0158 1B68     		ldr	r3, [r3]
 1535              		.loc 1 832 31
 1536 015a 22F00802 		bic	r2, r2, #8
 1537 015e 1A60     		str	r2, [r3]
 1538              	.L58:
 833:Drivers/STM32F4xx_HAL_Driver/Src/stm32f4xx_hal_dma.c ****         }
 834:Drivers/STM32F4xx_HAL_Driver/Src/stm32f4xx_hal_dma.c ****         
 835:Drivers/STM32F4xx_HAL_Driver/Src/stm32f4xx_hal_dma.c ****         if(hdma->XferHalfCpltCallback != NULL)
 1539              		.loc 1 835 16
 1540 0160 7B68     		ldr	r3, [r7, #4]
 1541 0162 1B6C     		ldr	r3, [r3, #64]
 1542              		.loc 1 835 11
 1543 0164 002B     		cmp	r3, #0
 1544 0166 03D0     		beq	.L55
 836:Drivers/STM32F4xx_HAL_Driver/Src/stm32f4xx_hal_dma.c ****         {
 837:Drivers/STM32F4xx_HAL_Driver/Src/stm32f4xx_hal_dma.c ****           /* Half transfer callback */
 838:Drivers/STM32F4xx_HAL_Driver/Src/stm32f4xx_hal_dma.c ****           hdma->XferHalfCpltCallback(hdma);
 1545              		.loc 1 838 15
 1546 0168 7B68     		ldr	r3, [r7, #4]
 1547 016a 1B6C     		ldr	r3, [r3, #64]
 1548              		.loc 1 838 11
 1549 016c 7868     		ldr	r0, [r7, #4]
 1550 016e 9847     		blx	r3
 1551              	.LVL2:
 1552              	.L55:
 839:Drivers/STM32F4xx_HAL_Driver/Src/stm32f4xx_hal_dma.c ****         }
 840:Drivers/STM32F4xx_HAL_Driver/Src/stm32f4xx_hal_dma.c ****       }
ARM GAS  C:\Users\EI\AppData\Local\Temp\ccZQ2WtN.s 			page 43


 841:Drivers/STM32F4xx_HAL_Driver/Src/stm32f4xx_hal_dma.c ****     }
 842:Drivers/STM32F4xx_HAL_Driver/Src/stm32f4xx_hal_dma.c ****   }
 843:Drivers/STM32F4xx_HAL_Driver/Src/stm32f4xx_hal_dma.c ****   /* Transfer Complete Interrupt management ***********************************/
 844:Drivers/STM32F4xx_HAL_Driver/Src/stm32f4xx_hal_dma.c ****   if ((tmpisr & (DMA_FLAG_TCIF0_4 << hdma->StreamIndex)) != RESET)
 1553              		.loc 1 844 42
 1554 0170 7B68     		ldr	r3, [r7, #4]
 1555 0172 DB6D     		ldr	r3, [r3, #92]
 1556              		.loc 1 844 35
 1557 0174 2022     		movs	r2, #32
 1558 0176 9A40     		lsls	r2, r2, r3
 1559              		.loc 1 844 15
 1560 0178 FB68     		ldr	r3, [r7, #12]
 1561 017a 1340     		ands	r3, r3, r2
 1562              		.loc 1 844 6
 1563 017c 002B     		cmp	r3, #0
 1564 017e 00F08F80 		beq	.L59
 845:Drivers/STM32F4xx_HAL_Driver/Src/stm32f4xx_hal_dma.c ****   {
 846:Drivers/STM32F4xx_HAL_Driver/Src/stm32f4xx_hal_dma.c ****     if(__HAL_DMA_GET_IT_SOURCE(hdma, DMA_IT_TC) != RESET)
 1565              		.loc 1 846 8
 1566 0182 7B68     		ldr	r3, [r7, #4]
 1567 0184 1B68     		ldr	r3, [r3]
 1568 0186 1B68     		ldr	r3, [r3]
 1569 0188 03F01003 		and	r3, r3, #16
 1570              		.loc 1 846 7
 1571 018c 002B     		cmp	r3, #0
 1572 018e 00F08780 		beq	.L59
 847:Drivers/STM32F4xx_HAL_Driver/Src/stm32f4xx_hal_dma.c ****     {
 848:Drivers/STM32F4xx_HAL_Driver/Src/stm32f4xx_hal_dma.c ****       /* Clear the transfer complete flag */
 849:Drivers/STM32F4xx_HAL_Driver/Src/stm32f4xx_hal_dma.c ****       regs->IFCR = DMA_FLAG_TCIF0_4 << hdma->StreamIndex;
 1573              		.loc 1 849 44
 1574 0192 7B68     		ldr	r3, [r7, #4]
 1575 0194 DB6D     		ldr	r3, [r3, #92]
 1576              		.loc 1 849 37
 1577 0196 2022     		movs	r2, #32
 1578 0198 9A40     		lsls	r2, r2, r3
 1579              		.loc 1 849 18
 1580 019a 3B69     		ldr	r3, [r7, #16]
 1581 019c 9A60     		str	r2, [r3, #8]
 850:Drivers/STM32F4xx_HAL_Driver/Src/stm32f4xx_hal_dma.c ****       
 851:Drivers/STM32F4xx_HAL_Driver/Src/stm32f4xx_hal_dma.c ****       if(HAL_DMA_STATE_ABORT == hdma->State)
 1582              		.loc 1 851 37
 1583 019e 7B68     		ldr	r3, [r7, #4]
 1584 01a0 93F83530 		ldrb	r3, [r3, #53]
 1585 01a4 DBB2     		uxtb	r3, r3
 1586              		.loc 1 851 9
 1587 01a6 052B     		cmp	r3, #5
 1588 01a8 36D1     		bne	.L60
 852:Drivers/STM32F4xx_HAL_Driver/Src/stm32f4xx_hal_dma.c ****       {
 853:Drivers/STM32F4xx_HAL_Driver/Src/stm32f4xx_hal_dma.c ****         /* Disable all the transfer interrupts */
 854:Drivers/STM32F4xx_HAL_Driver/Src/stm32f4xx_hal_dma.c ****         hdma->Instance->CR  &= ~(DMA_IT_TC | DMA_IT_TE | DMA_IT_DME);
 1589              		.loc 1 854 13
 1590 01aa 7B68     		ldr	r3, [r7, #4]
 1591 01ac 1B68     		ldr	r3, [r3]
 1592              		.loc 1 854 29
 1593 01ae 1A68     		ldr	r2, [r3]
 1594              		.loc 1 854 13
 1595 01b0 7B68     		ldr	r3, [r7, #4]
ARM GAS  C:\Users\EI\AppData\Local\Temp\ccZQ2WtN.s 			page 44


 1596 01b2 1B68     		ldr	r3, [r3]
 1597              		.loc 1 854 29
 1598 01b4 22F01602 		bic	r2, r2, #22
 1599 01b8 1A60     		str	r2, [r3]
 855:Drivers/STM32F4xx_HAL_Driver/Src/stm32f4xx_hal_dma.c ****         hdma->Instance->FCR &= ~(DMA_IT_FE);
 1600              		.loc 1 855 13
 1601 01ba 7B68     		ldr	r3, [r7, #4]
 1602 01bc 1B68     		ldr	r3, [r3]
 1603              		.loc 1 855 29
 1604 01be 5A69     		ldr	r2, [r3, #20]
 1605              		.loc 1 855 13
 1606 01c0 7B68     		ldr	r3, [r7, #4]
 1607 01c2 1B68     		ldr	r3, [r3]
 1608              		.loc 1 855 29
 1609 01c4 22F08002 		bic	r2, r2, #128
 1610 01c8 5A61     		str	r2, [r3, #20]
 856:Drivers/STM32F4xx_HAL_Driver/Src/stm32f4xx_hal_dma.c ****         
 857:Drivers/STM32F4xx_HAL_Driver/Src/stm32f4xx_hal_dma.c ****         if((hdma->XferHalfCpltCallback != NULL) || (hdma->XferM1HalfCpltCallback != NULL))
 1611              		.loc 1 857 17
 1612 01ca 7B68     		ldr	r3, [r7, #4]
 1613 01cc 1B6C     		ldr	r3, [r3, #64]
 1614              		.loc 1 857 11
 1615 01ce 002B     		cmp	r3, #0
 1616 01d0 03D1     		bne	.L61
 1617              		.loc 1 857 57 discriminator 1
 1618 01d2 7B68     		ldr	r3, [r7, #4]
 1619 01d4 9B6C     		ldr	r3, [r3, #72]
 1620              		.loc 1 857 49 discriminator 1
 1621 01d6 002B     		cmp	r3, #0
 1622 01d8 07D0     		beq	.L62
 1623              	.L61:
 858:Drivers/STM32F4xx_HAL_Driver/Src/stm32f4xx_hal_dma.c ****         {
 859:Drivers/STM32F4xx_HAL_Driver/Src/stm32f4xx_hal_dma.c ****           hdma->Instance->CR  &= ~(DMA_IT_HT);
 1624              		.loc 1 859 15
 1625 01da 7B68     		ldr	r3, [r7, #4]
 1626 01dc 1B68     		ldr	r3, [r3]
 1627              		.loc 1 859 31
 1628 01de 1A68     		ldr	r2, [r3]
 1629              		.loc 1 859 15
 1630 01e0 7B68     		ldr	r3, [r7, #4]
 1631 01e2 1B68     		ldr	r3, [r3]
 1632              		.loc 1 859 31
 1633 01e4 22F00802 		bic	r2, r2, #8
 1634 01e8 1A60     		str	r2, [r3]
 1635              	.L62:
 860:Drivers/STM32F4xx_HAL_Driver/Src/stm32f4xx_hal_dma.c ****         }
 861:Drivers/STM32F4xx_HAL_Driver/Src/stm32f4xx_hal_dma.c **** 
 862:Drivers/STM32F4xx_HAL_Driver/Src/stm32f4xx_hal_dma.c ****         /* Clear all interrupt flags at correct offset within the register */
 863:Drivers/STM32F4xx_HAL_Driver/Src/stm32f4xx_hal_dma.c ****         regs->IFCR = 0x3FU << hdma->StreamIndex;
 1636              		.loc 1 863 35
 1637 01ea 7B68     		ldr	r3, [r7, #4]
 1638 01ec DB6D     		ldr	r3, [r3, #92]
 1639              		.loc 1 863 28
 1640 01ee 3F22     		movs	r2, #63
 1641 01f0 9A40     		lsls	r2, r2, r3
 1642              		.loc 1 863 20
 1643 01f2 3B69     		ldr	r3, [r7, #16]
ARM GAS  C:\Users\EI\AppData\Local\Temp\ccZQ2WtN.s 			page 45


 1644 01f4 9A60     		str	r2, [r3, #8]
 864:Drivers/STM32F4xx_HAL_Driver/Src/stm32f4xx_hal_dma.c **** 
 865:Drivers/STM32F4xx_HAL_Driver/Src/stm32f4xx_hal_dma.c ****         /* Change the DMA state */
 866:Drivers/STM32F4xx_HAL_Driver/Src/stm32f4xx_hal_dma.c ****         hdma->State = HAL_DMA_STATE_READY;
 1645              		.loc 1 866 21
 1646 01f6 7B68     		ldr	r3, [r7, #4]
 1647 01f8 0122     		movs	r2, #1
 1648 01fa 83F83520 		strb	r2, [r3, #53]
 867:Drivers/STM32F4xx_HAL_Driver/Src/stm32f4xx_hal_dma.c **** 
 868:Drivers/STM32F4xx_HAL_Driver/Src/stm32f4xx_hal_dma.c ****         /* Process Unlocked */
 869:Drivers/STM32F4xx_HAL_Driver/Src/stm32f4xx_hal_dma.c ****         __HAL_UNLOCK(hdma);
 1649              		.loc 1 869 9
 1650 01fe 7B68     		ldr	r3, [r7, #4]
 1651 0200 0022     		movs	r2, #0
 1652 0202 83F83420 		strb	r2, [r3, #52]
 870:Drivers/STM32F4xx_HAL_Driver/Src/stm32f4xx_hal_dma.c **** 
 871:Drivers/STM32F4xx_HAL_Driver/Src/stm32f4xx_hal_dma.c ****         if(hdma->XferAbortCallback != NULL)
 1653              		.loc 1 871 16
 1654 0206 7B68     		ldr	r3, [r7, #4]
 1655 0208 1B6D     		ldr	r3, [r3, #80]
 1656              		.loc 1 871 11
 1657 020a 002B     		cmp	r3, #0
 1658 020c 7ED0     		beq	.L72
 872:Drivers/STM32F4xx_HAL_Driver/Src/stm32f4xx_hal_dma.c ****         {
 873:Drivers/STM32F4xx_HAL_Driver/Src/stm32f4xx_hal_dma.c ****           hdma->XferAbortCallback(hdma);
 1659              		.loc 1 873 15
 1660 020e 7B68     		ldr	r3, [r7, #4]
 1661 0210 1B6D     		ldr	r3, [r3, #80]
 1662              		.loc 1 873 11
 1663 0212 7868     		ldr	r0, [r7, #4]
 1664 0214 9847     		blx	r3
 1665              	.LVL3:
 874:Drivers/STM32F4xx_HAL_Driver/Src/stm32f4xx_hal_dma.c ****         }
 875:Drivers/STM32F4xx_HAL_Driver/Src/stm32f4xx_hal_dma.c ****         return;
 1666              		.loc 1 875 9
 1667 0216 79E0     		b	.L72
 1668              	.L60:
 876:Drivers/STM32F4xx_HAL_Driver/Src/stm32f4xx_hal_dma.c ****       }
 877:Drivers/STM32F4xx_HAL_Driver/Src/stm32f4xx_hal_dma.c **** 
 878:Drivers/STM32F4xx_HAL_Driver/Src/stm32f4xx_hal_dma.c ****       if(((hdma->Instance->CR) & (uint32_t)(DMA_SxCR_DBM)) != RESET)
 1669              		.loc 1 878 16
 1670 0218 7B68     		ldr	r3, [r7, #4]
 1671 021a 1B68     		ldr	r3, [r3]
 1672              		.loc 1 878 26
 1673 021c 1B68     		ldr	r3, [r3]
 1674              		.loc 1 878 32
 1675 021e 03F48023 		and	r3, r3, #262144
 1676              		.loc 1 878 9
 1677 0222 002B     		cmp	r3, #0
 1678 0224 1DD0     		beq	.L65
 879:Drivers/STM32F4xx_HAL_Driver/Src/stm32f4xx_hal_dma.c ****       {
 880:Drivers/STM32F4xx_HAL_Driver/Src/stm32f4xx_hal_dma.c ****         /* Current memory buffer used is Memory 0 */
 881:Drivers/STM32F4xx_HAL_Driver/Src/stm32f4xx_hal_dma.c ****         if((hdma->Instance->CR & DMA_SxCR_CT) == RESET)
 1679              		.loc 1 881 17
 1680 0226 7B68     		ldr	r3, [r7, #4]
 1681 0228 1B68     		ldr	r3, [r3]
 1682              		.loc 1 881 27
ARM GAS  C:\Users\EI\AppData\Local\Temp\ccZQ2WtN.s 			page 46


 1683 022a 1B68     		ldr	r3, [r3]
 1684              		.loc 1 881 32
 1685 022c 03F40023 		and	r3, r3, #524288
 1686              		.loc 1 881 11
 1687 0230 002B     		cmp	r3, #0
 1688 0232 0DD1     		bne	.L66
 882:Drivers/STM32F4xx_HAL_Driver/Src/stm32f4xx_hal_dma.c ****         {
 883:Drivers/STM32F4xx_HAL_Driver/Src/stm32f4xx_hal_dma.c ****           if(hdma->XferM1CpltCallback != NULL)
 1689              		.loc 1 883 18
 1690 0234 7B68     		ldr	r3, [r7, #4]
 1691 0236 5B6C     		ldr	r3, [r3, #68]
 1692              		.loc 1 883 13
 1693 0238 002B     		cmp	r3, #0
 1694 023a 31D0     		beq	.L59
 884:Drivers/STM32F4xx_HAL_Driver/Src/stm32f4xx_hal_dma.c ****           {
 885:Drivers/STM32F4xx_HAL_Driver/Src/stm32f4xx_hal_dma.c ****             /* Transfer complete Callback for memory1 */
 886:Drivers/STM32F4xx_HAL_Driver/Src/stm32f4xx_hal_dma.c ****             hdma->XferM1CpltCallback(hdma);
 1695              		.loc 1 886 17
 1696 023c 7B68     		ldr	r3, [r7, #4]
 1697 023e 5B6C     		ldr	r3, [r3, #68]
 1698              		.loc 1 886 13
 1699 0240 7868     		ldr	r0, [r7, #4]
 1700 0242 9847     		blx	r3
 1701              	.LVL4:
 1702 0244 2CE0     		b	.L59
 1703              	.L75:
 1704 0246 00BF     		.align	2
 1705              	.L74:
 1706 0248 00000000 		.word	SystemCoreClock
 1707 024c B5814E1B 		.word	458129845
 1708              	.L66:
 887:Drivers/STM32F4xx_HAL_Driver/Src/stm32f4xx_hal_dma.c ****           }
 888:Drivers/STM32F4xx_HAL_Driver/Src/stm32f4xx_hal_dma.c ****         }
 889:Drivers/STM32F4xx_HAL_Driver/Src/stm32f4xx_hal_dma.c ****         /* Current memory buffer used is Memory 1 */
 890:Drivers/STM32F4xx_HAL_Driver/Src/stm32f4xx_hal_dma.c ****         else
 891:Drivers/STM32F4xx_HAL_Driver/Src/stm32f4xx_hal_dma.c ****         {
 892:Drivers/STM32F4xx_HAL_Driver/Src/stm32f4xx_hal_dma.c ****           if(hdma->XferCpltCallback != NULL)
 1709              		.loc 1 892 18
 1710 0250 7B68     		ldr	r3, [r7, #4]
 1711 0252 DB6B     		ldr	r3, [r3, #60]
 1712              		.loc 1 892 13
 1713 0254 002B     		cmp	r3, #0
 1714 0256 23D0     		beq	.L59
 893:Drivers/STM32F4xx_HAL_Driver/Src/stm32f4xx_hal_dma.c ****           {
 894:Drivers/STM32F4xx_HAL_Driver/Src/stm32f4xx_hal_dma.c ****             /* Transfer complete Callback for memory0 */
 895:Drivers/STM32F4xx_HAL_Driver/Src/stm32f4xx_hal_dma.c ****             hdma->XferCpltCallback(hdma);
 1715              		.loc 1 895 17
 1716 0258 7B68     		ldr	r3, [r7, #4]
 1717 025a DB6B     		ldr	r3, [r3, #60]
 1718              		.loc 1 895 13
 1719 025c 7868     		ldr	r0, [r7, #4]
 1720 025e 9847     		blx	r3
 1721              	.LVL5:
 1722 0260 1EE0     		b	.L59
 1723              	.L65:
 896:Drivers/STM32F4xx_HAL_Driver/Src/stm32f4xx_hal_dma.c ****           }
 897:Drivers/STM32F4xx_HAL_Driver/Src/stm32f4xx_hal_dma.c ****         }
ARM GAS  C:\Users\EI\AppData\Local\Temp\ccZQ2WtN.s 			page 47


 898:Drivers/STM32F4xx_HAL_Driver/Src/stm32f4xx_hal_dma.c ****       }
 899:Drivers/STM32F4xx_HAL_Driver/Src/stm32f4xx_hal_dma.c ****       /* Disable the transfer complete interrupt if the DMA mode is not CIRCULAR */
 900:Drivers/STM32F4xx_HAL_Driver/Src/stm32f4xx_hal_dma.c ****       else
 901:Drivers/STM32F4xx_HAL_Driver/Src/stm32f4xx_hal_dma.c ****       {
 902:Drivers/STM32F4xx_HAL_Driver/Src/stm32f4xx_hal_dma.c ****         if((hdma->Instance->CR & DMA_SxCR_CIRC) == RESET)
 1724              		.loc 1 902 17
 1725 0262 7B68     		ldr	r3, [r7, #4]
 1726 0264 1B68     		ldr	r3, [r3]
 1727              		.loc 1 902 27
 1728 0266 1B68     		ldr	r3, [r3]
 1729              		.loc 1 902 32
 1730 0268 03F48073 		and	r3, r3, #256
 1731              		.loc 1 902 11
 1732 026c 002B     		cmp	r3, #0
 1733 026e 0FD1     		bne	.L67
 903:Drivers/STM32F4xx_HAL_Driver/Src/stm32f4xx_hal_dma.c ****         {
 904:Drivers/STM32F4xx_HAL_Driver/Src/stm32f4xx_hal_dma.c ****           /* Disable the transfer complete interrupt */
 905:Drivers/STM32F4xx_HAL_Driver/Src/stm32f4xx_hal_dma.c ****           hdma->Instance->CR  &= ~(DMA_IT_TC);
 1734              		.loc 1 905 15
 1735 0270 7B68     		ldr	r3, [r7, #4]
 1736 0272 1B68     		ldr	r3, [r3]
 1737              		.loc 1 905 31
 1738 0274 1A68     		ldr	r2, [r3]
 1739              		.loc 1 905 15
 1740 0276 7B68     		ldr	r3, [r7, #4]
 1741 0278 1B68     		ldr	r3, [r3]
 1742              		.loc 1 905 31
 1743 027a 22F01002 		bic	r2, r2, #16
 1744 027e 1A60     		str	r2, [r3]
 906:Drivers/STM32F4xx_HAL_Driver/Src/stm32f4xx_hal_dma.c **** 
 907:Drivers/STM32F4xx_HAL_Driver/Src/stm32f4xx_hal_dma.c ****           /* Change the DMA state */
 908:Drivers/STM32F4xx_HAL_Driver/Src/stm32f4xx_hal_dma.c ****           hdma->State = HAL_DMA_STATE_READY;
 1745              		.loc 1 908 23
 1746 0280 7B68     		ldr	r3, [r7, #4]
 1747 0282 0122     		movs	r2, #1
 1748 0284 83F83520 		strb	r2, [r3, #53]
 909:Drivers/STM32F4xx_HAL_Driver/Src/stm32f4xx_hal_dma.c **** 
 910:Drivers/STM32F4xx_HAL_Driver/Src/stm32f4xx_hal_dma.c ****           /* Process Unlocked */
 911:Drivers/STM32F4xx_HAL_Driver/Src/stm32f4xx_hal_dma.c ****           __HAL_UNLOCK(hdma);
 1749              		.loc 1 911 11
 1750 0288 7B68     		ldr	r3, [r7, #4]
 1751 028a 0022     		movs	r2, #0
 1752 028c 83F83420 		strb	r2, [r3, #52]
 1753              	.L67:
 912:Drivers/STM32F4xx_HAL_Driver/Src/stm32f4xx_hal_dma.c ****         }
 913:Drivers/STM32F4xx_HAL_Driver/Src/stm32f4xx_hal_dma.c **** 
 914:Drivers/STM32F4xx_HAL_Driver/Src/stm32f4xx_hal_dma.c ****         if(hdma->XferCpltCallback != NULL)
 1754              		.loc 1 914 16
 1755 0290 7B68     		ldr	r3, [r7, #4]
 1756 0292 DB6B     		ldr	r3, [r3, #60]
 1757              		.loc 1 914 11
 1758 0294 002B     		cmp	r3, #0
 1759 0296 03D0     		beq	.L59
 915:Drivers/STM32F4xx_HAL_Driver/Src/stm32f4xx_hal_dma.c ****         {
 916:Drivers/STM32F4xx_HAL_Driver/Src/stm32f4xx_hal_dma.c ****           /* Transfer complete callback */
 917:Drivers/STM32F4xx_HAL_Driver/Src/stm32f4xx_hal_dma.c ****           hdma->XferCpltCallback(hdma);
 1760              		.loc 1 917 15
ARM GAS  C:\Users\EI\AppData\Local\Temp\ccZQ2WtN.s 			page 48


 1761 0298 7B68     		ldr	r3, [r7, #4]
 1762 029a DB6B     		ldr	r3, [r3, #60]
 1763              		.loc 1 917 11
 1764 029c 7868     		ldr	r0, [r7, #4]
 1765 029e 9847     		blx	r3
 1766              	.LVL6:
 1767              	.L59:
 918:Drivers/STM32F4xx_HAL_Driver/Src/stm32f4xx_hal_dma.c ****         }
 919:Drivers/STM32F4xx_HAL_Driver/Src/stm32f4xx_hal_dma.c ****       }
 920:Drivers/STM32F4xx_HAL_Driver/Src/stm32f4xx_hal_dma.c ****     }
 921:Drivers/STM32F4xx_HAL_Driver/Src/stm32f4xx_hal_dma.c ****   }
 922:Drivers/STM32F4xx_HAL_Driver/Src/stm32f4xx_hal_dma.c ****   
 923:Drivers/STM32F4xx_HAL_Driver/Src/stm32f4xx_hal_dma.c ****   /* manage error case */
 924:Drivers/STM32F4xx_HAL_Driver/Src/stm32f4xx_hal_dma.c ****   if(hdma->ErrorCode != HAL_DMA_ERROR_NONE)
 1768              		.loc 1 924 10
 1769 02a0 7B68     		ldr	r3, [r7, #4]
 1770 02a2 5B6D     		ldr	r3, [r3, #84]
 1771              		.loc 1 924 5
 1772 02a4 002B     		cmp	r3, #0
 1773 02a6 32D0     		beq	.L51
 925:Drivers/STM32F4xx_HAL_Driver/Src/stm32f4xx_hal_dma.c ****   {
 926:Drivers/STM32F4xx_HAL_Driver/Src/stm32f4xx_hal_dma.c ****     if((hdma->ErrorCode & HAL_DMA_ERROR_TE) != RESET)
 1774              		.loc 1 926 13
 1775 02a8 7B68     		ldr	r3, [r7, #4]
 1776 02aa 5B6D     		ldr	r3, [r3, #84]
 1777              		.loc 1 926 25
 1778 02ac 03F00103 		and	r3, r3, #1
 1779              		.loc 1 926 7
 1780 02b0 002B     		cmp	r3, #0
 1781 02b2 22D0     		beq	.L68
 927:Drivers/STM32F4xx_HAL_Driver/Src/stm32f4xx_hal_dma.c ****     {
 928:Drivers/STM32F4xx_HAL_Driver/Src/stm32f4xx_hal_dma.c ****       hdma->State = HAL_DMA_STATE_ABORT;
 1782              		.loc 1 928 19
 1783 02b4 7B68     		ldr	r3, [r7, #4]
 1784 02b6 0522     		movs	r2, #5
 1785 02b8 83F83520 		strb	r2, [r3, #53]
 929:Drivers/STM32F4xx_HAL_Driver/Src/stm32f4xx_hal_dma.c **** 
 930:Drivers/STM32F4xx_HAL_Driver/Src/stm32f4xx_hal_dma.c ****       /* Disable the stream */
 931:Drivers/STM32F4xx_HAL_Driver/Src/stm32f4xx_hal_dma.c ****       __HAL_DMA_DISABLE(hdma);
 1786              		.loc 1 931 7
 1787 02bc 7B68     		ldr	r3, [r7, #4]
 1788 02be 1B68     		ldr	r3, [r3]
 1789 02c0 1A68     		ldr	r2, [r3]
 1790 02c2 7B68     		ldr	r3, [r7, #4]
 1791 02c4 1B68     		ldr	r3, [r3]
 1792 02c6 22F00102 		bic	r2, r2, #1
 1793 02ca 1A60     		str	r2, [r3]
 1794              	.L71:
 932:Drivers/STM32F4xx_HAL_Driver/Src/stm32f4xx_hal_dma.c **** 
 933:Drivers/STM32F4xx_HAL_Driver/Src/stm32f4xx_hal_dma.c ****       do
 934:Drivers/STM32F4xx_HAL_Driver/Src/stm32f4xx_hal_dma.c ****       {
 935:Drivers/STM32F4xx_HAL_Driver/Src/stm32f4xx_hal_dma.c ****         if (++count > timeout)
 1795              		.loc 1 935 13
 1796 02cc BB68     		ldr	r3, [r7, #8]
 1797 02ce 0133     		adds	r3, r3, #1
 1798              		.loc 1 935 12
 1799 02d0 BB60     		str	r3, [r7, #8]
ARM GAS  C:\Users\EI\AppData\Local\Temp\ccZQ2WtN.s 			page 49


 1800 02d2 7A69     		ldr	r2, [r7, #20]
 1801 02d4 9A42     		cmp	r2, r3
 1802 02d6 07D3     		bcc	.L73
 936:Drivers/STM32F4xx_HAL_Driver/Src/stm32f4xx_hal_dma.c ****         {
 937:Drivers/STM32F4xx_HAL_Driver/Src/stm32f4xx_hal_dma.c ****           break;
 938:Drivers/STM32F4xx_HAL_Driver/Src/stm32f4xx_hal_dma.c ****         }
 939:Drivers/STM32F4xx_HAL_Driver/Src/stm32f4xx_hal_dma.c ****       }
 940:Drivers/STM32F4xx_HAL_Driver/Src/stm32f4xx_hal_dma.c ****       while((hdma->Instance->CR & DMA_SxCR_EN) != RESET);
 1803              		.loc 1 940 18
 1804 02d8 7B68     		ldr	r3, [r7, #4]
 1805 02da 1B68     		ldr	r3, [r3]
 1806              		.loc 1 940 28
 1807 02dc 1B68     		ldr	r3, [r3]
 1808              		.loc 1 940 33
 1809 02de 03F00103 		and	r3, r3, #1
 1810              		.loc 1 940 7
 1811 02e2 002B     		cmp	r3, #0
 1812 02e4 F2D1     		bne	.L71
 1813 02e6 00E0     		b	.L70
 1814              	.L73:
 937:Drivers/STM32F4xx_HAL_Driver/Src/stm32f4xx_hal_dma.c ****         }
 1815              		.loc 1 937 11
 1816 02e8 00BF     		nop
 1817              	.L70:
 941:Drivers/STM32F4xx_HAL_Driver/Src/stm32f4xx_hal_dma.c **** 
 942:Drivers/STM32F4xx_HAL_Driver/Src/stm32f4xx_hal_dma.c ****       /* Change the DMA state */
 943:Drivers/STM32F4xx_HAL_Driver/Src/stm32f4xx_hal_dma.c ****       hdma->State = HAL_DMA_STATE_READY;
 1818              		.loc 1 943 19
 1819 02ea 7B68     		ldr	r3, [r7, #4]
 1820 02ec 0122     		movs	r2, #1
 1821 02ee 83F83520 		strb	r2, [r3, #53]
 944:Drivers/STM32F4xx_HAL_Driver/Src/stm32f4xx_hal_dma.c **** 
 945:Drivers/STM32F4xx_HAL_Driver/Src/stm32f4xx_hal_dma.c ****       /* Process Unlocked */
 946:Drivers/STM32F4xx_HAL_Driver/Src/stm32f4xx_hal_dma.c ****       __HAL_UNLOCK(hdma);
 1822              		.loc 1 946 7
 1823 02f2 7B68     		ldr	r3, [r7, #4]
 1824 02f4 0022     		movs	r2, #0
 1825 02f6 83F83420 		strb	r2, [r3, #52]
 1826              	.L68:
 947:Drivers/STM32F4xx_HAL_Driver/Src/stm32f4xx_hal_dma.c ****     }
 948:Drivers/STM32F4xx_HAL_Driver/Src/stm32f4xx_hal_dma.c **** 
 949:Drivers/STM32F4xx_HAL_Driver/Src/stm32f4xx_hal_dma.c ****     if(hdma->XferErrorCallback != NULL)
 1827              		.loc 1 949 12
 1828 02fa 7B68     		ldr	r3, [r7, #4]
 1829 02fc DB6C     		ldr	r3, [r3, #76]
 1830              		.loc 1 949 7
 1831 02fe 002B     		cmp	r3, #0
 1832 0300 05D0     		beq	.L51
 950:Drivers/STM32F4xx_HAL_Driver/Src/stm32f4xx_hal_dma.c ****     {
 951:Drivers/STM32F4xx_HAL_Driver/Src/stm32f4xx_hal_dma.c ****       /* Transfer error callback */
 952:Drivers/STM32F4xx_HAL_Driver/Src/stm32f4xx_hal_dma.c ****       hdma->XferErrorCallback(hdma);
 1833              		.loc 1 952 11
 1834 0302 7B68     		ldr	r3, [r7, #4]
 1835 0304 DB6C     		ldr	r3, [r3, #76]
 1836              		.loc 1 952 7
 1837 0306 7868     		ldr	r0, [r7, #4]
 1838 0308 9847     		blx	r3
ARM GAS  C:\Users\EI\AppData\Local\Temp\ccZQ2WtN.s 			page 50


 1839              	.LVL7:
 1840 030a 00E0     		b	.L51
 1841              	.L72:
 875:Drivers/STM32F4xx_HAL_Driver/Src/stm32f4xx_hal_dma.c ****       }
 1842              		.loc 1 875 9
 1843 030c 00BF     		nop
 1844              	.L51:
 953:Drivers/STM32F4xx_HAL_Driver/Src/stm32f4xx_hal_dma.c ****     }
 954:Drivers/STM32F4xx_HAL_Driver/Src/stm32f4xx_hal_dma.c ****   }
 955:Drivers/STM32F4xx_HAL_Driver/Src/stm32f4xx_hal_dma.c **** }
 1845              		.loc 1 955 1
 1846 030e 1837     		adds	r7, r7, #24
 1847              	.LCFI39:
 1848              		.cfi_def_cfa_offset 8
 1849 0310 BD46     		mov	sp, r7
 1850              	.LCFI40:
 1851              		.cfi_def_cfa_register 13
 1852              		@ sp needed
 1853 0312 80BD     		pop	{r7, pc}
 1854              		.cfi_endproc
 1855              	.LFE223:
 1857              		.section	.text.HAL_DMA_RegisterCallback,"ax",%progbits
 1858              		.align	1
 1859              		.global	HAL_DMA_RegisterCallback
 1860              		.syntax unified
 1861              		.thumb
 1862              		.thumb_func
 1863              		.fpu fpv4-sp-d16
 1865              	HAL_DMA_RegisterCallback:
 1866              	.LFB224:
 956:Drivers/STM32F4xx_HAL_Driver/Src/stm32f4xx_hal_dma.c **** 
 957:Drivers/STM32F4xx_HAL_Driver/Src/stm32f4xx_hal_dma.c **** /**
 958:Drivers/STM32F4xx_HAL_Driver/Src/stm32f4xx_hal_dma.c ****   * @brief  Register callbacks
 959:Drivers/STM32F4xx_HAL_Driver/Src/stm32f4xx_hal_dma.c ****   * @param  hdma                 pointer to a DMA_HandleTypeDef structure that contains
 960:Drivers/STM32F4xx_HAL_Driver/Src/stm32f4xx_hal_dma.c ****   *                               the configuration information for the specified DMA Stream.
 961:Drivers/STM32F4xx_HAL_Driver/Src/stm32f4xx_hal_dma.c ****   * @param  CallbackID           User Callback identifier
 962:Drivers/STM32F4xx_HAL_Driver/Src/stm32f4xx_hal_dma.c ****   *                               a DMA_HandleTypeDef structure as parameter.
 963:Drivers/STM32F4xx_HAL_Driver/Src/stm32f4xx_hal_dma.c ****   * @param  pCallback            pointer to private callback function which has pointer to 
 964:Drivers/STM32F4xx_HAL_Driver/Src/stm32f4xx_hal_dma.c ****   *                               a DMA_HandleTypeDef structure as parameter.
 965:Drivers/STM32F4xx_HAL_Driver/Src/stm32f4xx_hal_dma.c ****   * @retval HAL status
 966:Drivers/STM32F4xx_HAL_Driver/Src/stm32f4xx_hal_dma.c ****   */                      
 967:Drivers/STM32F4xx_HAL_Driver/Src/stm32f4xx_hal_dma.c **** HAL_StatusTypeDef HAL_DMA_RegisterCallback(DMA_HandleTypeDef *hdma, HAL_DMA_CallbackIDTypeDef Callb
 968:Drivers/STM32F4xx_HAL_Driver/Src/stm32f4xx_hal_dma.c **** {
 1867              		.loc 1 968 1
 1868              		.cfi_startproc
 1869              		@ args = 0, pretend = 0, frame = 24
 1870              		@ frame_needed = 1, uses_anonymous_args = 0
 1871              		@ link register save eliminated.
 1872 0000 80B4     		push	{r7}
 1873              	.LCFI41:
 1874              		.cfi_def_cfa_offset 4
 1875              		.cfi_offset 7, -4
 1876 0002 87B0     		sub	sp, sp, #28
 1877              	.LCFI42:
 1878              		.cfi_def_cfa_offset 32
 1879 0004 00AF     		add	r7, sp, #0
 1880              	.LCFI43:
ARM GAS  C:\Users\EI\AppData\Local\Temp\ccZQ2WtN.s 			page 51


 1881              		.cfi_def_cfa_register 7
 1882 0006 F860     		str	r0, [r7, #12]
 1883 0008 0B46     		mov	r3, r1
 1884 000a 7A60     		str	r2, [r7, #4]
 1885 000c FB72     		strb	r3, [r7, #11]
 969:Drivers/STM32F4xx_HAL_Driver/Src/stm32f4xx_hal_dma.c **** 
 970:Drivers/STM32F4xx_HAL_Driver/Src/stm32f4xx_hal_dma.c ****   HAL_StatusTypeDef status = HAL_OK;
 1886              		.loc 1 970 21
 1887 000e 0023     		movs	r3, #0
 1888 0010 FB75     		strb	r3, [r7, #23]
 971:Drivers/STM32F4xx_HAL_Driver/Src/stm32f4xx_hal_dma.c **** 
 972:Drivers/STM32F4xx_HAL_Driver/Src/stm32f4xx_hal_dma.c ****   /* Process locked */
 973:Drivers/STM32F4xx_HAL_Driver/Src/stm32f4xx_hal_dma.c ****   __HAL_LOCK(hdma);
 1889              		.loc 1 973 3
 1890 0012 FB68     		ldr	r3, [r7, #12]
 1891 0014 93F83430 		ldrb	r3, [r3, #52]	@ zero_extendqisi2
 1892 0018 012B     		cmp	r3, #1
 1893 001a 01D1     		bne	.L77
 1894              		.loc 1 973 3 is_stmt 0 discriminator 1
 1895 001c 0223     		movs	r3, #2
 1896 001e 3DE0     		b	.L78
 1897              	.L77:
 1898              		.loc 1 973 3 discriminator 2
 1899 0020 FB68     		ldr	r3, [r7, #12]
 1900 0022 0122     		movs	r2, #1
 1901 0024 83F83420 		strb	r2, [r3, #52]
 974:Drivers/STM32F4xx_HAL_Driver/Src/stm32f4xx_hal_dma.c **** 
 975:Drivers/STM32F4xx_HAL_Driver/Src/stm32f4xx_hal_dma.c ****   if(HAL_DMA_STATE_READY == hdma->State)
 1902              		.loc 1 975 33 is_stmt 1 discriminator 2
 1903 0028 FB68     		ldr	r3, [r7, #12]
 1904 002a 93F83530 		ldrb	r3, [r3, #53]
 1905 002e DBB2     		uxtb	r3, r3
 1906              		.loc 1 975 5 discriminator 2
 1907 0030 012B     		cmp	r3, #1
 1908 0032 2CD1     		bne	.L79
 976:Drivers/STM32F4xx_HAL_Driver/Src/stm32f4xx_hal_dma.c ****   {
 977:Drivers/STM32F4xx_HAL_Driver/Src/stm32f4xx_hal_dma.c ****     switch (CallbackID)
 1909              		.loc 1 977 5
 1910 0034 FB7A     		ldrb	r3, [r7, #11]	@ zero_extendqisi2
 1911 0036 052B     		cmp	r3, #5
 1912 0038 26D8     		bhi	.L80
 1913 003a 01A2     		adr	r2, .L82
 1914 003c 52F823F0 		ldr	pc, [r2, r3, lsl #2]
 1915              		.p2align 2
 1916              	.L82:
 1917 0040 59000000 		.word	.L87+1
 1918 0044 61000000 		.word	.L86+1
 1919 0048 69000000 		.word	.L85+1
 1920 004c 71000000 		.word	.L84+1
 1921 0050 79000000 		.word	.L83+1
 1922 0054 81000000 		.word	.L81+1
 1923              		.p2align 1
 1924              	.L87:
 978:Drivers/STM32F4xx_HAL_Driver/Src/stm32f4xx_hal_dma.c ****     {
 979:Drivers/STM32F4xx_HAL_Driver/Src/stm32f4xx_hal_dma.c ****     case  HAL_DMA_XFER_CPLT_CB_ID:
 980:Drivers/STM32F4xx_HAL_Driver/Src/stm32f4xx_hal_dma.c ****       hdma->XferCpltCallback = pCallback;
 1925              		.loc 1 980 30
ARM GAS  C:\Users\EI\AppData\Local\Temp\ccZQ2WtN.s 			page 52


 1926 0058 FB68     		ldr	r3, [r7, #12]
 1927 005a 7A68     		ldr	r2, [r7, #4]
 1928 005c DA63     		str	r2, [r3, #60]
 981:Drivers/STM32F4xx_HAL_Driver/Src/stm32f4xx_hal_dma.c ****       break;
 1929              		.loc 1 981 7
 1930 005e 18E0     		b	.L89
 1931              	.L86:
 982:Drivers/STM32F4xx_HAL_Driver/Src/stm32f4xx_hal_dma.c **** 
 983:Drivers/STM32F4xx_HAL_Driver/Src/stm32f4xx_hal_dma.c ****     case  HAL_DMA_XFER_HALFCPLT_CB_ID:
 984:Drivers/STM32F4xx_HAL_Driver/Src/stm32f4xx_hal_dma.c ****       hdma->XferHalfCpltCallback = pCallback;
 1932              		.loc 1 984 34
 1933 0060 FB68     		ldr	r3, [r7, #12]
 1934 0062 7A68     		ldr	r2, [r7, #4]
 1935 0064 1A64     		str	r2, [r3, #64]
 985:Drivers/STM32F4xx_HAL_Driver/Src/stm32f4xx_hal_dma.c ****       break;
 1936              		.loc 1 985 7
 1937 0066 14E0     		b	.L89
 1938              	.L85:
 986:Drivers/STM32F4xx_HAL_Driver/Src/stm32f4xx_hal_dma.c **** 
 987:Drivers/STM32F4xx_HAL_Driver/Src/stm32f4xx_hal_dma.c ****     case  HAL_DMA_XFER_M1CPLT_CB_ID:
 988:Drivers/STM32F4xx_HAL_Driver/Src/stm32f4xx_hal_dma.c ****       hdma->XferM1CpltCallback = pCallback;
 1939              		.loc 1 988 32
 1940 0068 FB68     		ldr	r3, [r7, #12]
 1941 006a 7A68     		ldr	r2, [r7, #4]
 1942 006c 5A64     		str	r2, [r3, #68]
 989:Drivers/STM32F4xx_HAL_Driver/Src/stm32f4xx_hal_dma.c ****       break;
 1943              		.loc 1 989 7
 1944 006e 10E0     		b	.L89
 1945              	.L84:
 990:Drivers/STM32F4xx_HAL_Driver/Src/stm32f4xx_hal_dma.c **** 
 991:Drivers/STM32F4xx_HAL_Driver/Src/stm32f4xx_hal_dma.c ****     case  HAL_DMA_XFER_M1HALFCPLT_CB_ID:
 992:Drivers/STM32F4xx_HAL_Driver/Src/stm32f4xx_hal_dma.c ****       hdma->XferM1HalfCpltCallback = pCallback;
 1946              		.loc 1 992 36
 1947 0070 FB68     		ldr	r3, [r7, #12]
 1948 0072 7A68     		ldr	r2, [r7, #4]
 1949 0074 9A64     		str	r2, [r3, #72]
 993:Drivers/STM32F4xx_HAL_Driver/Src/stm32f4xx_hal_dma.c ****       break;
 1950              		.loc 1 993 7
 1951 0076 0CE0     		b	.L89
 1952              	.L83:
 994:Drivers/STM32F4xx_HAL_Driver/Src/stm32f4xx_hal_dma.c **** 
 995:Drivers/STM32F4xx_HAL_Driver/Src/stm32f4xx_hal_dma.c ****     case  HAL_DMA_XFER_ERROR_CB_ID:
 996:Drivers/STM32F4xx_HAL_Driver/Src/stm32f4xx_hal_dma.c ****       hdma->XferErrorCallback = pCallback;
 1953              		.loc 1 996 31
 1954 0078 FB68     		ldr	r3, [r7, #12]
 1955 007a 7A68     		ldr	r2, [r7, #4]
 1956 007c DA64     		str	r2, [r3, #76]
 997:Drivers/STM32F4xx_HAL_Driver/Src/stm32f4xx_hal_dma.c ****       break;
 1957              		.loc 1 997 7
 1958 007e 08E0     		b	.L89
 1959              	.L81:
 998:Drivers/STM32F4xx_HAL_Driver/Src/stm32f4xx_hal_dma.c **** 
 999:Drivers/STM32F4xx_HAL_Driver/Src/stm32f4xx_hal_dma.c ****     case  HAL_DMA_XFER_ABORT_CB_ID:
1000:Drivers/STM32F4xx_HAL_Driver/Src/stm32f4xx_hal_dma.c ****       hdma->XferAbortCallback = pCallback;
 1960              		.loc 1 1000 31
 1961 0080 FB68     		ldr	r3, [r7, #12]
 1962 0082 7A68     		ldr	r2, [r7, #4]
ARM GAS  C:\Users\EI\AppData\Local\Temp\ccZQ2WtN.s 			page 53


 1963 0084 1A65     		str	r2, [r3, #80]
1001:Drivers/STM32F4xx_HAL_Driver/Src/stm32f4xx_hal_dma.c ****       break;
 1964              		.loc 1 1001 7
 1965 0086 04E0     		b	.L89
 1966              	.L80:
1002:Drivers/STM32F4xx_HAL_Driver/Src/stm32f4xx_hal_dma.c **** 
1003:Drivers/STM32F4xx_HAL_Driver/Src/stm32f4xx_hal_dma.c ****     default:
1004:Drivers/STM32F4xx_HAL_Driver/Src/stm32f4xx_hal_dma.c ****       /* Return error status */
1005:Drivers/STM32F4xx_HAL_Driver/Src/stm32f4xx_hal_dma.c ****       status =  HAL_ERROR;
 1967              		.loc 1 1005 14
 1968 0088 0123     		movs	r3, #1
 1969 008a FB75     		strb	r3, [r7, #23]
1006:Drivers/STM32F4xx_HAL_Driver/Src/stm32f4xx_hal_dma.c ****       break;
 1970              		.loc 1 1006 7
 1971 008c 01E0     		b	.L89
 1972              	.L79:
1007:Drivers/STM32F4xx_HAL_Driver/Src/stm32f4xx_hal_dma.c ****     }
1008:Drivers/STM32F4xx_HAL_Driver/Src/stm32f4xx_hal_dma.c ****   }
1009:Drivers/STM32F4xx_HAL_Driver/Src/stm32f4xx_hal_dma.c ****   else
1010:Drivers/STM32F4xx_HAL_Driver/Src/stm32f4xx_hal_dma.c ****   {
1011:Drivers/STM32F4xx_HAL_Driver/Src/stm32f4xx_hal_dma.c ****     /* Return error status */
1012:Drivers/STM32F4xx_HAL_Driver/Src/stm32f4xx_hal_dma.c ****     status =  HAL_ERROR;
 1973              		.loc 1 1012 12
 1974 008e 0123     		movs	r3, #1
 1975 0090 FB75     		strb	r3, [r7, #23]
 1976              	.L89:
1013:Drivers/STM32F4xx_HAL_Driver/Src/stm32f4xx_hal_dma.c ****   }
1014:Drivers/STM32F4xx_HAL_Driver/Src/stm32f4xx_hal_dma.c **** 
1015:Drivers/STM32F4xx_HAL_Driver/Src/stm32f4xx_hal_dma.c ****   /* Release Lock */
1016:Drivers/STM32F4xx_HAL_Driver/Src/stm32f4xx_hal_dma.c ****   __HAL_UNLOCK(hdma);
 1977              		.loc 1 1016 3
 1978 0092 FB68     		ldr	r3, [r7, #12]
 1979 0094 0022     		movs	r2, #0
 1980 0096 83F83420 		strb	r2, [r3, #52]
1017:Drivers/STM32F4xx_HAL_Driver/Src/stm32f4xx_hal_dma.c ****   
1018:Drivers/STM32F4xx_HAL_Driver/Src/stm32f4xx_hal_dma.c ****   return status;
 1981              		.loc 1 1018 10
 1982 009a FB7D     		ldrb	r3, [r7, #23]	@ zero_extendqisi2
 1983              	.L78:
1019:Drivers/STM32F4xx_HAL_Driver/Src/stm32f4xx_hal_dma.c **** }
 1984              		.loc 1 1019 1
 1985 009c 1846     		mov	r0, r3
 1986 009e 1C37     		adds	r7, r7, #28
 1987              	.LCFI44:
 1988              		.cfi_def_cfa_offset 4
 1989 00a0 BD46     		mov	sp, r7
 1990              	.LCFI45:
 1991              		.cfi_def_cfa_register 13
 1992              		@ sp needed
 1993 00a2 5DF8047B 		ldr	r7, [sp], #4
 1994              	.LCFI46:
 1995              		.cfi_restore 7
 1996              		.cfi_def_cfa_offset 0
 1997 00a6 7047     		bx	lr
 1998              		.cfi_endproc
 1999              	.LFE224:
 2001              		.section	.text.HAL_DMA_UnRegisterCallback,"ax",%progbits
ARM GAS  C:\Users\EI\AppData\Local\Temp\ccZQ2WtN.s 			page 54


 2002              		.align	1
 2003              		.global	HAL_DMA_UnRegisterCallback
 2004              		.syntax unified
 2005              		.thumb
 2006              		.thumb_func
 2007              		.fpu fpv4-sp-d16
 2009              	HAL_DMA_UnRegisterCallback:
 2010              	.LFB225:
1020:Drivers/STM32F4xx_HAL_Driver/Src/stm32f4xx_hal_dma.c **** 
1021:Drivers/STM32F4xx_HAL_Driver/Src/stm32f4xx_hal_dma.c **** /**
1022:Drivers/STM32F4xx_HAL_Driver/Src/stm32f4xx_hal_dma.c ****   * @brief  UnRegister callbacks
1023:Drivers/STM32F4xx_HAL_Driver/Src/stm32f4xx_hal_dma.c ****   * @param  hdma                 pointer to a DMA_HandleTypeDef structure that contains
1024:Drivers/STM32F4xx_HAL_Driver/Src/stm32f4xx_hal_dma.c ****   *                               the configuration information for the specified DMA Stream.
1025:Drivers/STM32F4xx_HAL_Driver/Src/stm32f4xx_hal_dma.c ****   * @param  CallbackID           User Callback identifier
1026:Drivers/STM32F4xx_HAL_Driver/Src/stm32f4xx_hal_dma.c ****   *                               a HAL_DMA_CallbackIDTypeDef ENUM as parameter.
1027:Drivers/STM32F4xx_HAL_Driver/Src/stm32f4xx_hal_dma.c ****   * @retval HAL status
1028:Drivers/STM32F4xx_HAL_Driver/Src/stm32f4xx_hal_dma.c ****   */              
1029:Drivers/STM32F4xx_HAL_Driver/Src/stm32f4xx_hal_dma.c **** HAL_StatusTypeDef HAL_DMA_UnRegisterCallback(DMA_HandleTypeDef *hdma, HAL_DMA_CallbackIDTypeDef Cal
1030:Drivers/STM32F4xx_HAL_Driver/Src/stm32f4xx_hal_dma.c **** {
 2011              		.loc 1 1030 1
 2012              		.cfi_startproc
 2013              		@ args = 0, pretend = 0, frame = 16
 2014              		@ frame_needed = 1, uses_anonymous_args = 0
 2015              		@ link register save eliminated.
 2016 0000 80B4     		push	{r7}
 2017              	.LCFI47:
 2018              		.cfi_def_cfa_offset 4
 2019              		.cfi_offset 7, -4
 2020 0002 85B0     		sub	sp, sp, #20
 2021              	.LCFI48:
 2022              		.cfi_def_cfa_offset 24
 2023 0004 00AF     		add	r7, sp, #0
 2024              	.LCFI49:
 2025              		.cfi_def_cfa_register 7
 2026 0006 7860     		str	r0, [r7, #4]
 2027 0008 0B46     		mov	r3, r1
 2028 000a FB70     		strb	r3, [r7, #3]
1031:Drivers/STM32F4xx_HAL_Driver/Src/stm32f4xx_hal_dma.c ****   HAL_StatusTypeDef status = HAL_OK;
 2029              		.loc 1 1031 21
 2030 000c 0023     		movs	r3, #0
 2031 000e FB73     		strb	r3, [r7, #15]
1032:Drivers/STM32F4xx_HAL_Driver/Src/stm32f4xx_hal_dma.c ****   
1033:Drivers/STM32F4xx_HAL_Driver/Src/stm32f4xx_hal_dma.c ****   /* Process locked */
1034:Drivers/STM32F4xx_HAL_Driver/Src/stm32f4xx_hal_dma.c ****   __HAL_LOCK(hdma);
 2032              		.loc 1 1034 3
 2033 0010 7B68     		ldr	r3, [r7, #4]
 2034 0012 93F83430 		ldrb	r3, [r3, #52]	@ zero_extendqisi2
 2035 0016 012B     		cmp	r3, #1
 2036 0018 01D1     		bne	.L91
 2037              		.loc 1 1034 3 is_stmt 0 discriminator 1
 2038 001a 0223     		movs	r3, #2
 2039 001c 53E0     		b	.L92
 2040              	.L91:
 2041              		.loc 1 1034 3 discriminator 2
 2042 001e 7B68     		ldr	r3, [r7, #4]
 2043 0020 0122     		movs	r2, #1
 2044 0022 83F83420 		strb	r2, [r3, #52]
ARM GAS  C:\Users\EI\AppData\Local\Temp\ccZQ2WtN.s 			page 55


1035:Drivers/STM32F4xx_HAL_Driver/Src/stm32f4xx_hal_dma.c ****   
1036:Drivers/STM32F4xx_HAL_Driver/Src/stm32f4xx_hal_dma.c ****   if(HAL_DMA_STATE_READY == hdma->State)
 2045              		.loc 1 1036 33 is_stmt 1 discriminator 2
 2046 0026 7B68     		ldr	r3, [r7, #4]
 2047 0028 93F83530 		ldrb	r3, [r3, #53]
 2048 002c DBB2     		uxtb	r3, r3
 2049              		.loc 1 1036 5 discriminator 2
 2050 002e 012B     		cmp	r3, #1
 2051 0030 42D1     		bne	.L93
1037:Drivers/STM32F4xx_HAL_Driver/Src/stm32f4xx_hal_dma.c ****   {
1038:Drivers/STM32F4xx_HAL_Driver/Src/stm32f4xx_hal_dma.c ****     switch (CallbackID)
 2052              		.loc 1 1038 5
 2053 0032 FB78     		ldrb	r3, [r7, #3]	@ zero_extendqisi2
 2054 0034 062B     		cmp	r3, #6
 2055 0036 3CD8     		bhi	.L94
 2056 0038 01A2     		adr	r2, .L96
 2057 003a 52F823F0 		ldr	pc, [r2, r3, lsl #2]
 2058 003e 00BF     		.p2align 2
 2059              	.L96:
 2060 0040 5D000000 		.word	.L102+1
 2061 0044 65000000 		.word	.L101+1
 2062 0048 6D000000 		.word	.L100+1
 2063 004c 75000000 		.word	.L99+1
 2064 0050 7D000000 		.word	.L98+1
 2065 0054 85000000 		.word	.L97+1
 2066 0058 8D000000 		.word	.L95+1
 2067              		.p2align 1
 2068              	.L102:
1039:Drivers/STM32F4xx_HAL_Driver/Src/stm32f4xx_hal_dma.c ****     {
1040:Drivers/STM32F4xx_HAL_Driver/Src/stm32f4xx_hal_dma.c ****     case  HAL_DMA_XFER_CPLT_CB_ID:
1041:Drivers/STM32F4xx_HAL_Driver/Src/stm32f4xx_hal_dma.c ****       hdma->XferCpltCallback = NULL;
 2069              		.loc 1 1041 30
 2070 005c 7B68     		ldr	r3, [r7, #4]
 2071 005e 0022     		movs	r2, #0
 2072 0060 DA63     		str	r2, [r3, #60]
1042:Drivers/STM32F4xx_HAL_Driver/Src/stm32f4xx_hal_dma.c ****       break;
 2073              		.loc 1 1042 7
 2074 0062 2BE0     		b	.L104
 2075              	.L101:
1043:Drivers/STM32F4xx_HAL_Driver/Src/stm32f4xx_hal_dma.c ****       
1044:Drivers/STM32F4xx_HAL_Driver/Src/stm32f4xx_hal_dma.c ****     case  HAL_DMA_XFER_HALFCPLT_CB_ID:
1045:Drivers/STM32F4xx_HAL_Driver/Src/stm32f4xx_hal_dma.c ****       hdma->XferHalfCpltCallback = NULL;
 2076              		.loc 1 1045 34
 2077 0064 7B68     		ldr	r3, [r7, #4]
 2078 0066 0022     		movs	r2, #0
 2079 0068 1A64     		str	r2, [r3, #64]
1046:Drivers/STM32F4xx_HAL_Driver/Src/stm32f4xx_hal_dma.c ****       break;
 2080              		.loc 1 1046 7
 2081 006a 27E0     		b	.L104
 2082              	.L100:
1047:Drivers/STM32F4xx_HAL_Driver/Src/stm32f4xx_hal_dma.c ****       
1048:Drivers/STM32F4xx_HAL_Driver/Src/stm32f4xx_hal_dma.c ****     case  HAL_DMA_XFER_M1CPLT_CB_ID:
1049:Drivers/STM32F4xx_HAL_Driver/Src/stm32f4xx_hal_dma.c ****       hdma->XferM1CpltCallback = NULL;
 2083              		.loc 1 1049 32
 2084 006c 7B68     		ldr	r3, [r7, #4]
 2085 006e 0022     		movs	r2, #0
 2086 0070 5A64     		str	r2, [r3, #68]
ARM GAS  C:\Users\EI\AppData\Local\Temp\ccZQ2WtN.s 			page 56


1050:Drivers/STM32F4xx_HAL_Driver/Src/stm32f4xx_hal_dma.c ****       break;
 2087              		.loc 1 1050 7
 2088 0072 23E0     		b	.L104
 2089              	.L99:
1051:Drivers/STM32F4xx_HAL_Driver/Src/stm32f4xx_hal_dma.c ****       
1052:Drivers/STM32F4xx_HAL_Driver/Src/stm32f4xx_hal_dma.c ****     case  HAL_DMA_XFER_M1HALFCPLT_CB_ID:
1053:Drivers/STM32F4xx_HAL_Driver/Src/stm32f4xx_hal_dma.c ****       hdma->XferM1HalfCpltCallback = NULL;
 2090              		.loc 1 1053 36
 2091 0074 7B68     		ldr	r3, [r7, #4]
 2092 0076 0022     		movs	r2, #0
 2093 0078 9A64     		str	r2, [r3, #72]
1054:Drivers/STM32F4xx_HAL_Driver/Src/stm32f4xx_hal_dma.c ****       break;
 2094              		.loc 1 1054 7
 2095 007a 1FE0     		b	.L104
 2096              	.L98:
1055:Drivers/STM32F4xx_HAL_Driver/Src/stm32f4xx_hal_dma.c ****       
1056:Drivers/STM32F4xx_HAL_Driver/Src/stm32f4xx_hal_dma.c ****     case  HAL_DMA_XFER_ERROR_CB_ID:
1057:Drivers/STM32F4xx_HAL_Driver/Src/stm32f4xx_hal_dma.c ****       hdma->XferErrorCallback = NULL;
 2097              		.loc 1 1057 31
 2098 007c 7B68     		ldr	r3, [r7, #4]
 2099 007e 0022     		movs	r2, #0
 2100 0080 DA64     		str	r2, [r3, #76]
1058:Drivers/STM32F4xx_HAL_Driver/Src/stm32f4xx_hal_dma.c ****       break;
 2101              		.loc 1 1058 7
 2102 0082 1BE0     		b	.L104
 2103              	.L97:
1059:Drivers/STM32F4xx_HAL_Driver/Src/stm32f4xx_hal_dma.c ****       
1060:Drivers/STM32F4xx_HAL_Driver/Src/stm32f4xx_hal_dma.c ****     case  HAL_DMA_XFER_ABORT_CB_ID:
1061:Drivers/STM32F4xx_HAL_Driver/Src/stm32f4xx_hal_dma.c ****       hdma->XferAbortCallback = NULL;
 2104              		.loc 1 1061 31
 2105 0084 7B68     		ldr	r3, [r7, #4]
 2106 0086 0022     		movs	r2, #0
 2107 0088 1A65     		str	r2, [r3, #80]
1062:Drivers/STM32F4xx_HAL_Driver/Src/stm32f4xx_hal_dma.c ****       break; 
 2108              		.loc 1 1062 7
 2109 008a 17E0     		b	.L104
 2110              	.L95:
1063:Drivers/STM32F4xx_HAL_Driver/Src/stm32f4xx_hal_dma.c ****       
1064:Drivers/STM32F4xx_HAL_Driver/Src/stm32f4xx_hal_dma.c ****     case   HAL_DMA_XFER_ALL_CB_ID:
1065:Drivers/STM32F4xx_HAL_Driver/Src/stm32f4xx_hal_dma.c ****       hdma->XferCpltCallback = NULL;
 2111              		.loc 1 1065 30
 2112 008c 7B68     		ldr	r3, [r7, #4]
 2113 008e 0022     		movs	r2, #0
 2114 0090 DA63     		str	r2, [r3, #60]
1066:Drivers/STM32F4xx_HAL_Driver/Src/stm32f4xx_hal_dma.c ****       hdma->XferHalfCpltCallback = NULL;
 2115              		.loc 1 1066 34
 2116 0092 7B68     		ldr	r3, [r7, #4]
 2117 0094 0022     		movs	r2, #0
 2118 0096 1A64     		str	r2, [r3, #64]
1067:Drivers/STM32F4xx_HAL_Driver/Src/stm32f4xx_hal_dma.c ****       hdma->XferM1CpltCallback = NULL;
 2119              		.loc 1 1067 32
 2120 0098 7B68     		ldr	r3, [r7, #4]
 2121 009a 0022     		movs	r2, #0
 2122 009c 5A64     		str	r2, [r3, #68]
1068:Drivers/STM32F4xx_HAL_Driver/Src/stm32f4xx_hal_dma.c ****       hdma->XferM1HalfCpltCallback = NULL;
 2123              		.loc 1 1068 36
 2124 009e 7B68     		ldr	r3, [r7, #4]
ARM GAS  C:\Users\EI\AppData\Local\Temp\ccZQ2WtN.s 			page 57


 2125 00a0 0022     		movs	r2, #0
 2126 00a2 9A64     		str	r2, [r3, #72]
1069:Drivers/STM32F4xx_HAL_Driver/Src/stm32f4xx_hal_dma.c ****       hdma->XferErrorCallback = NULL;
 2127              		.loc 1 1069 31
 2128 00a4 7B68     		ldr	r3, [r7, #4]
 2129 00a6 0022     		movs	r2, #0
 2130 00a8 DA64     		str	r2, [r3, #76]
1070:Drivers/STM32F4xx_HAL_Driver/Src/stm32f4xx_hal_dma.c ****       hdma->XferAbortCallback = NULL;
 2131              		.loc 1 1070 31
 2132 00aa 7B68     		ldr	r3, [r7, #4]
 2133 00ac 0022     		movs	r2, #0
 2134 00ae 1A65     		str	r2, [r3, #80]
1071:Drivers/STM32F4xx_HAL_Driver/Src/stm32f4xx_hal_dma.c ****       break; 
 2135              		.loc 1 1071 7
 2136 00b0 04E0     		b	.L104
 2137              	.L94:
1072:Drivers/STM32F4xx_HAL_Driver/Src/stm32f4xx_hal_dma.c ****       
1073:Drivers/STM32F4xx_HAL_Driver/Src/stm32f4xx_hal_dma.c ****     default:
1074:Drivers/STM32F4xx_HAL_Driver/Src/stm32f4xx_hal_dma.c ****       status = HAL_ERROR;
 2138              		.loc 1 1074 14
 2139 00b2 0123     		movs	r3, #1
 2140 00b4 FB73     		strb	r3, [r7, #15]
1075:Drivers/STM32F4xx_HAL_Driver/Src/stm32f4xx_hal_dma.c ****       break;
 2141              		.loc 1 1075 7
 2142 00b6 01E0     		b	.L104
 2143              	.L93:
1076:Drivers/STM32F4xx_HAL_Driver/Src/stm32f4xx_hal_dma.c ****     }
1077:Drivers/STM32F4xx_HAL_Driver/Src/stm32f4xx_hal_dma.c ****   }
1078:Drivers/STM32F4xx_HAL_Driver/Src/stm32f4xx_hal_dma.c ****   else
1079:Drivers/STM32F4xx_HAL_Driver/Src/stm32f4xx_hal_dma.c ****   {
1080:Drivers/STM32F4xx_HAL_Driver/Src/stm32f4xx_hal_dma.c ****     status = HAL_ERROR;
 2144              		.loc 1 1080 12
 2145 00b8 0123     		movs	r3, #1
 2146 00ba FB73     		strb	r3, [r7, #15]
 2147              	.L104:
1081:Drivers/STM32F4xx_HAL_Driver/Src/stm32f4xx_hal_dma.c ****   }
1082:Drivers/STM32F4xx_HAL_Driver/Src/stm32f4xx_hal_dma.c ****   
1083:Drivers/STM32F4xx_HAL_Driver/Src/stm32f4xx_hal_dma.c ****   /* Release Lock */
1084:Drivers/STM32F4xx_HAL_Driver/Src/stm32f4xx_hal_dma.c ****   __HAL_UNLOCK(hdma);
 2148              		.loc 1 1084 3
 2149 00bc 7B68     		ldr	r3, [r7, #4]
 2150 00be 0022     		movs	r2, #0
 2151 00c0 83F83420 		strb	r2, [r3, #52]
1085:Drivers/STM32F4xx_HAL_Driver/Src/stm32f4xx_hal_dma.c ****   
1086:Drivers/STM32F4xx_HAL_Driver/Src/stm32f4xx_hal_dma.c ****   return status;
 2152              		.loc 1 1086 10
 2153 00c4 FB7B     		ldrb	r3, [r7, #15]	@ zero_extendqisi2
 2154              	.L92:
1087:Drivers/STM32F4xx_HAL_Driver/Src/stm32f4xx_hal_dma.c **** }
 2155              		.loc 1 1087 1
 2156 00c6 1846     		mov	r0, r3
 2157 00c8 1437     		adds	r7, r7, #20
 2158              	.LCFI50:
 2159              		.cfi_def_cfa_offset 4
 2160 00ca BD46     		mov	sp, r7
 2161              	.LCFI51:
 2162              		.cfi_def_cfa_register 13
ARM GAS  C:\Users\EI\AppData\Local\Temp\ccZQ2WtN.s 			page 58


 2163              		@ sp needed
 2164 00cc 5DF8047B 		ldr	r7, [sp], #4
 2165              	.LCFI52:
 2166              		.cfi_restore 7
 2167              		.cfi_def_cfa_offset 0
 2168 00d0 7047     		bx	lr
 2169              		.cfi_endproc
 2170              	.LFE225:
 2172 00d2 00BF     		.section	.text.HAL_DMA_GetState,"ax",%progbits
 2173              		.align	1
 2174              		.global	HAL_DMA_GetState
 2175              		.syntax unified
 2176              		.thumb
 2177              		.thumb_func
 2178              		.fpu fpv4-sp-d16
 2180              	HAL_DMA_GetState:
 2181              	.LFB226:
1088:Drivers/STM32F4xx_HAL_Driver/Src/stm32f4xx_hal_dma.c **** 
1089:Drivers/STM32F4xx_HAL_Driver/Src/stm32f4xx_hal_dma.c **** /**
1090:Drivers/STM32F4xx_HAL_Driver/Src/stm32f4xx_hal_dma.c ****   * @}
1091:Drivers/STM32F4xx_HAL_Driver/Src/stm32f4xx_hal_dma.c ****   */
1092:Drivers/STM32F4xx_HAL_Driver/Src/stm32f4xx_hal_dma.c **** 
1093:Drivers/STM32F4xx_HAL_Driver/Src/stm32f4xx_hal_dma.c **** /** @addtogroup DMA_Exported_Functions_Group3
1094:Drivers/STM32F4xx_HAL_Driver/Src/stm32f4xx_hal_dma.c ****   *
1095:Drivers/STM32F4xx_HAL_Driver/Src/stm32f4xx_hal_dma.c **** @verbatim
1096:Drivers/STM32F4xx_HAL_Driver/Src/stm32f4xx_hal_dma.c ****  ===============================================================================
1097:Drivers/STM32F4xx_HAL_Driver/Src/stm32f4xx_hal_dma.c ****                     ##### State and Errors functions #####
1098:Drivers/STM32F4xx_HAL_Driver/Src/stm32f4xx_hal_dma.c ****  ===============================================================================
1099:Drivers/STM32F4xx_HAL_Driver/Src/stm32f4xx_hal_dma.c ****     [..]
1100:Drivers/STM32F4xx_HAL_Driver/Src/stm32f4xx_hal_dma.c ****     This subsection provides functions allowing to
1101:Drivers/STM32F4xx_HAL_Driver/Src/stm32f4xx_hal_dma.c ****       (+) Check the DMA state
1102:Drivers/STM32F4xx_HAL_Driver/Src/stm32f4xx_hal_dma.c ****       (+) Get error code
1103:Drivers/STM32F4xx_HAL_Driver/Src/stm32f4xx_hal_dma.c **** 
1104:Drivers/STM32F4xx_HAL_Driver/Src/stm32f4xx_hal_dma.c **** @endverbatim
1105:Drivers/STM32F4xx_HAL_Driver/Src/stm32f4xx_hal_dma.c ****   * @{
1106:Drivers/STM32F4xx_HAL_Driver/Src/stm32f4xx_hal_dma.c ****   */
1107:Drivers/STM32F4xx_HAL_Driver/Src/stm32f4xx_hal_dma.c **** 
1108:Drivers/STM32F4xx_HAL_Driver/Src/stm32f4xx_hal_dma.c **** /**
1109:Drivers/STM32F4xx_HAL_Driver/Src/stm32f4xx_hal_dma.c ****   * @brief  Returns the DMA state.
1110:Drivers/STM32F4xx_HAL_Driver/Src/stm32f4xx_hal_dma.c ****   * @param  hdma pointer to a DMA_HandleTypeDef structure that contains
1111:Drivers/STM32F4xx_HAL_Driver/Src/stm32f4xx_hal_dma.c ****   *               the configuration information for the specified DMA Stream.
1112:Drivers/STM32F4xx_HAL_Driver/Src/stm32f4xx_hal_dma.c ****   * @retval HAL state
1113:Drivers/STM32F4xx_HAL_Driver/Src/stm32f4xx_hal_dma.c ****   */
1114:Drivers/STM32F4xx_HAL_Driver/Src/stm32f4xx_hal_dma.c **** HAL_DMA_StateTypeDef HAL_DMA_GetState(DMA_HandleTypeDef *hdma)
1115:Drivers/STM32F4xx_HAL_Driver/Src/stm32f4xx_hal_dma.c **** {
 2182              		.loc 1 1115 1
 2183              		.cfi_startproc
 2184              		@ args = 0, pretend = 0, frame = 8
 2185              		@ frame_needed = 1, uses_anonymous_args = 0
 2186              		@ link register save eliminated.
 2187 0000 80B4     		push	{r7}
 2188              	.LCFI53:
 2189              		.cfi_def_cfa_offset 4
 2190              		.cfi_offset 7, -4
 2191 0002 83B0     		sub	sp, sp, #12
 2192              	.LCFI54:
 2193              		.cfi_def_cfa_offset 16
ARM GAS  C:\Users\EI\AppData\Local\Temp\ccZQ2WtN.s 			page 59


 2194 0004 00AF     		add	r7, sp, #0
 2195              	.LCFI55:
 2196              		.cfi_def_cfa_register 7
 2197 0006 7860     		str	r0, [r7, #4]
1116:Drivers/STM32F4xx_HAL_Driver/Src/stm32f4xx_hal_dma.c ****   return hdma->State;
 2198              		.loc 1 1116 14
 2199 0008 7B68     		ldr	r3, [r7, #4]
 2200 000a 93F83530 		ldrb	r3, [r3, #53]
 2201 000e DBB2     		uxtb	r3, r3
1117:Drivers/STM32F4xx_HAL_Driver/Src/stm32f4xx_hal_dma.c **** }
 2202              		.loc 1 1117 1
 2203 0010 1846     		mov	r0, r3
 2204 0012 0C37     		adds	r7, r7, #12
 2205              	.LCFI56:
 2206              		.cfi_def_cfa_offset 4
 2207 0014 BD46     		mov	sp, r7
 2208              	.LCFI57:
 2209              		.cfi_def_cfa_register 13
 2210              		@ sp needed
 2211 0016 5DF8047B 		ldr	r7, [sp], #4
 2212              	.LCFI58:
 2213              		.cfi_restore 7
 2214              		.cfi_def_cfa_offset 0
 2215 001a 7047     		bx	lr
 2216              		.cfi_endproc
 2217              	.LFE226:
 2219              		.section	.text.HAL_DMA_GetError,"ax",%progbits
 2220              		.align	1
 2221              		.global	HAL_DMA_GetError
 2222              		.syntax unified
 2223              		.thumb
 2224              		.thumb_func
 2225              		.fpu fpv4-sp-d16
 2227              	HAL_DMA_GetError:
 2228              	.LFB227:
1118:Drivers/STM32F4xx_HAL_Driver/Src/stm32f4xx_hal_dma.c **** 
1119:Drivers/STM32F4xx_HAL_Driver/Src/stm32f4xx_hal_dma.c **** /**
1120:Drivers/STM32F4xx_HAL_Driver/Src/stm32f4xx_hal_dma.c ****   * @brief  Return the DMA error code
1121:Drivers/STM32F4xx_HAL_Driver/Src/stm32f4xx_hal_dma.c ****   * @param  hdma  pointer to a DMA_HandleTypeDef structure that contains
1122:Drivers/STM32F4xx_HAL_Driver/Src/stm32f4xx_hal_dma.c ****   *              the configuration information for the specified DMA Stream.
1123:Drivers/STM32F4xx_HAL_Driver/Src/stm32f4xx_hal_dma.c ****   * @retval DMA Error Code
1124:Drivers/STM32F4xx_HAL_Driver/Src/stm32f4xx_hal_dma.c ****   */
1125:Drivers/STM32F4xx_HAL_Driver/Src/stm32f4xx_hal_dma.c **** uint32_t HAL_DMA_GetError(DMA_HandleTypeDef *hdma)
1126:Drivers/STM32F4xx_HAL_Driver/Src/stm32f4xx_hal_dma.c **** {
 2229              		.loc 1 1126 1
 2230              		.cfi_startproc
 2231              		@ args = 0, pretend = 0, frame = 8
 2232              		@ frame_needed = 1, uses_anonymous_args = 0
 2233              		@ link register save eliminated.
 2234 0000 80B4     		push	{r7}
 2235              	.LCFI59:
 2236              		.cfi_def_cfa_offset 4
 2237              		.cfi_offset 7, -4
 2238 0002 83B0     		sub	sp, sp, #12
 2239              	.LCFI60:
 2240              		.cfi_def_cfa_offset 16
 2241 0004 00AF     		add	r7, sp, #0
ARM GAS  C:\Users\EI\AppData\Local\Temp\ccZQ2WtN.s 			page 60


 2242              	.LCFI61:
 2243              		.cfi_def_cfa_register 7
 2244 0006 7860     		str	r0, [r7, #4]
1127:Drivers/STM32F4xx_HAL_Driver/Src/stm32f4xx_hal_dma.c ****   return hdma->ErrorCode;
 2245              		.loc 1 1127 14
 2246 0008 7B68     		ldr	r3, [r7, #4]
 2247 000a 5B6D     		ldr	r3, [r3, #84]
1128:Drivers/STM32F4xx_HAL_Driver/Src/stm32f4xx_hal_dma.c **** }
 2248              		.loc 1 1128 1
 2249 000c 1846     		mov	r0, r3
 2250 000e 0C37     		adds	r7, r7, #12
 2251              	.LCFI62:
 2252              		.cfi_def_cfa_offset 4
 2253 0010 BD46     		mov	sp, r7
 2254              	.LCFI63:
 2255              		.cfi_def_cfa_register 13
 2256              		@ sp needed
 2257 0012 5DF8047B 		ldr	r7, [sp], #4
 2258              	.LCFI64:
 2259              		.cfi_restore 7
 2260              		.cfi_def_cfa_offset 0
 2261 0016 7047     		bx	lr
 2262              		.cfi_endproc
 2263              	.LFE227:
 2265              		.section	.text.DMA_SetConfig,"ax",%progbits
 2266              		.align	1
 2267              		.syntax unified
 2268              		.thumb
 2269              		.thumb_func
 2270              		.fpu fpv4-sp-d16
 2272              	DMA_SetConfig:
 2273              	.LFB228:
1129:Drivers/STM32F4xx_HAL_Driver/Src/stm32f4xx_hal_dma.c **** 
1130:Drivers/STM32F4xx_HAL_Driver/Src/stm32f4xx_hal_dma.c **** /**
1131:Drivers/STM32F4xx_HAL_Driver/Src/stm32f4xx_hal_dma.c ****   * @}
1132:Drivers/STM32F4xx_HAL_Driver/Src/stm32f4xx_hal_dma.c ****   */
1133:Drivers/STM32F4xx_HAL_Driver/Src/stm32f4xx_hal_dma.c **** 
1134:Drivers/STM32F4xx_HAL_Driver/Src/stm32f4xx_hal_dma.c **** /**
1135:Drivers/STM32F4xx_HAL_Driver/Src/stm32f4xx_hal_dma.c ****   * @}
1136:Drivers/STM32F4xx_HAL_Driver/Src/stm32f4xx_hal_dma.c ****   */
1137:Drivers/STM32F4xx_HAL_Driver/Src/stm32f4xx_hal_dma.c **** 
1138:Drivers/STM32F4xx_HAL_Driver/Src/stm32f4xx_hal_dma.c **** /** @addtogroup DMA_Private_Functions
1139:Drivers/STM32F4xx_HAL_Driver/Src/stm32f4xx_hal_dma.c ****   * @{
1140:Drivers/STM32F4xx_HAL_Driver/Src/stm32f4xx_hal_dma.c ****   */
1141:Drivers/STM32F4xx_HAL_Driver/Src/stm32f4xx_hal_dma.c **** 
1142:Drivers/STM32F4xx_HAL_Driver/Src/stm32f4xx_hal_dma.c **** /**
1143:Drivers/STM32F4xx_HAL_Driver/Src/stm32f4xx_hal_dma.c ****   * @brief  Sets the DMA Transfer parameter.
1144:Drivers/STM32F4xx_HAL_Driver/Src/stm32f4xx_hal_dma.c ****   * @param  hdma       pointer to a DMA_HandleTypeDef structure that contains
1145:Drivers/STM32F4xx_HAL_Driver/Src/stm32f4xx_hal_dma.c ****   *                     the configuration information for the specified DMA Stream.
1146:Drivers/STM32F4xx_HAL_Driver/Src/stm32f4xx_hal_dma.c ****   * @param  SrcAddress The source memory Buffer address
1147:Drivers/STM32F4xx_HAL_Driver/Src/stm32f4xx_hal_dma.c ****   * @param  DstAddress The destination memory Buffer address
1148:Drivers/STM32F4xx_HAL_Driver/Src/stm32f4xx_hal_dma.c ****   * @param  DataLength The length of data to be transferred from source to destination
1149:Drivers/STM32F4xx_HAL_Driver/Src/stm32f4xx_hal_dma.c ****   * @retval HAL status
1150:Drivers/STM32F4xx_HAL_Driver/Src/stm32f4xx_hal_dma.c ****   */
1151:Drivers/STM32F4xx_HAL_Driver/Src/stm32f4xx_hal_dma.c **** static void DMA_SetConfig(DMA_HandleTypeDef *hdma, uint32_t SrcAddress, uint32_t DstAddress, uint32
1152:Drivers/STM32F4xx_HAL_Driver/Src/stm32f4xx_hal_dma.c **** {
 2274              		.loc 1 1152 1
ARM GAS  C:\Users\EI\AppData\Local\Temp\ccZQ2WtN.s 			page 61


 2275              		.cfi_startproc
 2276              		@ args = 0, pretend = 0, frame = 16
 2277              		@ frame_needed = 1, uses_anonymous_args = 0
 2278              		@ link register save eliminated.
 2279 0000 80B4     		push	{r7}
 2280              	.LCFI65:
 2281              		.cfi_def_cfa_offset 4
 2282              		.cfi_offset 7, -4
 2283 0002 85B0     		sub	sp, sp, #20
 2284              	.LCFI66:
 2285              		.cfi_def_cfa_offset 24
 2286 0004 00AF     		add	r7, sp, #0
 2287              	.LCFI67:
 2288              		.cfi_def_cfa_register 7
 2289 0006 F860     		str	r0, [r7, #12]
 2290 0008 B960     		str	r1, [r7, #8]
 2291 000a 7A60     		str	r2, [r7, #4]
 2292 000c 3B60     		str	r3, [r7]
1153:Drivers/STM32F4xx_HAL_Driver/Src/stm32f4xx_hal_dma.c ****   /* Clear DBM bit */
1154:Drivers/STM32F4xx_HAL_Driver/Src/stm32f4xx_hal_dma.c ****   hdma->Instance->CR &= (uint32_t)(~DMA_SxCR_DBM);
 2293              		.loc 1 1154 7
 2294 000e FB68     		ldr	r3, [r7, #12]
 2295 0010 1B68     		ldr	r3, [r3]
 2296              		.loc 1 1154 22
 2297 0012 1A68     		ldr	r2, [r3]
 2298              		.loc 1 1154 7
 2299 0014 FB68     		ldr	r3, [r7, #12]
 2300 0016 1B68     		ldr	r3, [r3]
 2301              		.loc 1 1154 22
 2302 0018 22F48022 		bic	r2, r2, #262144
 2303 001c 1A60     		str	r2, [r3]
1155:Drivers/STM32F4xx_HAL_Driver/Src/stm32f4xx_hal_dma.c **** 
1156:Drivers/STM32F4xx_HAL_Driver/Src/stm32f4xx_hal_dma.c ****   /* Configure DMA Stream data length */
1157:Drivers/STM32F4xx_HAL_Driver/Src/stm32f4xx_hal_dma.c ****   hdma->Instance->NDTR = DataLength;
 2304              		.loc 1 1157 7
 2305 001e FB68     		ldr	r3, [r7, #12]
 2306 0020 1B68     		ldr	r3, [r3]
 2307              		.loc 1 1157 24
 2308 0022 3A68     		ldr	r2, [r7]
 2309 0024 5A60     		str	r2, [r3, #4]
1158:Drivers/STM32F4xx_HAL_Driver/Src/stm32f4xx_hal_dma.c **** 
1159:Drivers/STM32F4xx_HAL_Driver/Src/stm32f4xx_hal_dma.c ****   /* Memory to Peripheral */
1160:Drivers/STM32F4xx_HAL_Driver/Src/stm32f4xx_hal_dma.c ****   if((hdma->Init.Direction) == DMA_MEMORY_TO_PERIPH)
 2310              		.loc 1 1160 17
 2311 0026 FB68     		ldr	r3, [r7, #12]
 2312 0028 9B68     		ldr	r3, [r3, #8]
 2313              		.loc 1 1160 5
 2314 002a 402B     		cmp	r3, #64
 2315 002c 08D1     		bne	.L110
1161:Drivers/STM32F4xx_HAL_Driver/Src/stm32f4xx_hal_dma.c ****   {
1162:Drivers/STM32F4xx_HAL_Driver/Src/stm32f4xx_hal_dma.c ****     /* Configure DMA Stream destination address */
1163:Drivers/STM32F4xx_HAL_Driver/Src/stm32f4xx_hal_dma.c ****     hdma->Instance->PAR = DstAddress;
 2316              		.loc 1 1163 9
 2317 002e FB68     		ldr	r3, [r7, #12]
 2318 0030 1B68     		ldr	r3, [r3]
 2319              		.loc 1 1163 25
 2320 0032 7A68     		ldr	r2, [r7, #4]
ARM GAS  C:\Users\EI\AppData\Local\Temp\ccZQ2WtN.s 			page 62


 2321 0034 9A60     		str	r2, [r3, #8]
1164:Drivers/STM32F4xx_HAL_Driver/Src/stm32f4xx_hal_dma.c **** 
1165:Drivers/STM32F4xx_HAL_Driver/Src/stm32f4xx_hal_dma.c ****     /* Configure DMA Stream source address */
1166:Drivers/STM32F4xx_HAL_Driver/Src/stm32f4xx_hal_dma.c ****     hdma->Instance->M0AR = SrcAddress;
 2322              		.loc 1 1166 9
 2323 0036 FB68     		ldr	r3, [r7, #12]
 2324 0038 1B68     		ldr	r3, [r3]
 2325              		.loc 1 1166 26
 2326 003a BA68     		ldr	r2, [r7, #8]
 2327 003c DA60     		str	r2, [r3, #12]
1167:Drivers/STM32F4xx_HAL_Driver/Src/stm32f4xx_hal_dma.c ****   }
1168:Drivers/STM32F4xx_HAL_Driver/Src/stm32f4xx_hal_dma.c ****   /* Peripheral to Memory */
1169:Drivers/STM32F4xx_HAL_Driver/Src/stm32f4xx_hal_dma.c ****   else
1170:Drivers/STM32F4xx_HAL_Driver/Src/stm32f4xx_hal_dma.c ****   {
1171:Drivers/STM32F4xx_HAL_Driver/Src/stm32f4xx_hal_dma.c ****     /* Configure DMA Stream source address */
1172:Drivers/STM32F4xx_HAL_Driver/Src/stm32f4xx_hal_dma.c ****     hdma->Instance->PAR = SrcAddress;
1173:Drivers/STM32F4xx_HAL_Driver/Src/stm32f4xx_hal_dma.c **** 
1174:Drivers/STM32F4xx_HAL_Driver/Src/stm32f4xx_hal_dma.c ****     /* Configure DMA Stream destination address */
1175:Drivers/STM32F4xx_HAL_Driver/Src/stm32f4xx_hal_dma.c ****     hdma->Instance->M0AR = DstAddress;
1176:Drivers/STM32F4xx_HAL_Driver/Src/stm32f4xx_hal_dma.c ****   }
1177:Drivers/STM32F4xx_HAL_Driver/Src/stm32f4xx_hal_dma.c **** }
 2328              		.loc 1 1177 1
 2329 003e 07E0     		b	.L112
 2330              	.L110:
1172:Drivers/STM32F4xx_HAL_Driver/Src/stm32f4xx_hal_dma.c **** 
 2331              		.loc 1 1172 9
 2332 0040 FB68     		ldr	r3, [r7, #12]
 2333 0042 1B68     		ldr	r3, [r3]
1172:Drivers/STM32F4xx_HAL_Driver/Src/stm32f4xx_hal_dma.c **** 
 2334              		.loc 1 1172 25
 2335 0044 BA68     		ldr	r2, [r7, #8]
 2336 0046 9A60     		str	r2, [r3, #8]
1175:Drivers/STM32F4xx_HAL_Driver/Src/stm32f4xx_hal_dma.c ****   }
 2337              		.loc 1 1175 9
 2338 0048 FB68     		ldr	r3, [r7, #12]
 2339 004a 1B68     		ldr	r3, [r3]
1175:Drivers/STM32F4xx_HAL_Driver/Src/stm32f4xx_hal_dma.c ****   }
 2340              		.loc 1 1175 26
 2341 004c 7A68     		ldr	r2, [r7, #4]
 2342 004e DA60     		str	r2, [r3, #12]
 2343              	.L112:
 2344              		.loc 1 1177 1
 2345 0050 00BF     		nop
 2346 0052 1437     		adds	r7, r7, #20
 2347              	.LCFI68:
 2348              		.cfi_def_cfa_offset 4
 2349 0054 BD46     		mov	sp, r7
 2350              	.LCFI69:
 2351              		.cfi_def_cfa_register 13
 2352              		@ sp needed
 2353 0056 5DF8047B 		ldr	r7, [sp], #4
 2354              	.LCFI70:
 2355              		.cfi_restore 7
 2356              		.cfi_def_cfa_offset 0
 2357 005a 7047     		bx	lr
 2358              		.cfi_endproc
 2359              	.LFE228:
ARM GAS  C:\Users\EI\AppData\Local\Temp\ccZQ2WtN.s 			page 63


 2361              		.section	.text.DMA_CalcBaseAndBitshift,"ax",%progbits
 2362              		.align	1
 2363              		.syntax unified
 2364              		.thumb
 2365              		.thumb_func
 2366              		.fpu fpv4-sp-d16
 2368              	DMA_CalcBaseAndBitshift:
 2369              	.LFB229:
1178:Drivers/STM32F4xx_HAL_Driver/Src/stm32f4xx_hal_dma.c **** 
1179:Drivers/STM32F4xx_HAL_Driver/Src/stm32f4xx_hal_dma.c **** /**
1180:Drivers/STM32F4xx_HAL_Driver/Src/stm32f4xx_hal_dma.c ****   * @brief  Returns the DMA Stream base address depending on stream number
1181:Drivers/STM32F4xx_HAL_Driver/Src/stm32f4xx_hal_dma.c ****   * @param  hdma       pointer to a DMA_HandleTypeDef structure that contains
1182:Drivers/STM32F4xx_HAL_Driver/Src/stm32f4xx_hal_dma.c ****   *                     the configuration information for the specified DMA Stream. 
1183:Drivers/STM32F4xx_HAL_Driver/Src/stm32f4xx_hal_dma.c ****   * @retval Stream base address
1184:Drivers/STM32F4xx_HAL_Driver/Src/stm32f4xx_hal_dma.c ****   */
1185:Drivers/STM32F4xx_HAL_Driver/Src/stm32f4xx_hal_dma.c **** static uint32_t DMA_CalcBaseAndBitshift(DMA_HandleTypeDef *hdma)
1186:Drivers/STM32F4xx_HAL_Driver/Src/stm32f4xx_hal_dma.c **** {
 2370              		.loc 1 1186 1
 2371              		.cfi_startproc
 2372              		@ args = 0, pretend = 0, frame = 16
 2373              		@ frame_needed = 1, uses_anonymous_args = 0
 2374              		@ link register save eliminated.
 2375 0000 80B4     		push	{r7}
 2376              	.LCFI71:
 2377              		.cfi_def_cfa_offset 4
 2378              		.cfi_offset 7, -4
 2379 0002 85B0     		sub	sp, sp, #20
 2380              	.LCFI72:
 2381              		.cfi_def_cfa_offset 24
 2382 0004 00AF     		add	r7, sp, #0
 2383              	.LCFI73:
 2384              		.cfi_def_cfa_register 7
 2385 0006 7860     		str	r0, [r7, #4]
1187:Drivers/STM32F4xx_HAL_Driver/Src/stm32f4xx_hal_dma.c ****   uint32_t stream_number = (((uint32_t)hdma->Instance & 0xFFU) - 16U) / 24U;
 2386              		.loc 1 1187 44
 2387 0008 7B68     		ldr	r3, [r7, #4]
 2388 000a 1B68     		ldr	r3, [r3]
 2389              		.loc 1 1187 55
 2390 000c DBB2     		uxtb	r3, r3
 2391              		.loc 1 1187 64
 2392 000e 103B     		subs	r3, r3, #16
 2393              		.loc 1 1187 12
 2394 0010 144A     		ldr	r2, .L117
 2395 0012 A2FB0323 		umull	r2, r3, r2, r3
 2396 0016 1B09     		lsrs	r3, r3, #4
 2397 0018 FB60     		str	r3, [r7, #12]
1188:Drivers/STM32F4xx_HAL_Driver/Src/stm32f4xx_hal_dma.c ****   
1189:Drivers/STM32F4xx_HAL_Driver/Src/stm32f4xx_hal_dma.c ****   /* lookup table for necessary bitshift of flags within status registers */
1190:Drivers/STM32F4xx_HAL_Driver/Src/stm32f4xx_hal_dma.c ****   static const uint8_t flagBitshiftOffset[8U] = {0U, 6U, 16U, 22U, 0U, 6U, 16U, 22U};
1191:Drivers/STM32F4xx_HAL_Driver/Src/stm32f4xx_hal_dma.c ****   hdma->StreamIndex = flagBitshiftOffset[stream_number];
 2398              		.loc 1 1191 41
 2399 001a 134A     		ldr	r2, .L117+4
 2400 001c FB68     		ldr	r3, [r7, #12]
 2401 001e 1344     		add	r3, r3, r2
 2402 0020 1B78     		ldrb	r3, [r3]	@ zero_extendqisi2
 2403 0022 1A46     		mov	r2, r3
 2404              		.loc 1 1191 21
ARM GAS  C:\Users\EI\AppData\Local\Temp\ccZQ2WtN.s 			page 64


 2405 0024 7B68     		ldr	r3, [r7, #4]
 2406 0026 DA65     		str	r2, [r3, #92]
1192:Drivers/STM32F4xx_HAL_Driver/Src/stm32f4xx_hal_dma.c ****   
1193:Drivers/STM32F4xx_HAL_Driver/Src/stm32f4xx_hal_dma.c ****   if (stream_number > 3U)
 2407              		.loc 1 1193 6
 2408 0028 FB68     		ldr	r3, [r7, #12]
 2409 002a 032B     		cmp	r3, #3
 2410 002c 09D9     		bls	.L114
1194:Drivers/STM32F4xx_HAL_Driver/Src/stm32f4xx_hal_dma.c ****   {
1195:Drivers/STM32F4xx_HAL_Driver/Src/stm32f4xx_hal_dma.c ****     /* return pointer to HISR and HIFCR */
1196:Drivers/STM32F4xx_HAL_Driver/Src/stm32f4xx_hal_dma.c ****     hdma->StreamBaseAddress = (((uint32_t)hdma->Instance & (uint32_t)(~0x3FFU)) + 4U);
 2411              		.loc 1 1196 47
 2412 002e 7B68     		ldr	r3, [r7, #4]
 2413 0030 1B68     		ldr	r3, [r3]
 2414              		.loc 1 1196 58
 2415 0032 23F47F73 		bic	r3, r3, #1020
 2416 0036 23F00303 		bic	r3, r3, #3
 2417              		.loc 1 1196 81
 2418 003a 1A1D     		adds	r2, r3, #4
 2419              		.loc 1 1196 29
 2420 003c 7B68     		ldr	r3, [r7, #4]
 2421 003e 9A65     		str	r2, [r3, #88]
 2422 0040 07E0     		b	.L115
 2423              	.L114:
1197:Drivers/STM32F4xx_HAL_Driver/Src/stm32f4xx_hal_dma.c ****   }
1198:Drivers/STM32F4xx_HAL_Driver/Src/stm32f4xx_hal_dma.c ****   else
1199:Drivers/STM32F4xx_HAL_Driver/Src/stm32f4xx_hal_dma.c ****   {
1200:Drivers/STM32F4xx_HAL_Driver/Src/stm32f4xx_hal_dma.c ****     /* return pointer to LISR and LIFCR */
1201:Drivers/STM32F4xx_HAL_Driver/Src/stm32f4xx_hal_dma.c ****     hdma->StreamBaseAddress = ((uint32_t)hdma->Instance & (uint32_t)(~0x3FFU));
 2424              		.loc 1 1201 46
 2425 0042 7B68     		ldr	r3, [r7, #4]
 2426 0044 1B68     		ldr	r3, [r3]
 2427              		.loc 1 1201 57
 2428 0046 23F47F73 		bic	r3, r3, #1020
 2429 004a 23F00303 		bic	r3, r3, #3
 2430              		.loc 1 1201 29
 2431 004e 7A68     		ldr	r2, [r7, #4]
 2432 0050 9365     		str	r3, [r2, #88]
 2433              	.L115:
1202:Drivers/STM32F4xx_HAL_Driver/Src/stm32f4xx_hal_dma.c ****   }
1203:Drivers/STM32F4xx_HAL_Driver/Src/stm32f4xx_hal_dma.c ****   
1204:Drivers/STM32F4xx_HAL_Driver/Src/stm32f4xx_hal_dma.c ****   return hdma->StreamBaseAddress;
 2434              		.loc 1 1204 14
 2435 0052 7B68     		ldr	r3, [r7, #4]
 2436 0054 9B6D     		ldr	r3, [r3, #88]
1205:Drivers/STM32F4xx_HAL_Driver/Src/stm32f4xx_hal_dma.c **** }
 2437              		.loc 1 1205 1
 2438 0056 1846     		mov	r0, r3
 2439 0058 1437     		adds	r7, r7, #20
 2440              	.LCFI74:
 2441              		.cfi_def_cfa_offset 4
 2442 005a BD46     		mov	sp, r7
 2443              	.LCFI75:
 2444              		.cfi_def_cfa_register 13
 2445              		@ sp needed
 2446 005c 5DF8047B 		ldr	r7, [sp], #4
 2447              	.LCFI76:
ARM GAS  C:\Users\EI\AppData\Local\Temp\ccZQ2WtN.s 			page 65


 2448              		.cfi_restore 7
 2449              		.cfi_def_cfa_offset 0
 2450 0060 7047     		bx	lr
 2451              	.L118:
 2452 0062 00BF     		.align	2
 2453              	.L117:
 2454 0064 ABAAAAAA 		.word	-1431655765
 2455 0068 00000000 		.word	flagBitshiftOffset.0
 2456              		.cfi_endproc
 2457              	.LFE229:
 2459              		.section	.text.DMA_CheckFifoParam,"ax",%progbits
 2460              		.align	1
 2461              		.syntax unified
 2462              		.thumb
 2463              		.thumb_func
 2464              		.fpu fpv4-sp-d16
 2466              	DMA_CheckFifoParam:
 2467              	.LFB230:
1206:Drivers/STM32F4xx_HAL_Driver/Src/stm32f4xx_hal_dma.c **** 
1207:Drivers/STM32F4xx_HAL_Driver/Src/stm32f4xx_hal_dma.c **** /**
1208:Drivers/STM32F4xx_HAL_Driver/Src/stm32f4xx_hal_dma.c ****   * @brief  Check compatibility between FIFO threshold level and size of the memory burst
1209:Drivers/STM32F4xx_HAL_Driver/Src/stm32f4xx_hal_dma.c ****   * @param  hdma       pointer to a DMA_HandleTypeDef structure that contains
1210:Drivers/STM32F4xx_HAL_Driver/Src/stm32f4xx_hal_dma.c ****   *                     the configuration information for the specified DMA Stream. 
1211:Drivers/STM32F4xx_HAL_Driver/Src/stm32f4xx_hal_dma.c ****   * @retval HAL status
1212:Drivers/STM32F4xx_HAL_Driver/Src/stm32f4xx_hal_dma.c ****   */
1213:Drivers/STM32F4xx_HAL_Driver/Src/stm32f4xx_hal_dma.c **** static HAL_StatusTypeDef DMA_CheckFifoParam(DMA_HandleTypeDef *hdma)
1214:Drivers/STM32F4xx_HAL_Driver/Src/stm32f4xx_hal_dma.c **** {
 2468              		.loc 1 1214 1
 2469              		.cfi_startproc
 2470              		@ args = 0, pretend = 0, frame = 16
 2471              		@ frame_needed = 1, uses_anonymous_args = 0
 2472              		@ link register save eliminated.
 2473 0000 80B4     		push	{r7}
 2474              	.LCFI77:
 2475              		.cfi_def_cfa_offset 4
 2476              		.cfi_offset 7, -4
 2477 0002 85B0     		sub	sp, sp, #20
 2478              	.LCFI78:
 2479              		.cfi_def_cfa_offset 24
 2480 0004 00AF     		add	r7, sp, #0
 2481              	.LCFI79:
 2482              		.cfi_def_cfa_register 7
 2483 0006 7860     		str	r0, [r7, #4]
1215:Drivers/STM32F4xx_HAL_Driver/Src/stm32f4xx_hal_dma.c ****   HAL_StatusTypeDef status = HAL_OK;
 2484              		.loc 1 1215 21
 2485 0008 0023     		movs	r3, #0
 2486 000a FB73     		strb	r3, [r7, #15]
1216:Drivers/STM32F4xx_HAL_Driver/Src/stm32f4xx_hal_dma.c ****   uint32_t tmp = hdma->Init.FIFOThreshold;
 2487              		.loc 1 1216 12
 2488 000c 7B68     		ldr	r3, [r7, #4]
 2489 000e 9B6A     		ldr	r3, [r3, #40]
 2490 0010 BB60     		str	r3, [r7, #8]
1217:Drivers/STM32F4xx_HAL_Driver/Src/stm32f4xx_hal_dma.c ****   
1218:Drivers/STM32F4xx_HAL_Driver/Src/stm32f4xx_hal_dma.c ****   /* Memory Data size equal to Byte */
1219:Drivers/STM32F4xx_HAL_Driver/Src/stm32f4xx_hal_dma.c ****   if(hdma->Init.MemDataAlignment == DMA_MDATAALIGN_BYTE)
 2491              		.loc 1 1219 16
 2492 0012 7B68     		ldr	r3, [r7, #4]
ARM GAS  C:\Users\EI\AppData\Local\Temp\ccZQ2WtN.s 			page 66


 2493 0014 9B69     		ldr	r3, [r3, #24]
 2494              		.loc 1 1219 5
 2495 0016 002B     		cmp	r3, #0
 2496 0018 1FD1     		bne	.L120
 2497 001a BB68     		ldr	r3, [r7, #8]
 2498 001c 032B     		cmp	r3, #3
 2499 001e 56D8     		bhi	.L144
 2500 0020 01A2     		adr	r2, .L123
 2501 0022 52F823F0 		ldr	pc, [r2, r3, lsl #2]
 2502 0026 00BF     		.p2align 2
 2503              	.L123:
 2504 0028 39000000 		.word	.L124+1
 2505 002c 4B000000 		.word	.L125+1
 2506 0030 39000000 		.word	.L124+1
 2507 0034 CF000000 		.word	.L144+1
 2508              		.p2align 1
 2509              	.L124:
1220:Drivers/STM32F4xx_HAL_Driver/Src/stm32f4xx_hal_dma.c ****   {
1221:Drivers/STM32F4xx_HAL_Driver/Src/stm32f4xx_hal_dma.c ****     switch (tmp)
1222:Drivers/STM32F4xx_HAL_Driver/Src/stm32f4xx_hal_dma.c ****     {
1223:Drivers/STM32F4xx_HAL_Driver/Src/stm32f4xx_hal_dma.c ****     case DMA_FIFO_THRESHOLD_1QUARTERFULL:
1224:Drivers/STM32F4xx_HAL_Driver/Src/stm32f4xx_hal_dma.c ****     case DMA_FIFO_THRESHOLD_3QUARTERSFULL:
1225:Drivers/STM32F4xx_HAL_Driver/Src/stm32f4xx_hal_dma.c ****       if ((hdma->Init.MemBurst & DMA_SxCR_MBURST_1) == DMA_SxCR_MBURST_1)
 2510              		.loc 1 1225 22
 2511 0038 7B68     		ldr	r3, [r7, #4]
 2512 003a DB6A     		ldr	r3, [r3, #44]
 2513              		.loc 1 1225 32
 2514 003c 03F08073 		and	r3, r3, #16777216
 2515              		.loc 1 1225 10
 2516 0040 002B     		cmp	r3, #0
 2517 0042 46D0     		beq	.L145
1226:Drivers/STM32F4xx_HAL_Driver/Src/stm32f4xx_hal_dma.c ****       {
1227:Drivers/STM32F4xx_HAL_Driver/Src/stm32f4xx_hal_dma.c ****         status = HAL_ERROR;
 2518              		.loc 1 1227 16
 2519 0044 0123     		movs	r3, #1
 2520 0046 FB73     		strb	r3, [r7, #15]
1228:Drivers/STM32F4xx_HAL_Driver/Src/stm32f4xx_hal_dma.c ****       }
1229:Drivers/STM32F4xx_HAL_Driver/Src/stm32f4xx_hal_dma.c ****       break;
 2521              		.loc 1 1229 7
 2522 0048 43E0     		b	.L145
 2523              	.L125:
1230:Drivers/STM32F4xx_HAL_Driver/Src/stm32f4xx_hal_dma.c ****     case DMA_FIFO_THRESHOLD_HALFFULL:
1231:Drivers/STM32F4xx_HAL_Driver/Src/stm32f4xx_hal_dma.c ****       if (hdma->Init.MemBurst == DMA_MBURST_INC16)
 2524              		.loc 1 1231 21
 2525 004a 7B68     		ldr	r3, [r7, #4]
 2526 004c DB6A     		ldr	r3, [r3, #44]
 2527              		.loc 1 1231 10
 2528 004e B3F1C07F 		cmp	r3, #25165824
 2529 0052 40D1     		bne	.L146
1232:Drivers/STM32F4xx_HAL_Driver/Src/stm32f4xx_hal_dma.c ****       {
1233:Drivers/STM32F4xx_HAL_Driver/Src/stm32f4xx_hal_dma.c ****         status = HAL_ERROR;
 2530              		.loc 1 1233 16
 2531 0054 0123     		movs	r3, #1
 2532 0056 FB73     		strb	r3, [r7, #15]
1234:Drivers/STM32F4xx_HAL_Driver/Src/stm32f4xx_hal_dma.c ****       }
1235:Drivers/STM32F4xx_HAL_Driver/Src/stm32f4xx_hal_dma.c ****       break;
 2533              		.loc 1 1235 7
ARM GAS  C:\Users\EI\AppData\Local\Temp\ccZQ2WtN.s 			page 67


 2534 0058 3DE0     		b	.L146
 2535              	.L120:
1236:Drivers/STM32F4xx_HAL_Driver/Src/stm32f4xx_hal_dma.c ****     case DMA_FIFO_THRESHOLD_FULL:
1237:Drivers/STM32F4xx_HAL_Driver/Src/stm32f4xx_hal_dma.c ****       break;
1238:Drivers/STM32F4xx_HAL_Driver/Src/stm32f4xx_hal_dma.c ****     default:
1239:Drivers/STM32F4xx_HAL_Driver/Src/stm32f4xx_hal_dma.c ****       break;
1240:Drivers/STM32F4xx_HAL_Driver/Src/stm32f4xx_hal_dma.c ****     }
1241:Drivers/STM32F4xx_HAL_Driver/Src/stm32f4xx_hal_dma.c ****   }
1242:Drivers/STM32F4xx_HAL_Driver/Src/stm32f4xx_hal_dma.c ****   
1243:Drivers/STM32F4xx_HAL_Driver/Src/stm32f4xx_hal_dma.c ****   /* Memory Data size equal to Half-Word */
1244:Drivers/STM32F4xx_HAL_Driver/Src/stm32f4xx_hal_dma.c ****   else if (hdma->Init.MemDataAlignment == DMA_MDATAALIGN_HALFWORD)
 2536              		.loc 1 1244 22
 2537 005a 7B68     		ldr	r3, [r7, #4]
 2538 005c 9B69     		ldr	r3, [r3, #24]
 2539              		.loc 1 1244 11
 2540 005e B3F5005F 		cmp	r3, #8192
 2541 0062 21D1     		bne	.L130
 2542 0064 BB68     		ldr	r3, [r7, #8]
 2543 0066 032B     		cmp	r3, #3
 2544 0068 37D8     		bhi	.L147
 2545 006a 01A2     		adr	r2, .L133
 2546 006c 52F823F0 		ldr	pc, [r2, r3, lsl #2]
 2547              		.p2align 2
 2548              	.L133:
 2549 0070 81000000 		.word	.L134+1
 2550 0074 87000000 		.word	.L135+1
 2551 0078 81000000 		.word	.L134+1
 2552 007c 99000000 		.word	.L132+1
 2553              		.p2align 1
 2554              	.L134:
1245:Drivers/STM32F4xx_HAL_Driver/Src/stm32f4xx_hal_dma.c ****   {
1246:Drivers/STM32F4xx_HAL_Driver/Src/stm32f4xx_hal_dma.c ****     switch (tmp)
1247:Drivers/STM32F4xx_HAL_Driver/Src/stm32f4xx_hal_dma.c ****     {
1248:Drivers/STM32F4xx_HAL_Driver/Src/stm32f4xx_hal_dma.c ****     case DMA_FIFO_THRESHOLD_1QUARTERFULL:
1249:Drivers/STM32F4xx_HAL_Driver/Src/stm32f4xx_hal_dma.c ****     case DMA_FIFO_THRESHOLD_3QUARTERSFULL:
1250:Drivers/STM32F4xx_HAL_Driver/Src/stm32f4xx_hal_dma.c ****       status = HAL_ERROR;
 2555              		.loc 1 1250 14
 2556 0080 0123     		movs	r3, #1
 2557 0082 FB73     		strb	r3, [r7, #15]
1251:Drivers/STM32F4xx_HAL_Driver/Src/stm32f4xx_hal_dma.c ****       break;
 2558              		.loc 1 1251 7
 2559 0084 30E0     		b	.L129
 2560              	.L135:
1252:Drivers/STM32F4xx_HAL_Driver/Src/stm32f4xx_hal_dma.c ****     case DMA_FIFO_THRESHOLD_HALFFULL:
1253:Drivers/STM32F4xx_HAL_Driver/Src/stm32f4xx_hal_dma.c ****       if ((hdma->Init.MemBurst & DMA_SxCR_MBURST_1) == DMA_SxCR_MBURST_1)
 2561              		.loc 1 1253 22
 2562 0086 7B68     		ldr	r3, [r7, #4]
 2563 0088 DB6A     		ldr	r3, [r3, #44]
 2564              		.loc 1 1253 32
 2565 008a 03F08073 		and	r3, r3, #16777216
 2566              		.loc 1 1253 10
 2567 008e 002B     		cmp	r3, #0
 2568 0090 25D0     		beq	.L148
1254:Drivers/STM32F4xx_HAL_Driver/Src/stm32f4xx_hal_dma.c ****       {
1255:Drivers/STM32F4xx_HAL_Driver/Src/stm32f4xx_hal_dma.c ****         status = HAL_ERROR;
 2569              		.loc 1 1255 16
 2570 0092 0123     		movs	r3, #1
ARM GAS  C:\Users\EI\AppData\Local\Temp\ccZQ2WtN.s 			page 68


 2571 0094 FB73     		strb	r3, [r7, #15]
1256:Drivers/STM32F4xx_HAL_Driver/Src/stm32f4xx_hal_dma.c ****       }
1257:Drivers/STM32F4xx_HAL_Driver/Src/stm32f4xx_hal_dma.c ****       break;
 2572              		.loc 1 1257 7
 2573 0096 22E0     		b	.L148
 2574              	.L132:
1258:Drivers/STM32F4xx_HAL_Driver/Src/stm32f4xx_hal_dma.c ****     case DMA_FIFO_THRESHOLD_FULL:
1259:Drivers/STM32F4xx_HAL_Driver/Src/stm32f4xx_hal_dma.c ****       if (hdma->Init.MemBurst == DMA_MBURST_INC16)
 2575              		.loc 1 1259 21
 2576 0098 7B68     		ldr	r3, [r7, #4]
 2577 009a DB6A     		ldr	r3, [r3, #44]
 2578              		.loc 1 1259 10
 2579 009c B3F1C07F 		cmp	r3, #25165824
 2580 00a0 1FD1     		bne	.L149
1260:Drivers/STM32F4xx_HAL_Driver/Src/stm32f4xx_hal_dma.c ****       {
1261:Drivers/STM32F4xx_HAL_Driver/Src/stm32f4xx_hal_dma.c ****         status = HAL_ERROR;
 2581              		.loc 1 1261 16
 2582 00a2 0123     		movs	r3, #1
 2583 00a4 FB73     		strb	r3, [r7, #15]
1262:Drivers/STM32F4xx_HAL_Driver/Src/stm32f4xx_hal_dma.c ****       }
1263:Drivers/STM32F4xx_HAL_Driver/Src/stm32f4xx_hal_dma.c ****       break;   
 2584              		.loc 1 1263 7
 2585 00a6 1CE0     		b	.L149
 2586              	.L130:
1264:Drivers/STM32F4xx_HAL_Driver/Src/stm32f4xx_hal_dma.c ****     default:
1265:Drivers/STM32F4xx_HAL_Driver/Src/stm32f4xx_hal_dma.c ****       break;
1266:Drivers/STM32F4xx_HAL_Driver/Src/stm32f4xx_hal_dma.c ****     }
1267:Drivers/STM32F4xx_HAL_Driver/Src/stm32f4xx_hal_dma.c ****   }
1268:Drivers/STM32F4xx_HAL_Driver/Src/stm32f4xx_hal_dma.c ****   
1269:Drivers/STM32F4xx_HAL_Driver/Src/stm32f4xx_hal_dma.c ****   /* Memory Data size equal to Word */
1270:Drivers/STM32F4xx_HAL_Driver/Src/stm32f4xx_hal_dma.c ****   else
1271:Drivers/STM32F4xx_HAL_Driver/Src/stm32f4xx_hal_dma.c ****   {
1272:Drivers/STM32F4xx_HAL_Driver/Src/stm32f4xx_hal_dma.c ****     switch (tmp)
 2587              		.loc 1 1272 5
 2588 00a8 BB68     		ldr	r3, [r7, #8]
 2589 00aa 022B     		cmp	r3, #2
 2590 00ac 03D9     		bls	.L139
 2591 00ae BB68     		ldr	r3, [r7, #8]
 2592 00b0 032B     		cmp	r3, #3
 2593 00b2 03D0     		beq	.L140
1273:Drivers/STM32F4xx_HAL_Driver/Src/stm32f4xx_hal_dma.c ****     {
1274:Drivers/STM32F4xx_HAL_Driver/Src/stm32f4xx_hal_dma.c ****     case DMA_FIFO_THRESHOLD_1QUARTERFULL:
1275:Drivers/STM32F4xx_HAL_Driver/Src/stm32f4xx_hal_dma.c ****     case DMA_FIFO_THRESHOLD_HALFFULL:
1276:Drivers/STM32F4xx_HAL_Driver/Src/stm32f4xx_hal_dma.c ****     case DMA_FIFO_THRESHOLD_3QUARTERSFULL:
1277:Drivers/STM32F4xx_HAL_Driver/Src/stm32f4xx_hal_dma.c ****       status = HAL_ERROR;
1278:Drivers/STM32F4xx_HAL_Driver/Src/stm32f4xx_hal_dma.c ****       break;
1279:Drivers/STM32F4xx_HAL_Driver/Src/stm32f4xx_hal_dma.c ****     case DMA_FIFO_THRESHOLD_FULL:
1280:Drivers/STM32F4xx_HAL_Driver/Src/stm32f4xx_hal_dma.c ****       if ((hdma->Init.MemBurst & DMA_SxCR_MBURST_1) == DMA_SxCR_MBURST_1)
1281:Drivers/STM32F4xx_HAL_Driver/Src/stm32f4xx_hal_dma.c ****       {
1282:Drivers/STM32F4xx_HAL_Driver/Src/stm32f4xx_hal_dma.c ****         status = HAL_ERROR;
1283:Drivers/STM32F4xx_HAL_Driver/Src/stm32f4xx_hal_dma.c ****       }
1284:Drivers/STM32F4xx_HAL_Driver/Src/stm32f4xx_hal_dma.c ****       break;
1285:Drivers/STM32F4xx_HAL_Driver/Src/stm32f4xx_hal_dma.c ****     default:
1286:Drivers/STM32F4xx_HAL_Driver/Src/stm32f4xx_hal_dma.c ****       break;
 2594              		.loc 1 1286 7
 2595 00b4 18E0     		b	.L129
 2596              	.L139:
ARM GAS  C:\Users\EI\AppData\Local\Temp\ccZQ2WtN.s 			page 69


1277:Drivers/STM32F4xx_HAL_Driver/Src/stm32f4xx_hal_dma.c ****       break;
 2597              		.loc 1 1277 14
 2598 00b6 0123     		movs	r3, #1
 2599 00b8 FB73     		strb	r3, [r7, #15]
1278:Drivers/STM32F4xx_HAL_Driver/Src/stm32f4xx_hal_dma.c ****     case DMA_FIFO_THRESHOLD_FULL:
 2600              		.loc 1 1278 7
 2601 00ba 15E0     		b	.L129
 2602              	.L140:
1280:Drivers/STM32F4xx_HAL_Driver/Src/stm32f4xx_hal_dma.c ****       {
 2603              		.loc 1 1280 22
 2604 00bc 7B68     		ldr	r3, [r7, #4]
 2605 00be DB6A     		ldr	r3, [r3, #44]
1280:Drivers/STM32F4xx_HAL_Driver/Src/stm32f4xx_hal_dma.c ****       {
 2606              		.loc 1 1280 32
 2607 00c0 03F08073 		and	r3, r3, #16777216
1280:Drivers/STM32F4xx_HAL_Driver/Src/stm32f4xx_hal_dma.c ****       {
 2608              		.loc 1 1280 10
 2609 00c4 002B     		cmp	r3, #0
 2610 00c6 0ED0     		beq	.L150
1282:Drivers/STM32F4xx_HAL_Driver/Src/stm32f4xx_hal_dma.c ****       }
 2611              		.loc 1 1282 16
 2612 00c8 0123     		movs	r3, #1
 2613 00ca FB73     		strb	r3, [r7, #15]
1284:Drivers/STM32F4xx_HAL_Driver/Src/stm32f4xx_hal_dma.c ****     default:
 2614              		.loc 1 1284 7
 2615 00cc 0BE0     		b	.L150
 2616              	.L144:
1239:Drivers/STM32F4xx_HAL_Driver/Src/stm32f4xx_hal_dma.c ****     }
 2617              		.loc 1 1239 7
 2618 00ce 00BF     		nop
 2619 00d0 0AE0     		b	.L129
 2620              	.L145:
1229:Drivers/STM32F4xx_HAL_Driver/Src/stm32f4xx_hal_dma.c ****     case DMA_FIFO_THRESHOLD_HALFFULL:
 2621              		.loc 1 1229 7
 2622 00d2 00BF     		nop
 2623 00d4 08E0     		b	.L129
 2624              	.L146:
1235:Drivers/STM32F4xx_HAL_Driver/Src/stm32f4xx_hal_dma.c ****     case DMA_FIFO_THRESHOLD_FULL:
 2625              		.loc 1 1235 7
 2626 00d6 00BF     		nop
 2627 00d8 06E0     		b	.L129
 2628              	.L147:
1265:Drivers/STM32F4xx_HAL_Driver/Src/stm32f4xx_hal_dma.c ****     }
 2629              		.loc 1 1265 7
 2630 00da 00BF     		nop
 2631 00dc 04E0     		b	.L129
 2632              	.L148:
1257:Drivers/STM32F4xx_HAL_Driver/Src/stm32f4xx_hal_dma.c ****     case DMA_FIFO_THRESHOLD_FULL:
 2633              		.loc 1 1257 7
 2634 00de 00BF     		nop
 2635 00e0 02E0     		b	.L129
 2636              	.L149:
1263:Drivers/STM32F4xx_HAL_Driver/Src/stm32f4xx_hal_dma.c ****     default:
 2637              		.loc 1 1263 7
 2638 00e2 00BF     		nop
 2639 00e4 00E0     		b	.L129
 2640              	.L150:
ARM GAS  C:\Users\EI\AppData\Local\Temp\ccZQ2WtN.s 			page 70


1284:Drivers/STM32F4xx_HAL_Driver/Src/stm32f4xx_hal_dma.c ****     default:
 2641              		.loc 1 1284 7
 2642 00e6 00BF     		nop
 2643              	.L129:
1287:Drivers/STM32F4xx_HAL_Driver/Src/stm32f4xx_hal_dma.c ****     }
1288:Drivers/STM32F4xx_HAL_Driver/Src/stm32f4xx_hal_dma.c ****   } 
1289:Drivers/STM32F4xx_HAL_Driver/Src/stm32f4xx_hal_dma.c ****   
1290:Drivers/STM32F4xx_HAL_Driver/Src/stm32f4xx_hal_dma.c ****   return status; 
 2644              		.loc 1 1290 10
 2645 00e8 FB7B     		ldrb	r3, [r7, #15]	@ zero_extendqisi2
1291:Drivers/STM32F4xx_HAL_Driver/Src/stm32f4xx_hal_dma.c **** }
 2646              		.loc 1 1291 1
 2647 00ea 1846     		mov	r0, r3
 2648 00ec 1437     		adds	r7, r7, #20
 2649              	.LCFI80:
 2650              		.cfi_def_cfa_offset 4
 2651 00ee BD46     		mov	sp, r7
 2652              	.LCFI81:
 2653              		.cfi_def_cfa_register 13
 2654              		@ sp needed
 2655 00f0 5DF8047B 		ldr	r7, [sp], #4
 2656              	.LCFI82:
 2657              		.cfi_restore 7
 2658              		.cfi_def_cfa_offset 0
 2659 00f4 7047     		bx	lr
 2660              		.cfi_endproc
 2661              	.LFE230:
 2663 00f6 00BF     		.section	.rodata.flagBitshiftOffset.0,"a"
 2664              		.align	2
 2667              	flagBitshiftOffset.0:
 2668 0000 00061016 		.ascii	"\000\006\020\026\000\006\020\026"
 2668      00061016 
 2669              		.text
 2670              	.Letext0:
 2671              		.file 2 "c:\\arm-gcc\\tools\\gcc-arm-none-eabi-10-2020-q4-major\\arm-none-eabi\\include\\machine\\
 2672              		.file 3 "c:\\arm-gcc\\tools\\gcc-arm-none-eabi-10-2020-q4-major\\arm-none-eabi\\include\\sys\\_std
 2673              		.file 4 "Drivers/CMSIS/Device/ST/STM32F4xx/Include/stm32f411xe.h"
 2674              		.file 5 "Drivers/CMSIS/Device/ST/STM32F4xx/Include/stm32f4xx.h"
 2675              		.file 6 "Drivers/STM32F4xx_HAL_Driver/Inc/stm32f4xx_hal_def.h"
 2676              		.file 7 "Drivers/STM32F4xx_HAL_Driver/Inc/stm32f4xx_hal_dma.h"
 2677              		.file 8 "Drivers/CMSIS/Device/ST/STM32F4xx/Include/system_stm32f4xx.h"
ARM GAS  C:\Users\EI\AppData\Local\Temp\ccZQ2WtN.s 			page 71

