ARM GAS  C:\Users\EI\AppData\Local\Temp\ccAB0Ist.s 			page 1


   1              		.cpu cortex-m4
   2              		.eabi_attribute 27, 1
   3              		.eabi_attribute 28, 1
   4              		.eabi_attribute 20, 1
   5              		.eabi_attribute 21, 1
   6              		.eabi_attribute 23, 3
   7              		.eabi_attribute 24, 1
   8              		.eabi_attribute 25, 1
   9              		.eabi_attribute 26, 1
  10              		.eabi_attribute 30, 6
  11              		.eabi_attribute 34, 1
  12              		.eabi_attribute 18, 4
  13              		.file	"stm32f4xx_hal_msp.c"
  14              		.text
  15              	.Ltext0:
  16              		.cfi_sections	.debug_frame
  17              		.section	.text.HAL_MspInit,"ax",%progbits
  18              		.align	1
  19              		.global	HAL_MspInit
  20              		.arch armv7e-m
  21              		.syntax unified
  22              		.thumb
  23              		.thumb_func
  24              		.fpu fpv4-sp-d16
  26              	HAL_MspInit:
  27              	.LFB216:
  28              		.file 1 "Core/Src/stm32f4xx_hal_msp.c"
   1:Core/Src/stm32f4xx_hal_msp.c **** /* USER CODE BEGIN Header */
   2:Core/Src/stm32f4xx_hal_msp.c **** /**
   3:Core/Src/stm32f4xx_hal_msp.c ****   ******************************************************************************
   4:Core/Src/stm32f4xx_hal_msp.c ****   * @file         stm32f4xx_hal_msp.c
   5:Core/Src/stm32f4xx_hal_msp.c ****   * @brief        This file provides code for the MSP Initialization
   6:Core/Src/stm32f4xx_hal_msp.c ****   *               and de-Initialization codes.
   7:Core/Src/stm32f4xx_hal_msp.c ****   ******************************************************************************
   8:Core/Src/stm32f4xx_hal_msp.c ****   * @attention
   9:Core/Src/stm32f4xx_hal_msp.c ****   *
  10:Core/Src/stm32f4xx_hal_msp.c ****   * Copyright (c) 2022 STMicroelectronics.
  11:Core/Src/stm32f4xx_hal_msp.c ****   * All rights reserved.
  12:Core/Src/stm32f4xx_hal_msp.c ****   *
  13:Core/Src/stm32f4xx_hal_msp.c ****   * This software is licensed under terms that can be found in the LICENSE file
  14:Core/Src/stm32f4xx_hal_msp.c ****   * in the root directory of this software component.
  15:Core/Src/stm32f4xx_hal_msp.c ****   * If no LICENSE file comes with this software, it is provided AS-IS.
  16:Core/Src/stm32f4xx_hal_msp.c ****   *
  17:Core/Src/stm32f4xx_hal_msp.c ****   ******************************************************************************
  18:Core/Src/stm32f4xx_hal_msp.c ****   */
  19:Core/Src/stm32f4xx_hal_msp.c **** /* USER CODE END Header */
  20:Core/Src/stm32f4xx_hal_msp.c **** 
  21:Core/Src/stm32f4xx_hal_msp.c **** /* Includes ------------------------------------------------------------------*/
  22:Core/Src/stm32f4xx_hal_msp.c **** #include "main.h"
  23:Core/Src/stm32f4xx_hal_msp.c **** /* USER CODE BEGIN Includes */
  24:Core/Src/stm32f4xx_hal_msp.c **** 
  25:Core/Src/stm32f4xx_hal_msp.c **** /* USER CODE END Includes */
  26:Core/Src/stm32f4xx_hal_msp.c **** extern DMA_HandleTypeDef hdma_usart1_rx;
  27:Core/Src/stm32f4xx_hal_msp.c **** 
  28:Core/Src/stm32f4xx_hal_msp.c **** extern DMA_HandleTypeDef hdma_usart1_tx;
  29:Core/Src/stm32f4xx_hal_msp.c **** 
  30:Core/Src/stm32f4xx_hal_msp.c **** /* Private typedef -----------------------------------------------------------*/
ARM GAS  C:\Users\EI\AppData\Local\Temp\ccAB0Ist.s 			page 2


  31:Core/Src/stm32f4xx_hal_msp.c **** /* USER CODE BEGIN TD */
  32:Core/Src/stm32f4xx_hal_msp.c **** 
  33:Core/Src/stm32f4xx_hal_msp.c **** /* USER CODE END TD */
  34:Core/Src/stm32f4xx_hal_msp.c **** 
  35:Core/Src/stm32f4xx_hal_msp.c **** /* Private define ------------------------------------------------------------*/
  36:Core/Src/stm32f4xx_hal_msp.c **** /* USER CODE BEGIN Define */
  37:Core/Src/stm32f4xx_hal_msp.c **** 
  38:Core/Src/stm32f4xx_hal_msp.c **** /* USER CODE END Define */
  39:Core/Src/stm32f4xx_hal_msp.c **** 
  40:Core/Src/stm32f4xx_hal_msp.c **** /* Private macro -------------------------------------------------------------*/
  41:Core/Src/stm32f4xx_hal_msp.c **** /* USER CODE BEGIN Macro */
  42:Core/Src/stm32f4xx_hal_msp.c **** 
  43:Core/Src/stm32f4xx_hal_msp.c **** /* USER CODE END Macro */
  44:Core/Src/stm32f4xx_hal_msp.c **** 
  45:Core/Src/stm32f4xx_hal_msp.c **** /* Private variables ---------------------------------------------------------*/
  46:Core/Src/stm32f4xx_hal_msp.c **** /* USER CODE BEGIN PV */
  47:Core/Src/stm32f4xx_hal_msp.c **** 
  48:Core/Src/stm32f4xx_hal_msp.c **** /* USER CODE END PV */
  49:Core/Src/stm32f4xx_hal_msp.c **** 
  50:Core/Src/stm32f4xx_hal_msp.c **** /* Private function prototypes -----------------------------------------------*/
  51:Core/Src/stm32f4xx_hal_msp.c **** /* USER CODE BEGIN PFP */
  52:Core/Src/stm32f4xx_hal_msp.c **** 
  53:Core/Src/stm32f4xx_hal_msp.c **** /* USER CODE END PFP */
  54:Core/Src/stm32f4xx_hal_msp.c **** 
  55:Core/Src/stm32f4xx_hal_msp.c **** /* External functions --------------------------------------------------------*/
  56:Core/Src/stm32f4xx_hal_msp.c **** /* USER CODE BEGIN ExternalFunctions */
  57:Core/Src/stm32f4xx_hal_msp.c **** 
  58:Core/Src/stm32f4xx_hal_msp.c **** /* USER CODE END ExternalFunctions */
  59:Core/Src/stm32f4xx_hal_msp.c **** 
  60:Core/Src/stm32f4xx_hal_msp.c **** /* USER CODE BEGIN 0 */
  61:Core/Src/stm32f4xx_hal_msp.c **** 
  62:Core/Src/stm32f4xx_hal_msp.c **** /* USER CODE END 0 */
  63:Core/Src/stm32f4xx_hal_msp.c **** 
  64:Core/Src/stm32f4xx_hal_msp.c **** void HAL_TIM_MspPostInit(TIM_HandleTypeDef *htim);
  65:Core/Src/stm32f4xx_hal_msp.c ****                                         /**
  66:Core/Src/stm32f4xx_hal_msp.c ****   * Initializes the Global MSP.
  67:Core/Src/stm32f4xx_hal_msp.c ****   */
  68:Core/Src/stm32f4xx_hal_msp.c **** void HAL_MspInit(void)
  69:Core/Src/stm32f4xx_hal_msp.c **** {
  29              		.loc 1 69 1
  30              		.cfi_startproc
  31              		@ args = 0, pretend = 0, frame = 8
  32              		@ frame_needed = 1, uses_anonymous_args = 0
  33 0000 80B5     		push	{r7, lr}
  34              	.LCFI0:
  35              		.cfi_def_cfa_offset 8
  36              		.cfi_offset 7, -8
  37              		.cfi_offset 14, -4
  38 0002 82B0     		sub	sp, sp, #8
  39              	.LCFI1:
  40              		.cfi_def_cfa_offset 16
  41 0004 00AF     		add	r7, sp, #0
  42              	.LCFI2:
  43              		.cfi_def_cfa_register 7
  44              	.LBB2:
  70:Core/Src/stm32f4xx_hal_msp.c ****   /* USER CODE BEGIN MspInit 0 */
  71:Core/Src/stm32f4xx_hal_msp.c **** 
ARM GAS  C:\Users\EI\AppData\Local\Temp\ccAB0Ist.s 			page 3


  72:Core/Src/stm32f4xx_hal_msp.c ****   /* USER CODE END MspInit 0 */
  73:Core/Src/stm32f4xx_hal_msp.c **** 
  74:Core/Src/stm32f4xx_hal_msp.c ****   __HAL_RCC_SYSCFG_CLK_ENABLE();
  45              		.loc 1 74 3
  46 0006 0023     		movs	r3, #0
  47 0008 7B60     		str	r3, [r7, #4]
  48 000a 124B     		ldr	r3, .L2
  49 000c 5B6C     		ldr	r3, [r3, #68]
  50 000e 114A     		ldr	r2, .L2
  51 0010 43F48043 		orr	r3, r3, #16384
  52 0014 5364     		str	r3, [r2, #68]
  53 0016 0F4B     		ldr	r3, .L2
  54 0018 5B6C     		ldr	r3, [r3, #68]
  55 001a 03F48043 		and	r3, r3, #16384
  56 001e 7B60     		str	r3, [r7, #4]
  57 0020 7B68     		ldr	r3, [r7, #4]
  58              	.LBE2:
  59              	.LBB3:
  75:Core/Src/stm32f4xx_hal_msp.c ****   __HAL_RCC_PWR_CLK_ENABLE();
  60              		.loc 1 75 3
  61 0022 0023     		movs	r3, #0
  62 0024 3B60     		str	r3, [r7]
  63 0026 0B4B     		ldr	r3, .L2
  64 0028 1B6C     		ldr	r3, [r3, #64]
  65 002a 0A4A     		ldr	r2, .L2
  66 002c 43F08053 		orr	r3, r3, #268435456
  67 0030 1364     		str	r3, [r2, #64]
  68 0032 084B     		ldr	r3, .L2
  69 0034 1B6C     		ldr	r3, [r3, #64]
  70 0036 03F08053 		and	r3, r3, #268435456
  71 003a 3B60     		str	r3, [r7]
  72 003c 3B68     		ldr	r3, [r7]
  73              	.LBE3:
  76:Core/Src/stm32f4xx_hal_msp.c **** 
  77:Core/Src/stm32f4xx_hal_msp.c ****   /* System interrupt init*/
  78:Core/Src/stm32f4xx_hal_msp.c ****   /* PendSV_IRQn interrupt configuration */
  79:Core/Src/stm32f4xx_hal_msp.c ****   HAL_NVIC_SetPriority(PendSV_IRQn, 15, 0);
  74              		.loc 1 79 3
  75 003e 0022     		movs	r2, #0
  76 0040 0F21     		movs	r1, #15
  77 0042 6FF00100 		mvn	r0, #1
  78 0046 FFF7FEFF 		bl	HAL_NVIC_SetPriority
  80:Core/Src/stm32f4xx_hal_msp.c **** 
  81:Core/Src/stm32f4xx_hal_msp.c ****   /* USER CODE BEGIN MspInit 1 */
  82:Core/Src/stm32f4xx_hal_msp.c **** 
  83:Core/Src/stm32f4xx_hal_msp.c ****   /* USER CODE END MspInit 1 */
  84:Core/Src/stm32f4xx_hal_msp.c **** }
  79              		.loc 1 84 1
  80 004a 00BF     		nop
  81 004c 0837     		adds	r7, r7, #8
  82              	.LCFI3:
  83              		.cfi_def_cfa_offset 8
  84 004e BD46     		mov	sp, r7
  85              	.LCFI4:
  86              		.cfi_def_cfa_register 13
  87              		@ sp needed
  88 0050 80BD     		pop	{r7, pc}
ARM GAS  C:\Users\EI\AppData\Local\Temp\ccAB0Ist.s 			page 4


  89              	.L3:
  90 0052 00BF     		.align	2
  91              	.L2:
  92 0054 00380240 		.word	1073887232
  93              		.cfi_endproc
  94              	.LFE216:
  96              		.section	.text.HAL_ADC_MspInit,"ax",%progbits
  97              		.align	1
  98              		.global	HAL_ADC_MspInit
  99              		.syntax unified
 100              		.thumb
 101              		.thumb_func
 102              		.fpu fpv4-sp-d16
 104              	HAL_ADC_MspInit:
 105              	.LFB217:
  85:Core/Src/stm32f4xx_hal_msp.c **** 
  86:Core/Src/stm32f4xx_hal_msp.c **** /**
  87:Core/Src/stm32f4xx_hal_msp.c **** * @brief ADC MSP Initialization
  88:Core/Src/stm32f4xx_hal_msp.c **** * This function configures the hardware resources used in this example
  89:Core/Src/stm32f4xx_hal_msp.c **** * @param hadc: ADC handle pointer
  90:Core/Src/stm32f4xx_hal_msp.c **** * @retval None
  91:Core/Src/stm32f4xx_hal_msp.c **** */
  92:Core/Src/stm32f4xx_hal_msp.c **** void HAL_ADC_MspInit(ADC_HandleTypeDef* hadc)
  93:Core/Src/stm32f4xx_hal_msp.c **** {
 106              		.loc 1 93 1
 107              		.cfi_startproc
 108              		@ args = 0, pretend = 0, frame = 40
 109              		@ frame_needed = 1, uses_anonymous_args = 0
 110 0000 80B5     		push	{r7, lr}
 111              	.LCFI5:
 112              		.cfi_def_cfa_offset 8
 113              		.cfi_offset 7, -8
 114              		.cfi_offset 14, -4
 115 0002 8AB0     		sub	sp, sp, #40
 116              	.LCFI6:
 117              		.cfi_def_cfa_offset 48
 118 0004 00AF     		add	r7, sp, #0
 119              	.LCFI7:
 120              		.cfi_def_cfa_register 7
 121 0006 7860     		str	r0, [r7, #4]
  94:Core/Src/stm32f4xx_hal_msp.c ****   GPIO_InitTypeDef GPIO_InitStruct = {0};
 122              		.loc 1 94 20
 123 0008 07F11403 		add	r3, r7, #20
 124 000c 0022     		movs	r2, #0
 125 000e 1A60     		str	r2, [r3]
 126 0010 5A60     		str	r2, [r3, #4]
 127 0012 9A60     		str	r2, [r3, #8]
 128 0014 DA60     		str	r2, [r3, #12]
 129 0016 1A61     		str	r2, [r3, #16]
  95:Core/Src/stm32f4xx_hal_msp.c ****   if(hadc->Instance==ADC1)
 130              		.loc 1 95 10
 131 0018 7B68     		ldr	r3, [r7, #4]
 132 001a 1B68     		ldr	r3, [r3]
 133              		.loc 1 95 5
 134 001c 174A     		ldr	r2, .L7
 135 001e 9342     		cmp	r3, r2
 136 0020 27D1     		bne	.L6
ARM GAS  C:\Users\EI\AppData\Local\Temp\ccAB0Ist.s 			page 5


 137              	.LBB4:
  96:Core/Src/stm32f4xx_hal_msp.c ****   {
  97:Core/Src/stm32f4xx_hal_msp.c ****   /* USER CODE BEGIN ADC1_MspInit 0 */
  98:Core/Src/stm32f4xx_hal_msp.c **** 
  99:Core/Src/stm32f4xx_hal_msp.c ****   /* USER CODE END ADC1_MspInit 0 */
 100:Core/Src/stm32f4xx_hal_msp.c ****     /* Peripheral clock enable */
 101:Core/Src/stm32f4xx_hal_msp.c ****     __HAL_RCC_ADC1_CLK_ENABLE();
 138              		.loc 1 101 5
 139 0022 0023     		movs	r3, #0
 140 0024 3B61     		str	r3, [r7, #16]
 141 0026 164B     		ldr	r3, .L7+4
 142 0028 5B6C     		ldr	r3, [r3, #68]
 143 002a 154A     		ldr	r2, .L7+4
 144 002c 43F48073 		orr	r3, r3, #256
 145 0030 5364     		str	r3, [r2, #68]
 146 0032 134B     		ldr	r3, .L7+4
 147 0034 5B6C     		ldr	r3, [r3, #68]
 148 0036 03F48073 		and	r3, r3, #256
 149 003a 3B61     		str	r3, [r7, #16]
 150 003c 3B69     		ldr	r3, [r7, #16]
 151              	.LBE4:
 152              	.LBB5:
 102:Core/Src/stm32f4xx_hal_msp.c **** 
 103:Core/Src/stm32f4xx_hal_msp.c ****     __HAL_RCC_GPIOA_CLK_ENABLE();
 153              		.loc 1 103 5
 154 003e 0023     		movs	r3, #0
 155 0040 FB60     		str	r3, [r7, #12]
 156 0042 0F4B     		ldr	r3, .L7+4
 157 0044 1B6B     		ldr	r3, [r3, #48]
 158 0046 0E4A     		ldr	r2, .L7+4
 159 0048 43F00103 		orr	r3, r3, #1
 160 004c 1363     		str	r3, [r2, #48]
 161 004e 0C4B     		ldr	r3, .L7+4
 162 0050 1B6B     		ldr	r3, [r3, #48]
 163 0052 03F00103 		and	r3, r3, #1
 164 0056 FB60     		str	r3, [r7, #12]
 165 0058 FB68     		ldr	r3, [r7, #12]
 166              	.LBE5:
 104:Core/Src/stm32f4xx_hal_msp.c ****     /**ADC1 GPIO Configuration
 105:Core/Src/stm32f4xx_hal_msp.c ****     PA0-WKUP     ------> ADC1_IN0
 106:Core/Src/stm32f4xx_hal_msp.c ****     */
 107:Core/Src/stm32f4xx_hal_msp.c ****     GPIO_InitStruct.Pin = TEMP_SENSOR_Pin;
 167              		.loc 1 107 25
 168 005a 0123     		movs	r3, #1
 169 005c 7B61     		str	r3, [r7, #20]
 108:Core/Src/stm32f4xx_hal_msp.c ****     GPIO_InitStruct.Mode = GPIO_MODE_ANALOG;
 170              		.loc 1 108 26
 171 005e 0323     		movs	r3, #3
 172 0060 BB61     		str	r3, [r7, #24]
 109:Core/Src/stm32f4xx_hal_msp.c ****     GPIO_InitStruct.Pull = GPIO_NOPULL;
 173              		.loc 1 109 26
 174 0062 0023     		movs	r3, #0
 175 0064 FB61     		str	r3, [r7, #28]
 110:Core/Src/stm32f4xx_hal_msp.c ****     HAL_GPIO_Init(TEMP_SENSOR_GPIO_Port, &GPIO_InitStruct);
 176              		.loc 1 110 5
 177 0066 07F11403 		add	r3, r7, #20
 178 006a 1946     		mov	r1, r3
ARM GAS  C:\Users\EI\AppData\Local\Temp\ccAB0Ist.s 			page 6


 179 006c 0548     		ldr	r0, .L7+8
 180 006e FFF7FEFF 		bl	HAL_GPIO_Init
 181              	.L6:
 111:Core/Src/stm32f4xx_hal_msp.c **** 
 112:Core/Src/stm32f4xx_hal_msp.c ****   /* USER CODE BEGIN ADC1_MspInit 1 */
 113:Core/Src/stm32f4xx_hal_msp.c **** 
 114:Core/Src/stm32f4xx_hal_msp.c ****   /* USER CODE END ADC1_MspInit 1 */
 115:Core/Src/stm32f4xx_hal_msp.c ****   }
 116:Core/Src/stm32f4xx_hal_msp.c **** 
 117:Core/Src/stm32f4xx_hal_msp.c **** }
 182              		.loc 1 117 1
 183 0072 00BF     		nop
 184 0074 2837     		adds	r7, r7, #40
 185              	.LCFI8:
 186              		.cfi_def_cfa_offset 8
 187 0076 BD46     		mov	sp, r7
 188              	.LCFI9:
 189              		.cfi_def_cfa_register 13
 190              		@ sp needed
 191 0078 80BD     		pop	{r7, pc}
 192              	.L8:
 193 007a 00BF     		.align	2
 194              	.L7:
 195 007c 00200140 		.word	1073815552
 196 0080 00380240 		.word	1073887232
 197 0084 00000240 		.word	1073872896
 198              		.cfi_endproc
 199              	.LFE217:
 201              		.section	.text.HAL_ADC_MspDeInit,"ax",%progbits
 202              		.align	1
 203              		.global	HAL_ADC_MspDeInit
 204              		.syntax unified
 205              		.thumb
 206              		.thumb_func
 207              		.fpu fpv4-sp-d16
 209              	HAL_ADC_MspDeInit:
 210              	.LFB218:
 118:Core/Src/stm32f4xx_hal_msp.c **** 
 119:Core/Src/stm32f4xx_hal_msp.c **** /**
 120:Core/Src/stm32f4xx_hal_msp.c **** * @brief ADC MSP De-Initialization
 121:Core/Src/stm32f4xx_hal_msp.c **** * This function freeze the hardware resources used in this example
 122:Core/Src/stm32f4xx_hal_msp.c **** * @param hadc: ADC handle pointer
 123:Core/Src/stm32f4xx_hal_msp.c **** * @retval None
 124:Core/Src/stm32f4xx_hal_msp.c **** */
 125:Core/Src/stm32f4xx_hal_msp.c **** void HAL_ADC_MspDeInit(ADC_HandleTypeDef* hadc)
 126:Core/Src/stm32f4xx_hal_msp.c **** {
 211              		.loc 1 126 1
 212              		.cfi_startproc
 213              		@ args = 0, pretend = 0, frame = 8
 214              		@ frame_needed = 1, uses_anonymous_args = 0
 215 0000 80B5     		push	{r7, lr}
 216              	.LCFI10:
 217              		.cfi_def_cfa_offset 8
 218              		.cfi_offset 7, -8
 219              		.cfi_offset 14, -4
 220 0002 82B0     		sub	sp, sp, #8
 221              	.LCFI11:
ARM GAS  C:\Users\EI\AppData\Local\Temp\ccAB0Ist.s 			page 7


 222              		.cfi_def_cfa_offset 16
 223 0004 00AF     		add	r7, sp, #0
 224              	.LCFI12:
 225              		.cfi_def_cfa_register 7
 226 0006 7860     		str	r0, [r7, #4]
 127:Core/Src/stm32f4xx_hal_msp.c ****   if(hadc->Instance==ADC1)
 227              		.loc 1 127 10
 228 0008 7B68     		ldr	r3, [r7, #4]
 229 000a 1B68     		ldr	r3, [r3]
 230              		.loc 1 127 5
 231 000c 084A     		ldr	r2, .L12
 232 000e 9342     		cmp	r3, r2
 233 0010 09D1     		bne	.L11
 128:Core/Src/stm32f4xx_hal_msp.c ****   {
 129:Core/Src/stm32f4xx_hal_msp.c ****   /* USER CODE BEGIN ADC1_MspDeInit 0 */
 130:Core/Src/stm32f4xx_hal_msp.c **** 
 131:Core/Src/stm32f4xx_hal_msp.c ****   /* USER CODE END ADC1_MspDeInit 0 */
 132:Core/Src/stm32f4xx_hal_msp.c ****     /* Peripheral clock disable */
 133:Core/Src/stm32f4xx_hal_msp.c ****     __HAL_RCC_ADC1_CLK_DISABLE();
 234              		.loc 1 133 5
 235 0012 084B     		ldr	r3, .L12+4
 236 0014 5B6C     		ldr	r3, [r3, #68]
 237 0016 074A     		ldr	r2, .L12+4
 238 0018 23F48073 		bic	r3, r3, #256
 239 001c 5364     		str	r3, [r2, #68]
 134:Core/Src/stm32f4xx_hal_msp.c **** 
 135:Core/Src/stm32f4xx_hal_msp.c ****     /**ADC1 GPIO Configuration
 136:Core/Src/stm32f4xx_hal_msp.c ****     PA0-WKUP     ------> ADC1_IN0
 137:Core/Src/stm32f4xx_hal_msp.c ****     */
 138:Core/Src/stm32f4xx_hal_msp.c ****     HAL_GPIO_DeInit(TEMP_SENSOR_GPIO_Port, TEMP_SENSOR_Pin);
 240              		.loc 1 138 5
 241 001e 0121     		movs	r1, #1
 242 0020 0548     		ldr	r0, .L12+8
 243 0022 FFF7FEFF 		bl	HAL_GPIO_DeInit
 244              	.L11:
 139:Core/Src/stm32f4xx_hal_msp.c **** 
 140:Core/Src/stm32f4xx_hal_msp.c ****   /* USER CODE BEGIN ADC1_MspDeInit 1 */
 141:Core/Src/stm32f4xx_hal_msp.c **** 
 142:Core/Src/stm32f4xx_hal_msp.c ****   /* USER CODE END ADC1_MspDeInit 1 */
 143:Core/Src/stm32f4xx_hal_msp.c ****   }
 144:Core/Src/stm32f4xx_hal_msp.c **** 
 145:Core/Src/stm32f4xx_hal_msp.c **** }
 245              		.loc 1 145 1
 246 0026 00BF     		nop
 247 0028 0837     		adds	r7, r7, #8
 248              	.LCFI13:
 249              		.cfi_def_cfa_offset 8
 250 002a BD46     		mov	sp, r7
 251              	.LCFI14:
 252              		.cfi_def_cfa_register 13
 253              		@ sp needed
 254 002c 80BD     		pop	{r7, pc}
 255              	.L13:
 256 002e 00BF     		.align	2
 257              	.L12:
 258 0030 00200140 		.word	1073815552
 259 0034 00380240 		.word	1073887232
ARM GAS  C:\Users\EI\AppData\Local\Temp\ccAB0Ist.s 			page 8


 260 0038 00000240 		.word	1073872896
 261              		.cfi_endproc
 262              	.LFE218:
 264              		.section	.text.HAL_TIM_Base_MspInit,"ax",%progbits
 265              		.align	1
 266              		.global	HAL_TIM_Base_MspInit
 267              		.syntax unified
 268              		.thumb
 269              		.thumb_func
 270              		.fpu fpv4-sp-d16
 272              	HAL_TIM_Base_MspInit:
 273              	.LFB219:
 146:Core/Src/stm32f4xx_hal_msp.c **** 
 147:Core/Src/stm32f4xx_hal_msp.c **** /**
 148:Core/Src/stm32f4xx_hal_msp.c **** * @brief TIM_Base MSP Initialization
 149:Core/Src/stm32f4xx_hal_msp.c **** * This function configures the hardware resources used in this example
 150:Core/Src/stm32f4xx_hal_msp.c **** * @param htim_base: TIM_Base handle pointer
 151:Core/Src/stm32f4xx_hal_msp.c **** * @retval None
 152:Core/Src/stm32f4xx_hal_msp.c **** */
 153:Core/Src/stm32f4xx_hal_msp.c **** void HAL_TIM_Base_MspInit(TIM_HandleTypeDef* htim_base)
 154:Core/Src/stm32f4xx_hal_msp.c **** {
 274              		.loc 1 154 1
 275              		.cfi_startproc
 276              		@ args = 0, pretend = 0, frame = 24
 277              		@ frame_needed = 1, uses_anonymous_args = 0
 278 0000 80B5     		push	{r7, lr}
 279              	.LCFI15:
 280              		.cfi_def_cfa_offset 8
 281              		.cfi_offset 7, -8
 282              		.cfi_offset 14, -4
 283 0002 86B0     		sub	sp, sp, #24
 284              	.LCFI16:
 285              		.cfi_def_cfa_offset 32
 286 0004 00AF     		add	r7, sp, #0
 287              	.LCFI17:
 288              		.cfi_def_cfa_register 7
 289 0006 7860     		str	r0, [r7, #4]
 155:Core/Src/stm32f4xx_hal_msp.c ****   if(htim_base->Instance==TIM1)
 290              		.loc 1 155 15
 291 0008 7B68     		ldr	r3, [r7, #4]
 292 000a 1B68     		ldr	r3, [r3]
 293              		.loc 1 155 5
 294 000c 224A     		ldr	r2, .L19
 295 000e 9342     		cmp	r3, r2
 296 0010 16D1     		bne	.L15
 297              	.LBB6:
 156:Core/Src/stm32f4xx_hal_msp.c ****   {
 157:Core/Src/stm32f4xx_hal_msp.c ****   /* USER CODE BEGIN TIM1_MspInit 0 */
 158:Core/Src/stm32f4xx_hal_msp.c **** 
 159:Core/Src/stm32f4xx_hal_msp.c ****   /* USER CODE END TIM1_MspInit 0 */
 160:Core/Src/stm32f4xx_hal_msp.c ****     /* Peripheral clock enable */
 161:Core/Src/stm32f4xx_hal_msp.c ****     __HAL_RCC_TIM1_CLK_ENABLE();
 298              		.loc 1 161 5
 299 0012 0023     		movs	r3, #0
 300 0014 7B61     		str	r3, [r7, #20]
 301 0016 214B     		ldr	r3, .L19+4
 302 0018 5B6C     		ldr	r3, [r3, #68]
ARM GAS  C:\Users\EI\AppData\Local\Temp\ccAB0Ist.s 			page 9


 303 001a 204A     		ldr	r2, .L19+4
 304 001c 43F00103 		orr	r3, r3, #1
 305 0020 5364     		str	r3, [r2, #68]
 306 0022 1E4B     		ldr	r3, .L19+4
 307 0024 5B6C     		ldr	r3, [r3, #68]
 308 0026 03F00103 		and	r3, r3, #1
 309 002a 7B61     		str	r3, [r7, #20]
 310 002c 7B69     		ldr	r3, [r7, #20]
 311              	.LBE6:
 162:Core/Src/stm32f4xx_hal_msp.c ****     /* TIM1 interrupt Init */
 163:Core/Src/stm32f4xx_hal_msp.c ****     HAL_NVIC_SetPriority(TIM1_TRG_COM_TIM11_IRQn, 5, 0);
 312              		.loc 1 163 5
 313 002e 0022     		movs	r2, #0
 314 0030 0521     		movs	r1, #5
 315 0032 1A20     		movs	r0, #26
 316 0034 FFF7FEFF 		bl	HAL_NVIC_SetPriority
 164:Core/Src/stm32f4xx_hal_msp.c ****     HAL_NVIC_EnableIRQ(TIM1_TRG_COM_TIM11_IRQn);
 317              		.loc 1 164 5
 318 0038 1A20     		movs	r0, #26
 319 003a FFF7FEFF 		bl	HAL_NVIC_EnableIRQ
 165:Core/Src/stm32f4xx_hal_msp.c ****   /* USER CODE BEGIN TIM1_MspInit 1 */
 166:Core/Src/stm32f4xx_hal_msp.c **** 
 167:Core/Src/stm32f4xx_hal_msp.c ****   /* USER CODE END TIM1_MspInit 1 */
 168:Core/Src/stm32f4xx_hal_msp.c ****   }
 169:Core/Src/stm32f4xx_hal_msp.c ****   else if(htim_base->Instance==TIM2)
 170:Core/Src/stm32f4xx_hal_msp.c ****   {
 171:Core/Src/stm32f4xx_hal_msp.c ****   /* USER CODE BEGIN TIM2_MspInit 0 */
 172:Core/Src/stm32f4xx_hal_msp.c **** 
 173:Core/Src/stm32f4xx_hal_msp.c ****   /* USER CODE END TIM2_MspInit 0 */
 174:Core/Src/stm32f4xx_hal_msp.c ****     /* Peripheral clock enable */
 175:Core/Src/stm32f4xx_hal_msp.c ****     __HAL_RCC_TIM2_CLK_ENABLE();
 176:Core/Src/stm32f4xx_hal_msp.c ****   /* USER CODE BEGIN TIM2_MspInit 1 */
 177:Core/Src/stm32f4xx_hal_msp.c **** 
 178:Core/Src/stm32f4xx_hal_msp.c ****   /* USER CODE END TIM2_MspInit 1 */
 179:Core/Src/stm32f4xx_hal_msp.c ****   }
 180:Core/Src/stm32f4xx_hal_msp.c ****   else if(htim_base->Instance==TIM3)
 181:Core/Src/stm32f4xx_hal_msp.c ****   {
 182:Core/Src/stm32f4xx_hal_msp.c ****   /* USER CODE BEGIN TIM3_MspInit 0 */
 183:Core/Src/stm32f4xx_hal_msp.c **** 
 184:Core/Src/stm32f4xx_hal_msp.c ****   /* USER CODE END TIM3_MspInit 0 */
 185:Core/Src/stm32f4xx_hal_msp.c ****     /* Peripheral clock enable */
 186:Core/Src/stm32f4xx_hal_msp.c ****     __HAL_RCC_TIM3_CLK_ENABLE();
 187:Core/Src/stm32f4xx_hal_msp.c ****   /* USER CODE BEGIN TIM3_MspInit 1 */
 188:Core/Src/stm32f4xx_hal_msp.c **** 
 189:Core/Src/stm32f4xx_hal_msp.c ****   /* USER CODE END TIM3_MspInit 1 */
 190:Core/Src/stm32f4xx_hal_msp.c ****   }
 191:Core/Src/stm32f4xx_hal_msp.c **** 
 192:Core/Src/stm32f4xx_hal_msp.c **** }
 320              		.loc 1 192 1
 321 003e 26E0     		b	.L18
 322              	.L15:
 169:Core/Src/stm32f4xx_hal_msp.c ****   {
 323              		.loc 1 169 20
 324 0040 7B68     		ldr	r3, [r7, #4]
 325 0042 1B68     		ldr	r3, [r3]
 169:Core/Src/stm32f4xx_hal_msp.c ****   {
 326              		.loc 1 169 10
ARM GAS  C:\Users\EI\AppData\Local\Temp\ccAB0Ist.s 			page 10


 327 0044 B3F1804F 		cmp	r3, #1073741824
 328 0048 0ED1     		bne	.L17
 329              	.LBB7:
 175:Core/Src/stm32f4xx_hal_msp.c ****   /* USER CODE BEGIN TIM2_MspInit 1 */
 330              		.loc 1 175 5
 331 004a 0023     		movs	r3, #0
 332 004c 3B61     		str	r3, [r7, #16]
 333 004e 134B     		ldr	r3, .L19+4
 334 0050 1B6C     		ldr	r3, [r3, #64]
 335 0052 124A     		ldr	r2, .L19+4
 336 0054 43F00103 		orr	r3, r3, #1
 337 0058 1364     		str	r3, [r2, #64]
 338 005a 104B     		ldr	r3, .L19+4
 339 005c 1B6C     		ldr	r3, [r3, #64]
 340 005e 03F00103 		and	r3, r3, #1
 341 0062 3B61     		str	r3, [r7, #16]
 342 0064 3B69     		ldr	r3, [r7, #16]
 343              	.LBE7:
 344              		.loc 1 192 1
 345 0066 12E0     		b	.L18
 346              	.L17:
 180:Core/Src/stm32f4xx_hal_msp.c ****   {
 347              		.loc 1 180 20
 348 0068 7B68     		ldr	r3, [r7, #4]
 349 006a 1B68     		ldr	r3, [r3]
 180:Core/Src/stm32f4xx_hal_msp.c ****   {
 350              		.loc 1 180 10
 351 006c 0C4A     		ldr	r2, .L19+8
 352 006e 9342     		cmp	r3, r2
 353 0070 0DD1     		bne	.L18
 354              	.LBB8:
 186:Core/Src/stm32f4xx_hal_msp.c ****   /* USER CODE BEGIN TIM3_MspInit 1 */
 355              		.loc 1 186 5
 356 0072 0023     		movs	r3, #0
 357 0074 FB60     		str	r3, [r7, #12]
 358 0076 094B     		ldr	r3, .L19+4
 359 0078 1B6C     		ldr	r3, [r3, #64]
 360 007a 084A     		ldr	r2, .L19+4
 361 007c 43F00203 		orr	r3, r3, #2
 362 0080 1364     		str	r3, [r2, #64]
 363 0082 064B     		ldr	r3, .L19+4
 364 0084 1B6C     		ldr	r3, [r3, #64]
 365 0086 03F00203 		and	r3, r3, #2
 366 008a FB60     		str	r3, [r7, #12]
 367 008c FB68     		ldr	r3, [r7, #12]
 368              	.L18:
 369              	.LBE8:
 370              		.loc 1 192 1
 371 008e 00BF     		nop
 372 0090 1837     		adds	r7, r7, #24
 373              	.LCFI18:
 374              		.cfi_def_cfa_offset 8
 375 0092 BD46     		mov	sp, r7
 376              	.LCFI19:
 377              		.cfi_def_cfa_register 13
 378              		@ sp needed
 379 0094 80BD     		pop	{r7, pc}
ARM GAS  C:\Users\EI\AppData\Local\Temp\ccAB0Ist.s 			page 11


 380              	.L20:
 381 0096 00BF     		.align	2
 382              	.L19:
 383 0098 00000140 		.word	1073807360
 384 009c 00380240 		.word	1073887232
 385 00a0 00040040 		.word	1073742848
 386              		.cfi_endproc
 387              	.LFE219:
 389              		.section	.text.HAL_TIM_MspPostInit,"ax",%progbits
 390              		.align	1
 391              		.global	HAL_TIM_MspPostInit
 392              		.syntax unified
 393              		.thumb
 394              		.thumb_func
 395              		.fpu fpv4-sp-d16
 397              	HAL_TIM_MspPostInit:
 398              	.LFB220:
 193:Core/Src/stm32f4xx_hal_msp.c **** 
 194:Core/Src/stm32f4xx_hal_msp.c **** void HAL_TIM_MspPostInit(TIM_HandleTypeDef* htim)
 195:Core/Src/stm32f4xx_hal_msp.c **** {
 399              		.loc 1 195 1
 400              		.cfi_startproc
 401              		@ args = 0, pretend = 0, frame = 40
 402              		@ frame_needed = 1, uses_anonymous_args = 0
 403 0000 80B5     		push	{r7, lr}
 404              	.LCFI20:
 405              		.cfi_def_cfa_offset 8
 406              		.cfi_offset 7, -8
 407              		.cfi_offset 14, -4
 408 0002 8AB0     		sub	sp, sp, #40
 409              	.LCFI21:
 410              		.cfi_def_cfa_offset 48
 411 0004 00AF     		add	r7, sp, #0
 412              	.LCFI22:
 413              		.cfi_def_cfa_register 7
 414 0006 7860     		str	r0, [r7, #4]
 196:Core/Src/stm32f4xx_hal_msp.c ****   GPIO_InitTypeDef GPIO_InitStruct = {0};
 415              		.loc 1 196 20
 416 0008 07F11403 		add	r3, r7, #20
 417 000c 0022     		movs	r2, #0
 418 000e 1A60     		str	r2, [r3]
 419 0010 5A60     		str	r2, [r3, #4]
 420 0012 9A60     		str	r2, [r3, #8]
 421 0014 DA60     		str	r2, [r3, #12]
 422 0016 1A61     		str	r2, [r3, #16]
 197:Core/Src/stm32f4xx_hal_msp.c ****   if(htim->Instance==TIM1)
 423              		.loc 1 197 10
 424 0018 7B68     		ldr	r3, [r7, #4]
 425 001a 1B68     		ldr	r3, [r3]
 426              		.loc 1 197 5
 427 001c 244A     		ldr	r2, .L25
 428 001e 9342     		cmp	r3, r2
 429 0020 1FD1     		bne	.L22
 430              	.LBB9:
 198:Core/Src/stm32f4xx_hal_msp.c ****   {
 199:Core/Src/stm32f4xx_hal_msp.c ****   /* USER CODE BEGIN TIM1_MspPostInit 0 */
 200:Core/Src/stm32f4xx_hal_msp.c **** 
ARM GAS  C:\Users\EI\AppData\Local\Temp\ccAB0Ist.s 			page 12


 201:Core/Src/stm32f4xx_hal_msp.c ****   /* USER CODE END TIM1_MspPostInit 0 */
 202:Core/Src/stm32f4xx_hal_msp.c ****     __HAL_RCC_GPIOA_CLK_ENABLE();
 431              		.loc 1 202 5
 432 0022 0023     		movs	r3, #0
 433 0024 3B61     		str	r3, [r7, #16]
 434 0026 234B     		ldr	r3, .L25+4
 435 0028 1B6B     		ldr	r3, [r3, #48]
 436 002a 224A     		ldr	r2, .L25+4
 437 002c 43F00103 		orr	r3, r3, #1
 438 0030 1363     		str	r3, [r2, #48]
 439 0032 204B     		ldr	r3, .L25+4
 440 0034 1B6B     		ldr	r3, [r3, #48]
 441 0036 03F00103 		and	r3, r3, #1
 442 003a 3B61     		str	r3, [r7, #16]
 443 003c 3B69     		ldr	r3, [r7, #16]
 444              	.LBE9:
 203:Core/Src/stm32f4xx_hal_msp.c ****     /**TIM1 GPIO Configuration
 204:Core/Src/stm32f4xx_hal_msp.c ****     PA8     ------> TIM1_CH1
 205:Core/Src/stm32f4xx_hal_msp.c ****     */
 206:Core/Src/stm32f4xx_hal_msp.c ****     GPIO_InitStruct.Pin = BRIDGE_4A_Pin;
 445              		.loc 1 206 25
 446 003e 4FF48073 		mov	r3, #256
 447 0042 7B61     		str	r3, [r7, #20]
 207:Core/Src/stm32f4xx_hal_msp.c ****     GPIO_InitStruct.Mode = GPIO_MODE_AF_PP;
 448              		.loc 1 207 26
 449 0044 0223     		movs	r3, #2
 450 0046 BB61     		str	r3, [r7, #24]
 208:Core/Src/stm32f4xx_hal_msp.c ****     GPIO_InitStruct.Pull = GPIO_NOPULL;
 451              		.loc 1 208 26
 452 0048 0023     		movs	r3, #0
 453 004a FB61     		str	r3, [r7, #28]
 209:Core/Src/stm32f4xx_hal_msp.c ****     GPIO_InitStruct.Speed = GPIO_SPEED_FREQ_LOW;
 454              		.loc 1 209 27
 455 004c 0023     		movs	r3, #0
 456 004e 3B62     		str	r3, [r7, #32]
 210:Core/Src/stm32f4xx_hal_msp.c ****     GPIO_InitStruct.Alternate = GPIO_AF1_TIM1;
 457              		.loc 1 210 31
 458 0050 0123     		movs	r3, #1
 459 0052 7B62     		str	r3, [r7, #36]
 211:Core/Src/stm32f4xx_hal_msp.c ****     HAL_GPIO_Init(BRIDGE_4A_GPIO_Port, &GPIO_InitStruct);
 460              		.loc 1 211 5
 461 0054 07F11403 		add	r3, r7, #20
 462 0058 1946     		mov	r1, r3
 463 005a 1748     		ldr	r0, .L25+8
 464 005c FFF7FEFF 		bl	HAL_GPIO_Init
 212:Core/Src/stm32f4xx_hal_msp.c **** 
 213:Core/Src/stm32f4xx_hal_msp.c ****   /* USER CODE BEGIN TIM1_MspPostInit 1 */
 214:Core/Src/stm32f4xx_hal_msp.c **** 
 215:Core/Src/stm32f4xx_hal_msp.c ****   /* USER CODE END TIM1_MspPostInit 1 */
 216:Core/Src/stm32f4xx_hal_msp.c ****   }
 217:Core/Src/stm32f4xx_hal_msp.c ****   else if(htim->Instance==TIM3)
 218:Core/Src/stm32f4xx_hal_msp.c ****   {
 219:Core/Src/stm32f4xx_hal_msp.c ****   /* USER CODE BEGIN TIM3_MspPostInit 0 */
 220:Core/Src/stm32f4xx_hal_msp.c **** 
 221:Core/Src/stm32f4xx_hal_msp.c ****   /* USER CODE END TIM3_MspPostInit 0 */
 222:Core/Src/stm32f4xx_hal_msp.c **** 
 223:Core/Src/stm32f4xx_hal_msp.c ****     __HAL_RCC_GPIOA_CLK_ENABLE();
ARM GAS  C:\Users\EI\AppData\Local\Temp\ccAB0Ist.s 			page 13


 224:Core/Src/stm32f4xx_hal_msp.c ****     /**TIM3 GPIO Configuration
 225:Core/Src/stm32f4xx_hal_msp.c ****     PA7     ------> TIM3_CH2
 226:Core/Src/stm32f4xx_hal_msp.c ****     */
 227:Core/Src/stm32f4xx_hal_msp.c ****     GPIO_InitStruct.Pin = BRIDGE_2A_Pin;
 228:Core/Src/stm32f4xx_hal_msp.c ****     GPIO_InitStruct.Mode = GPIO_MODE_AF_PP;
 229:Core/Src/stm32f4xx_hal_msp.c ****     GPIO_InitStruct.Pull = GPIO_NOPULL;
 230:Core/Src/stm32f4xx_hal_msp.c ****     GPIO_InitStruct.Speed = GPIO_SPEED_FREQ_LOW;
 231:Core/Src/stm32f4xx_hal_msp.c ****     GPIO_InitStruct.Alternate = GPIO_AF2_TIM3;
 232:Core/Src/stm32f4xx_hal_msp.c ****     HAL_GPIO_Init(BRIDGE_2A_GPIO_Port, &GPIO_InitStruct);
 233:Core/Src/stm32f4xx_hal_msp.c **** 
 234:Core/Src/stm32f4xx_hal_msp.c ****   /* USER CODE BEGIN TIM3_MspPostInit 1 */
 235:Core/Src/stm32f4xx_hal_msp.c **** 
 236:Core/Src/stm32f4xx_hal_msp.c ****   /* USER CODE END TIM3_MspPostInit 1 */
 237:Core/Src/stm32f4xx_hal_msp.c ****   }
 238:Core/Src/stm32f4xx_hal_msp.c **** 
 239:Core/Src/stm32f4xx_hal_msp.c **** }
 465              		.loc 1 239 1
 466 0060 22E0     		b	.L24
 467              	.L22:
 217:Core/Src/stm32f4xx_hal_msp.c ****   {
 468              		.loc 1 217 15
 469 0062 7B68     		ldr	r3, [r7, #4]
 470 0064 1B68     		ldr	r3, [r3]
 217:Core/Src/stm32f4xx_hal_msp.c ****   {
 471              		.loc 1 217 10
 472 0066 154A     		ldr	r2, .L25+12
 473 0068 9342     		cmp	r3, r2
 474 006a 1DD1     		bne	.L24
 475              	.LBB10:
 223:Core/Src/stm32f4xx_hal_msp.c ****     /**TIM3 GPIO Configuration
 476              		.loc 1 223 5
 477 006c 0023     		movs	r3, #0
 478 006e FB60     		str	r3, [r7, #12]
 479 0070 104B     		ldr	r3, .L25+4
 480 0072 1B6B     		ldr	r3, [r3, #48]
 481 0074 0F4A     		ldr	r2, .L25+4
 482 0076 43F00103 		orr	r3, r3, #1
 483 007a 1363     		str	r3, [r2, #48]
 484 007c 0D4B     		ldr	r3, .L25+4
 485 007e 1B6B     		ldr	r3, [r3, #48]
 486 0080 03F00103 		and	r3, r3, #1
 487 0084 FB60     		str	r3, [r7, #12]
 488 0086 FB68     		ldr	r3, [r7, #12]
 489              	.LBE10:
 227:Core/Src/stm32f4xx_hal_msp.c ****     GPIO_InitStruct.Mode = GPIO_MODE_AF_PP;
 490              		.loc 1 227 25
 491 0088 8023     		movs	r3, #128
 492 008a 7B61     		str	r3, [r7, #20]
 228:Core/Src/stm32f4xx_hal_msp.c ****     GPIO_InitStruct.Pull = GPIO_NOPULL;
 493              		.loc 1 228 26
 494 008c 0223     		movs	r3, #2
 495 008e BB61     		str	r3, [r7, #24]
 229:Core/Src/stm32f4xx_hal_msp.c ****     GPIO_InitStruct.Speed = GPIO_SPEED_FREQ_LOW;
 496              		.loc 1 229 26
 497 0090 0023     		movs	r3, #0
 498 0092 FB61     		str	r3, [r7, #28]
 230:Core/Src/stm32f4xx_hal_msp.c ****     GPIO_InitStruct.Alternate = GPIO_AF2_TIM3;
ARM GAS  C:\Users\EI\AppData\Local\Temp\ccAB0Ist.s 			page 14


 499              		.loc 1 230 27
 500 0094 0023     		movs	r3, #0
 501 0096 3B62     		str	r3, [r7, #32]
 231:Core/Src/stm32f4xx_hal_msp.c ****     HAL_GPIO_Init(BRIDGE_2A_GPIO_Port, &GPIO_InitStruct);
 502              		.loc 1 231 31
 503 0098 0223     		movs	r3, #2
 504 009a 7B62     		str	r3, [r7, #36]
 232:Core/Src/stm32f4xx_hal_msp.c **** 
 505              		.loc 1 232 5
 506 009c 07F11403 		add	r3, r7, #20
 507 00a0 1946     		mov	r1, r3
 508 00a2 0548     		ldr	r0, .L25+8
 509 00a4 FFF7FEFF 		bl	HAL_GPIO_Init
 510              	.L24:
 511              		.loc 1 239 1
 512 00a8 00BF     		nop
 513 00aa 2837     		adds	r7, r7, #40
 514              	.LCFI23:
 515              		.cfi_def_cfa_offset 8
 516 00ac BD46     		mov	sp, r7
 517              	.LCFI24:
 518              		.cfi_def_cfa_register 13
 519              		@ sp needed
 520 00ae 80BD     		pop	{r7, pc}
 521              	.L26:
 522              		.align	2
 523              	.L25:
 524 00b0 00000140 		.word	1073807360
 525 00b4 00380240 		.word	1073887232
 526 00b8 00000240 		.word	1073872896
 527 00bc 00040040 		.word	1073742848
 528              		.cfi_endproc
 529              	.LFE220:
 531              		.section	.text.HAL_TIM_Base_MspDeInit,"ax",%progbits
 532              		.align	1
 533              		.global	HAL_TIM_Base_MspDeInit
 534              		.syntax unified
 535              		.thumb
 536              		.thumb_func
 537              		.fpu fpv4-sp-d16
 539              	HAL_TIM_Base_MspDeInit:
 540              	.LFB221:
 240:Core/Src/stm32f4xx_hal_msp.c **** /**
 241:Core/Src/stm32f4xx_hal_msp.c **** * @brief TIM_Base MSP De-Initialization
 242:Core/Src/stm32f4xx_hal_msp.c **** * This function freeze the hardware resources used in this example
 243:Core/Src/stm32f4xx_hal_msp.c **** * @param htim_base: TIM_Base handle pointer
 244:Core/Src/stm32f4xx_hal_msp.c **** * @retval None
 245:Core/Src/stm32f4xx_hal_msp.c **** */
 246:Core/Src/stm32f4xx_hal_msp.c **** void HAL_TIM_Base_MspDeInit(TIM_HandleTypeDef* htim_base)
 247:Core/Src/stm32f4xx_hal_msp.c **** {
 541              		.loc 1 247 1
 542              		.cfi_startproc
 543              		@ args = 0, pretend = 0, frame = 8
 544              		@ frame_needed = 1, uses_anonymous_args = 0
 545 0000 80B5     		push	{r7, lr}
 546              	.LCFI25:
 547              		.cfi_def_cfa_offset 8
ARM GAS  C:\Users\EI\AppData\Local\Temp\ccAB0Ist.s 			page 15


 548              		.cfi_offset 7, -8
 549              		.cfi_offset 14, -4
 550 0002 82B0     		sub	sp, sp, #8
 551              	.LCFI26:
 552              		.cfi_def_cfa_offset 16
 553 0004 00AF     		add	r7, sp, #0
 554              	.LCFI27:
 555              		.cfi_def_cfa_register 7
 556 0006 7860     		str	r0, [r7, #4]
 248:Core/Src/stm32f4xx_hal_msp.c ****   if(htim_base->Instance==TIM1)
 557              		.loc 1 248 15
 558 0008 7B68     		ldr	r3, [r7, #4]
 559 000a 1B68     		ldr	r3, [r3]
 560              		.loc 1 248 5
 561 000c 134A     		ldr	r2, .L32
 562 000e 9342     		cmp	r3, r2
 563 0010 09D1     		bne	.L28
 249:Core/Src/stm32f4xx_hal_msp.c ****   {
 250:Core/Src/stm32f4xx_hal_msp.c ****   /* USER CODE BEGIN TIM1_MspDeInit 0 */
 251:Core/Src/stm32f4xx_hal_msp.c **** 
 252:Core/Src/stm32f4xx_hal_msp.c ****   /* USER CODE END TIM1_MspDeInit 0 */
 253:Core/Src/stm32f4xx_hal_msp.c ****     /* Peripheral clock disable */
 254:Core/Src/stm32f4xx_hal_msp.c ****     __HAL_RCC_TIM1_CLK_DISABLE();
 564              		.loc 1 254 5
 565 0012 134B     		ldr	r3, .L32+4
 566 0014 5B6C     		ldr	r3, [r3, #68]
 567 0016 124A     		ldr	r2, .L32+4
 568 0018 23F00103 		bic	r3, r3, #1
 569 001c 5364     		str	r3, [r2, #68]
 255:Core/Src/stm32f4xx_hal_msp.c **** 
 256:Core/Src/stm32f4xx_hal_msp.c ****     /* TIM1 interrupt DeInit */
 257:Core/Src/stm32f4xx_hal_msp.c ****     HAL_NVIC_DisableIRQ(TIM1_TRG_COM_TIM11_IRQn);
 570              		.loc 1 257 5
 571 001e 1A20     		movs	r0, #26
 572 0020 FFF7FEFF 		bl	HAL_NVIC_DisableIRQ
 258:Core/Src/stm32f4xx_hal_msp.c ****   /* USER CODE BEGIN TIM1_MspDeInit 1 */
 259:Core/Src/stm32f4xx_hal_msp.c **** 
 260:Core/Src/stm32f4xx_hal_msp.c ****   /* USER CODE END TIM1_MspDeInit 1 */
 261:Core/Src/stm32f4xx_hal_msp.c ****   }
 262:Core/Src/stm32f4xx_hal_msp.c ****   else if(htim_base->Instance==TIM2)
 263:Core/Src/stm32f4xx_hal_msp.c ****   {
 264:Core/Src/stm32f4xx_hal_msp.c ****   /* USER CODE BEGIN TIM2_MspDeInit 0 */
 265:Core/Src/stm32f4xx_hal_msp.c **** 
 266:Core/Src/stm32f4xx_hal_msp.c ****   /* USER CODE END TIM2_MspDeInit 0 */
 267:Core/Src/stm32f4xx_hal_msp.c ****     /* Peripheral clock disable */
 268:Core/Src/stm32f4xx_hal_msp.c ****     __HAL_RCC_TIM2_CLK_DISABLE();
 269:Core/Src/stm32f4xx_hal_msp.c ****   /* USER CODE BEGIN TIM2_MspDeInit 1 */
 270:Core/Src/stm32f4xx_hal_msp.c **** 
 271:Core/Src/stm32f4xx_hal_msp.c ****   /* USER CODE END TIM2_MspDeInit 1 */
 272:Core/Src/stm32f4xx_hal_msp.c ****   }
 273:Core/Src/stm32f4xx_hal_msp.c ****   else if(htim_base->Instance==TIM3)
 274:Core/Src/stm32f4xx_hal_msp.c ****   {
 275:Core/Src/stm32f4xx_hal_msp.c ****   /* USER CODE BEGIN TIM3_MspDeInit 0 */
 276:Core/Src/stm32f4xx_hal_msp.c **** 
 277:Core/Src/stm32f4xx_hal_msp.c ****   /* USER CODE END TIM3_MspDeInit 0 */
 278:Core/Src/stm32f4xx_hal_msp.c ****     /* Peripheral clock disable */
 279:Core/Src/stm32f4xx_hal_msp.c ****     __HAL_RCC_TIM3_CLK_DISABLE();
ARM GAS  C:\Users\EI\AppData\Local\Temp\ccAB0Ist.s 			page 16


 280:Core/Src/stm32f4xx_hal_msp.c ****   /* USER CODE BEGIN TIM3_MspDeInit 1 */
 281:Core/Src/stm32f4xx_hal_msp.c **** 
 282:Core/Src/stm32f4xx_hal_msp.c ****   /* USER CODE END TIM3_MspDeInit 1 */
 283:Core/Src/stm32f4xx_hal_msp.c ****   }
 284:Core/Src/stm32f4xx_hal_msp.c **** 
 285:Core/Src/stm32f4xx_hal_msp.c **** }
 573              		.loc 1 285 1
 574 0024 16E0     		b	.L31
 575              	.L28:
 262:Core/Src/stm32f4xx_hal_msp.c ****   {
 576              		.loc 1 262 20
 577 0026 7B68     		ldr	r3, [r7, #4]
 578 0028 1B68     		ldr	r3, [r3]
 262:Core/Src/stm32f4xx_hal_msp.c ****   {
 579              		.loc 1 262 10
 580 002a B3F1804F 		cmp	r3, #1073741824
 581 002e 06D1     		bne	.L30
 268:Core/Src/stm32f4xx_hal_msp.c ****   /* USER CODE BEGIN TIM2_MspDeInit 1 */
 582              		.loc 1 268 5
 583 0030 0B4B     		ldr	r3, .L32+4
 584 0032 1B6C     		ldr	r3, [r3, #64]
 585 0034 0A4A     		ldr	r2, .L32+4
 586 0036 23F00103 		bic	r3, r3, #1
 587 003a 1364     		str	r3, [r2, #64]
 588              		.loc 1 285 1
 589 003c 0AE0     		b	.L31
 590              	.L30:
 273:Core/Src/stm32f4xx_hal_msp.c ****   {
 591              		.loc 1 273 20
 592 003e 7B68     		ldr	r3, [r7, #4]
 593 0040 1B68     		ldr	r3, [r3]
 273:Core/Src/stm32f4xx_hal_msp.c ****   {
 594              		.loc 1 273 10
 595 0042 084A     		ldr	r2, .L32+8
 596 0044 9342     		cmp	r3, r2
 597 0046 05D1     		bne	.L31
 279:Core/Src/stm32f4xx_hal_msp.c ****   /* USER CODE BEGIN TIM3_MspDeInit 1 */
 598              		.loc 1 279 5
 599 0048 054B     		ldr	r3, .L32+4
 600 004a 1B6C     		ldr	r3, [r3, #64]
 601 004c 044A     		ldr	r2, .L32+4
 602 004e 23F00203 		bic	r3, r3, #2
 603 0052 1364     		str	r3, [r2, #64]
 604              	.L31:
 605              		.loc 1 285 1
 606 0054 00BF     		nop
 607 0056 0837     		adds	r7, r7, #8
 608              	.LCFI28:
 609              		.cfi_def_cfa_offset 8
 610 0058 BD46     		mov	sp, r7
 611              	.LCFI29:
 612              		.cfi_def_cfa_register 13
 613              		@ sp needed
 614 005a 80BD     		pop	{r7, pc}
 615              	.L33:
 616              		.align	2
 617              	.L32:
ARM GAS  C:\Users\EI\AppData\Local\Temp\ccAB0Ist.s 			page 17


 618 005c 00000140 		.word	1073807360
 619 0060 00380240 		.word	1073887232
 620 0064 00040040 		.word	1073742848
 621              		.cfi_endproc
 622              	.LFE221:
 624              		.section	.text.HAL_UART_MspInit,"ax",%progbits
 625              		.align	1
 626              		.global	HAL_UART_MspInit
 627              		.syntax unified
 628              		.thumb
 629              		.thumb_func
 630              		.fpu fpv4-sp-d16
 632              	HAL_UART_MspInit:
 633              	.LFB222:
 286:Core/Src/stm32f4xx_hal_msp.c **** 
 287:Core/Src/stm32f4xx_hal_msp.c **** /**
 288:Core/Src/stm32f4xx_hal_msp.c **** * @brief UART MSP Initialization
 289:Core/Src/stm32f4xx_hal_msp.c **** * This function configures the hardware resources used in this example
 290:Core/Src/stm32f4xx_hal_msp.c **** * @param huart: UART handle pointer
 291:Core/Src/stm32f4xx_hal_msp.c **** * @retval None
 292:Core/Src/stm32f4xx_hal_msp.c **** */
 293:Core/Src/stm32f4xx_hal_msp.c **** void HAL_UART_MspInit(UART_HandleTypeDef* huart)
 294:Core/Src/stm32f4xx_hal_msp.c **** {
 634              		.loc 1 294 1
 635              		.cfi_startproc
 636              		@ args = 0, pretend = 0, frame = 40
 637              		@ frame_needed = 1, uses_anonymous_args = 0
 638 0000 80B5     		push	{r7, lr}
 639              	.LCFI30:
 640              		.cfi_def_cfa_offset 8
 641              		.cfi_offset 7, -8
 642              		.cfi_offset 14, -4
 643 0002 8AB0     		sub	sp, sp, #40
 644              	.LCFI31:
 645              		.cfi_def_cfa_offset 48
 646 0004 00AF     		add	r7, sp, #0
 647              	.LCFI32:
 648              		.cfi_def_cfa_register 7
 649 0006 7860     		str	r0, [r7, #4]
 295:Core/Src/stm32f4xx_hal_msp.c ****   GPIO_InitTypeDef GPIO_InitStruct = {0};
 650              		.loc 1 295 20
 651 0008 07F11403 		add	r3, r7, #20
 652 000c 0022     		movs	r2, #0
 653 000e 1A60     		str	r2, [r3]
 654 0010 5A60     		str	r2, [r3, #4]
 655 0012 9A60     		str	r2, [r3, #8]
 656 0014 DA60     		str	r2, [r3, #12]
 657 0016 1A61     		str	r2, [r3, #16]
 296:Core/Src/stm32f4xx_hal_msp.c ****   if(huart->Instance==USART1)
 658              		.loc 1 296 11
 659 0018 7B68     		ldr	r3, [r7, #4]
 660 001a 1B68     		ldr	r3, [r3]
 661              		.loc 1 296 5
 662 001c 4C4A     		ldr	r2, .L39
 663 001e 9342     		cmp	r3, r2
 664 0020 40F09180 		bne	.L38
 665              	.LBB11:
ARM GAS  C:\Users\EI\AppData\Local\Temp\ccAB0Ist.s 			page 18


 297:Core/Src/stm32f4xx_hal_msp.c ****   {
 298:Core/Src/stm32f4xx_hal_msp.c ****   /* USER CODE BEGIN USART1_MspInit 0 */
 299:Core/Src/stm32f4xx_hal_msp.c **** 
 300:Core/Src/stm32f4xx_hal_msp.c ****   /* USER CODE END USART1_MspInit 0 */
 301:Core/Src/stm32f4xx_hal_msp.c ****     /* Peripheral clock enable */
 302:Core/Src/stm32f4xx_hal_msp.c ****     __HAL_RCC_USART1_CLK_ENABLE();
 666              		.loc 1 302 5
 667 0024 0023     		movs	r3, #0
 668 0026 3B61     		str	r3, [r7, #16]
 669 0028 4A4B     		ldr	r3, .L39+4
 670 002a 5B6C     		ldr	r3, [r3, #68]
 671 002c 494A     		ldr	r2, .L39+4
 672 002e 43F01003 		orr	r3, r3, #16
 673 0032 5364     		str	r3, [r2, #68]
 674 0034 474B     		ldr	r3, .L39+4
 675 0036 5B6C     		ldr	r3, [r3, #68]
 676 0038 03F01003 		and	r3, r3, #16
 677 003c 3B61     		str	r3, [r7, #16]
 678 003e 3B69     		ldr	r3, [r7, #16]
 679              	.LBE11:
 680              	.LBB12:
 303:Core/Src/stm32f4xx_hal_msp.c **** 
 304:Core/Src/stm32f4xx_hal_msp.c ****     __HAL_RCC_GPIOA_CLK_ENABLE();
 681              		.loc 1 304 5
 682 0040 0023     		movs	r3, #0
 683 0042 FB60     		str	r3, [r7, #12]
 684 0044 434B     		ldr	r3, .L39+4
 685 0046 1B6B     		ldr	r3, [r3, #48]
 686 0048 424A     		ldr	r2, .L39+4
 687 004a 43F00103 		orr	r3, r3, #1
 688 004e 1363     		str	r3, [r2, #48]
 689 0050 404B     		ldr	r3, .L39+4
 690 0052 1B6B     		ldr	r3, [r3, #48]
 691 0054 03F00103 		and	r3, r3, #1
 692 0058 FB60     		str	r3, [r7, #12]
 693 005a FB68     		ldr	r3, [r7, #12]
 694              	.LBE12:
 305:Core/Src/stm32f4xx_hal_msp.c ****     /**USART1 GPIO Configuration
 306:Core/Src/stm32f4xx_hal_msp.c ****     PA9     ------> USART1_TX
 307:Core/Src/stm32f4xx_hal_msp.c ****     PA10     ------> USART1_RX
 308:Core/Src/stm32f4xx_hal_msp.c ****     */
 309:Core/Src/stm32f4xx_hal_msp.c ****     GPIO_InitStruct.Pin = STM_TX_Pin|STM_RX_Pin;
 695              		.loc 1 309 25
 696 005c 4FF4C063 		mov	r3, #1536
 697 0060 7B61     		str	r3, [r7, #20]
 310:Core/Src/stm32f4xx_hal_msp.c ****     GPIO_InitStruct.Mode = GPIO_MODE_AF_PP;
 698              		.loc 1 310 26
 699 0062 0223     		movs	r3, #2
 700 0064 BB61     		str	r3, [r7, #24]
 311:Core/Src/stm32f4xx_hal_msp.c ****     GPIO_InitStruct.Pull = GPIO_NOPULL;
 701              		.loc 1 311 26
 702 0066 0023     		movs	r3, #0
 703 0068 FB61     		str	r3, [r7, #28]
 312:Core/Src/stm32f4xx_hal_msp.c ****     GPIO_InitStruct.Speed = GPIO_SPEED_FREQ_VERY_HIGH;
 704              		.loc 1 312 27
 705 006a 0323     		movs	r3, #3
 706 006c 3B62     		str	r3, [r7, #32]
ARM GAS  C:\Users\EI\AppData\Local\Temp\ccAB0Ist.s 			page 19


 313:Core/Src/stm32f4xx_hal_msp.c ****     GPIO_InitStruct.Alternate = GPIO_AF7_USART1;
 707              		.loc 1 313 31
 708 006e 0723     		movs	r3, #7
 709 0070 7B62     		str	r3, [r7, #36]
 314:Core/Src/stm32f4xx_hal_msp.c ****     HAL_GPIO_Init(GPIOA, &GPIO_InitStruct);
 710              		.loc 1 314 5
 711 0072 07F11403 		add	r3, r7, #20
 712 0076 1946     		mov	r1, r3
 713 0078 3748     		ldr	r0, .L39+8
 714 007a FFF7FEFF 		bl	HAL_GPIO_Init
 315:Core/Src/stm32f4xx_hal_msp.c **** 
 316:Core/Src/stm32f4xx_hal_msp.c ****     /* USART1 DMA Init */
 317:Core/Src/stm32f4xx_hal_msp.c ****     /* USART1_RX Init */
 318:Core/Src/stm32f4xx_hal_msp.c ****     hdma_usart1_rx.Instance = DMA2_Stream2;
 715              		.loc 1 318 29
 716 007e 374B     		ldr	r3, .L39+12
 717 0080 374A     		ldr	r2, .L39+16
 718 0082 1A60     		str	r2, [r3]
 319:Core/Src/stm32f4xx_hal_msp.c ****     hdma_usart1_rx.Init.Channel = DMA_CHANNEL_4;
 719              		.loc 1 319 33
 720 0084 354B     		ldr	r3, .L39+12
 721 0086 4FF00062 		mov	r2, #134217728
 722 008a 5A60     		str	r2, [r3, #4]
 320:Core/Src/stm32f4xx_hal_msp.c ****     hdma_usart1_rx.Init.Direction = DMA_PERIPH_TO_MEMORY;
 723              		.loc 1 320 35
 724 008c 334B     		ldr	r3, .L39+12
 725 008e 0022     		movs	r2, #0
 726 0090 9A60     		str	r2, [r3, #8]
 321:Core/Src/stm32f4xx_hal_msp.c ****     hdma_usart1_rx.Init.PeriphInc = DMA_PINC_DISABLE;
 727              		.loc 1 321 35
 728 0092 324B     		ldr	r3, .L39+12
 729 0094 0022     		movs	r2, #0
 730 0096 DA60     		str	r2, [r3, #12]
 322:Core/Src/stm32f4xx_hal_msp.c ****     hdma_usart1_rx.Init.MemInc = DMA_MINC_ENABLE;
 731              		.loc 1 322 32
 732 0098 304B     		ldr	r3, .L39+12
 733 009a 4FF48062 		mov	r2, #1024
 734 009e 1A61     		str	r2, [r3, #16]
 323:Core/Src/stm32f4xx_hal_msp.c ****     hdma_usart1_rx.Init.PeriphDataAlignment = DMA_PDATAALIGN_BYTE;
 735              		.loc 1 323 45
 736 00a0 2E4B     		ldr	r3, .L39+12
 737 00a2 0022     		movs	r2, #0
 738 00a4 5A61     		str	r2, [r3, #20]
 324:Core/Src/stm32f4xx_hal_msp.c ****     hdma_usart1_rx.Init.MemDataAlignment = DMA_MDATAALIGN_BYTE;
 739              		.loc 1 324 42
 740 00a6 2D4B     		ldr	r3, .L39+12
 741 00a8 0022     		movs	r2, #0
 742 00aa 9A61     		str	r2, [r3, #24]
 325:Core/Src/stm32f4xx_hal_msp.c ****     hdma_usart1_rx.Init.Mode = DMA_NORMAL;
 743              		.loc 1 325 30
 744 00ac 2B4B     		ldr	r3, .L39+12
 745 00ae 0022     		movs	r2, #0
 746 00b0 DA61     		str	r2, [r3, #28]
 326:Core/Src/stm32f4xx_hal_msp.c ****     hdma_usart1_rx.Init.Priority = DMA_PRIORITY_LOW;
 747              		.loc 1 326 34
 748 00b2 2A4B     		ldr	r3, .L39+12
 749 00b4 0022     		movs	r2, #0
ARM GAS  C:\Users\EI\AppData\Local\Temp\ccAB0Ist.s 			page 20


 750 00b6 1A62     		str	r2, [r3, #32]
 327:Core/Src/stm32f4xx_hal_msp.c ****     hdma_usart1_rx.Init.FIFOMode = DMA_FIFOMODE_DISABLE;
 751              		.loc 1 327 34
 752 00b8 284B     		ldr	r3, .L39+12
 753 00ba 0022     		movs	r2, #0
 754 00bc 5A62     		str	r2, [r3, #36]
 328:Core/Src/stm32f4xx_hal_msp.c ****     if (HAL_DMA_Init(&hdma_usart1_rx) != HAL_OK)
 755              		.loc 1 328 9
 756 00be 2748     		ldr	r0, .L39+12
 757 00c0 FFF7FEFF 		bl	HAL_DMA_Init
 758 00c4 0346     		mov	r3, r0
 759              		.loc 1 328 8
 760 00c6 002B     		cmp	r3, #0
 761 00c8 01D0     		beq	.L36
 329:Core/Src/stm32f4xx_hal_msp.c ****     {
 330:Core/Src/stm32f4xx_hal_msp.c ****       Error_Handler();
 762              		.loc 1 330 7
 763 00ca FFF7FEFF 		bl	Error_Handler
 764              	.L36:
 331:Core/Src/stm32f4xx_hal_msp.c ****     }
 332:Core/Src/stm32f4xx_hal_msp.c **** 
 333:Core/Src/stm32f4xx_hal_msp.c ****     __HAL_LINKDMA(huart,hdmarx,hdma_usart1_rx);
 765              		.loc 1 333 5
 766 00ce 7B68     		ldr	r3, [r7, #4]
 767 00d0 224A     		ldr	r2, .L39+12
 768 00d2 9A63     		str	r2, [r3, #56]
 769 00d4 214A     		ldr	r2, .L39+12
 770 00d6 7B68     		ldr	r3, [r7, #4]
 771 00d8 9363     		str	r3, [r2, #56]
 334:Core/Src/stm32f4xx_hal_msp.c **** 
 335:Core/Src/stm32f4xx_hal_msp.c ****     /* USART1_TX Init */
 336:Core/Src/stm32f4xx_hal_msp.c ****     hdma_usart1_tx.Instance = DMA2_Stream7;
 772              		.loc 1 336 29
 773 00da 224B     		ldr	r3, .L39+20
 774 00dc 224A     		ldr	r2, .L39+24
 775 00de 1A60     		str	r2, [r3]
 337:Core/Src/stm32f4xx_hal_msp.c ****     hdma_usart1_tx.Init.Channel = DMA_CHANNEL_4;
 776              		.loc 1 337 33
 777 00e0 204B     		ldr	r3, .L39+20
 778 00e2 4FF00062 		mov	r2, #134217728
 779 00e6 5A60     		str	r2, [r3, #4]
 338:Core/Src/stm32f4xx_hal_msp.c ****     hdma_usart1_tx.Init.Direction = DMA_MEMORY_TO_PERIPH;
 780              		.loc 1 338 35
 781 00e8 1E4B     		ldr	r3, .L39+20
 782 00ea 4022     		movs	r2, #64
 783 00ec 9A60     		str	r2, [r3, #8]
 339:Core/Src/stm32f4xx_hal_msp.c ****     hdma_usart1_tx.Init.PeriphInc = DMA_PINC_DISABLE;
 784              		.loc 1 339 35
 785 00ee 1D4B     		ldr	r3, .L39+20
 786 00f0 0022     		movs	r2, #0
 787 00f2 DA60     		str	r2, [r3, #12]
 340:Core/Src/stm32f4xx_hal_msp.c ****     hdma_usart1_tx.Init.MemInc = DMA_MINC_ENABLE;
 788              		.loc 1 340 32
 789 00f4 1B4B     		ldr	r3, .L39+20
 790 00f6 4FF48062 		mov	r2, #1024
 791 00fa 1A61     		str	r2, [r3, #16]
 341:Core/Src/stm32f4xx_hal_msp.c ****     hdma_usart1_tx.Init.PeriphDataAlignment = DMA_PDATAALIGN_BYTE;
ARM GAS  C:\Users\EI\AppData\Local\Temp\ccAB0Ist.s 			page 21


 792              		.loc 1 341 45
 793 00fc 194B     		ldr	r3, .L39+20
 794 00fe 0022     		movs	r2, #0
 795 0100 5A61     		str	r2, [r3, #20]
 342:Core/Src/stm32f4xx_hal_msp.c ****     hdma_usart1_tx.Init.MemDataAlignment = DMA_MDATAALIGN_BYTE;
 796              		.loc 1 342 42
 797 0102 184B     		ldr	r3, .L39+20
 798 0104 0022     		movs	r2, #0
 799 0106 9A61     		str	r2, [r3, #24]
 343:Core/Src/stm32f4xx_hal_msp.c ****     hdma_usart1_tx.Init.Mode = DMA_NORMAL;
 800              		.loc 1 343 30
 801 0108 164B     		ldr	r3, .L39+20
 802 010a 0022     		movs	r2, #0
 803 010c DA61     		str	r2, [r3, #28]
 344:Core/Src/stm32f4xx_hal_msp.c ****     hdma_usart1_tx.Init.Priority = DMA_PRIORITY_LOW;
 804              		.loc 1 344 34
 805 010e 154B     		ldr	r3, .L39+20
 806 0110 0022     		movs	r2, #0
 807 0112 1A62     		str	r2, [r3, #32]
 345:Core/Src/stm32f4xx_hal_msp.c ****     hdma_usart1_tx.Init.FIFOMode = DMA_FIFOMODE_DISABLE;
 808              		.loc 1 345 34
 809 0114 134B     		ldr	r3, .L39+20
 810 0116 0022     		movs	r2, #0
 811 0118 5A62     		str	r2, [r3, #36]
 346:Core/Src/stm32f4xx_hal_msp.c ****     if (HAL_DMA_Init(&hdma_usart1_tx) != HAL_OK)
 812              		.loc 1 346 9
 813 011a 1248     		ldr	r0, .L39+20
 814 011c FFF7FEFF 		bl	HAL_DMA_Init
 815 0120 0346     		mov	r3, r0
 816              		.loc 1 346 8
 817 0122 002B     		cmp	r3, #0
 818 0124 01D0     		beq	.L37
 347:Core/Src/stm32f4xx_hal_msp.c ****     {
 348:Core/Src/stm32f4xx_hal_msp.c ****       Error_Handler();
 819              		.loc 1 348 7
 820 0126 FFF7FEFF 		bl	Error_Handler
 821              	.L37:
 349:Core/Src/stm32f4xx_hal_msp.c ****     }
 350:Core/Src/stm32f4xx_hal_msp.c **** 
 351:Core/Src/stm32f4xx_hal_msp.c ****     __HAL_LINKDMA(huart,hdmatx,hdma_usart1_tx);
 822              		.loc 1 351 5
 823 012a 7B68     		ldr	r3, [r7, #4]
 824 012c 0D4A     		ldr	r2, .L39+20
 825 012e 5A63     		str	r2, [r3, #52]
 826 0130 0C4A     		ldr	r2, .L39+20
 827 0132 7B68     		ldr	r3, [r7, #4]
 828 0134 9363     		str	r3, [r2, #56]
 352:Core/Src/stm32f4xx_hal_msp.c **** 
 353:Core/Src/stm32f4xx_hal_msp.c ****     /* USART1 interrupt Init */
 354:Core/Src/stm32f4xx_hal_msp.c ****     HAL_NVIC_SetPriority(USART1_IRQn, 5, 0);
 829              		.loc 1 354 5
 830 0136 0022     		movs	r2, #0
 831 0138 0521     		movs	r1, #5
 832 013a 2520     		movs	r0, #37
 833 013c FFF7FEFF 		bl	HAL_NVIC_SetPriority
 355:Core/Src/stm32f4xx_hal_msp.c ****     HAL_NVIC_EnableIRQ(USART1_IRQn);
 834              		.loc 1 355 5
ARM GAS  C:\Users\EI\AppData\Local\Temp\ccAB0Ist.s 			page 22


 835 0140 2520     		movs	r0, #37
 836 0142 FFF7FEFF 		bl	HAL_NVIC_EnableIRQ
 837              	.L38:
 356:Core/Src/stm32f4xx_hal_msp.c ****   /* USER CODE BEGIN USART1_MspInit 1 */
 357:Core/Src/stm32f4xx_hal_msp.c **** 
 358:Core/Src/stm32f4xx_hal_msp.c ****   /* USER CODE END USART1_MspInit 1 */
 359:Core/Src/stm32f4xx_hal_msp.c ****   }
 360:Core/Src/stm32f4xx_hal_msp.c **** 
 361:Core/Src/stm32f4xx_hal_msp.c **** }
 838              		.loc 1 361 1
 839 0146 00BF     		nop
 840 0148 2837     		adds	r7, r7, #40
 841              	.LCFI33:
 842              		.cfi_def_cfa_offset 8
 843 014a BD46     		mov	sp, r7
 844              	.LCFI34:
 845              		.cfi_def_cfa_register 13
 846              		@ sp needed
 847 014c 80BD     		pop	{r7, pc}
 848              	.L40:
 849 014e 00BF     		.align	2
 850              	.L39:
 851 0150 00100140 		.word	1073811456
 852 0154 00380240 		.word	1073887232
 853 0158 00000240 		.word	1073872896
 854 015c 00000000 		.word	hdma_usart1_rx
 855 0160 40640240 		.word	1073898560
 856 0164 00000000 		.word	hdma_usart1_tx
 857 0168 B8640240 		.word	1073898680
 858              		.cfi_endproc
 859              	.LFE222:
 861              		.section	.text.HAL_UART_MspDeInit,"ax",%progbits
 862              		.align	1
 863              		.global	HAL_UART_MspDeInit
 864              		.syntax unified
 865              		.thumb
 866              		.thumb_func
 867              		.fpu fpv4-sp-d16
 869              	HAL_UART_MspDeInit:
 870              	.LFB223:
 362:Core/Src/stm32f4xx_hal_msp.c **** 
 363:Core/Src/stm32f4xx_hal_msp.c **** /**
 364:Core/Src/stm32f4xx_hal_msp.c **** * @brief UART MSP De-Initialization
 365:Core/Src/stm32f4xx_hal_msp.c **** * This function freeze the hardware resources used in this example
 366:Core/Src/stm32f4xx_hal_msp.c **** * @param huart: UART handle pointer
 367:Core/Src/stm32f4xx_hal_msp.c **** * @retval None
 368:Core/Src/stm32f4xx_hal_msp.c **** */
 369:Core/Src/stm32f4xx_hal_msp.c **** void HAL_UART_MspDeInit(UART_HandleTypeDef* huart)
 370:Core/Src/stm32f4xx_hal_msp.c **** {
 871              		.loc 1 370 1
 872              		.cfi_startproc
 873              		@ args = 0, pretend = 0, frame = 8
 874              		@ frame_needed = 1, uses_anonymous_args = 0
 875 0000 80B5     		push	{r7, lr}
 876              	.LCFI35:
 877              		.cfi_def_cfa_offset 8
 878              		.cfi_offset 7, -8
ARM GAS  C:\Users\EI\AppData\Local\Temp\ccAB0Ist.s 			page 23


 879              		.cfi_offset 14, -4
 880 0002 82B0     		sub	sp, sp, #8
 881              	.LCFI36:
 882              		.cfi_def_cfa_offset 16
 883 0004 00AF     		add	r7, sp, #0
 884              	.LCFI37:
 885              		.cfi_def_cfa_register 7
 886 0006 7860     		str	r0, [r7, #4]
 371:Core/Src/stm32f4xx_hal_msp.c ****   if(huart->Instance==USART1)
 887              		.loc 1 371 11
 888 0008 7B68     		ldr	r3, [r7, #4]
 889 000a 1B68     		ldr	r3, [r3]
 890              		.loc 1 371 5
 891 000c 0F4A     		ldr	r2, .L44
 892 000e 9342     		cmp	r3, r2
 893 0010 17D1     		bne	.L43
 372:Core/Src/stm32f4xx_hal_msp.c ****   {
 373:Core/Src/stm32f4xx_hal_msp.c ****   /* USER CODE BEGIN USART1_MspDeInit 0 */
 374:Core/Src/stm32f4xx_hal_msp.c **** 
 375:Core/Src/stm32f4xx_hal_msp.c ****   /* USER CODE END USART1_MspDeInit 0 */
 376:Core/Src/stm32f4xx_hal_msp.c ****     /* Peripheral clock disable */
 377:Core/Src/stm32f4xx_hal_msp.c ****     __HAL_RCC_USART1_CLK_DISABLE();
 894              		.loc 1 377 5
 895 0012 0F4B     		ldr	r3, .L44+4
 896 0014 5B6C     		ldr	r3, [r3, #68]
 897 0016 0E4A     		ldr	r2, .L44+4
 898 0018 23F01003 		bic	r3, r3, #16
 899 001c 5364     		str	r3, [r2, #68]
 378:Core/Src/stm32f4xx_hal_msp.c **** 
 379:Core/Src/stm32f4xx_hal_msp.c ****     /**USART1 GPIO Configuration
 380:Core/Src/stm32f4xx_hal_msp.c ****     PA9     ------> USART1_TX
 381:Core/Src/stm32f4xx_hal_msp.c ****     PA10     ------> USART1_RX
 382:Core/Src/stm32f4xx_hal_msp.c ****     */
 383:Core/Src/stm32f4xx_hal_msp.c ****     HAL_GPIO_DeInit(GPIOA, STM_TX_Pin|STM_RX_Pin);
 900              		.loc 1 383 5
 901 001e 4FF4C061 		mov	r1, #1536
 902 0022 0C48     		ldr	r0, .L44+8
 903 0024 FFF7FEFF 		bl	HAL_GPIO_DeInit
 384:Core/Src/stm32f4xx_hal_msp.c **** 
 385:Core/Src/stm32f4xx_hal_msp.c ****     /* USART1 DMA DeInit */
 386:Core/Src/stm32f4xx_hal_msp.c ****     HAL_DMA_DeInit(huart->hdmarx);
 904              		.loc 1 386 5
 905 0028 7B68     		ldr	r3, [r7, #4]
 906 002a 9B6B     		ldr	r3, [r3, #56]
 907 002c 1846     		mov	r0, r3
 908 002e FFF7FEFF 		bl	HAL_DMA_DeInit
 387:Core/Src/stm32f4xx_hal_msp.c ****     HAL_DMA_DeInit(huart->hdmatx);
 909              		.loc 1 387 5
 910 0032 7B68     		ldr	r3, [r7, #4]
 911 0034 5B6B     		ldr	r3, [r3, #52]
 912 0036 1846     		mov	r0, r3
 913 0038 FFF7FEFF 		bl	HAL_DMA_DeInit
 388:Core/Src/stm32f4xx_hal_msp.c **** 
 389:Core/Src/stm32f4xx_hal_msp.c ****     /* USART1 interrupt DeInit */
 390:Core/Src/stm32f4xx_hal_msp.c ****     HAL_NVIC_DisableIRQ(USART1_IRQn);
 914              		.loc 1 390 5
 915 003c 2520     		movs	r0, #37
ARM GAS  C:\Users\EI\AppData\Local\Temp\ccAB0Ist.s 			page 24


 916 003e FFF7FEFF 		bl	HAL_NVIC_DisableIRQ
 917              	.L43:
 391:Core/Src/stm32f4xx_hal_msp.c ****   /* USER CODE BEGIN USART1_MspDeInit 1 */
 392:Core/Src/stm32f4xx_hal_msp.c **** 
 393:Core/Src/stm32f4xx_hal_msp.c ****   /* USER CODE END USART1_MspDeInit 1 */
 394:Core/Src/stm32f4xx_hal_msp.c ****   }
 395:Core/Src/stm32f4xx_hal_msp.c **** 
 396:Core/Src/stm32f4xx_hal_msp.c **** }
 918              		.loc 1 396 1
 919 0042 00BF     		nop
 920 0044 0837     		adds	r7, r7, #8
 921              	.LCFI38:
 922              		.cfi_def_cfa_offset 8
 923 0046 BD46     		mov	sp, r7
 924              	.LCFI39:
 925              		.cfi_def_cfa_register 13
 926              		@ sp needed
 927 0048 80BD     		pop	{r7, pc}
 928              	.L45:
 929 004a 00BF     		.align	2
 930              	.L44:
 931 004c 00100140 		.word	1073811456
 932 0050 00380240 		.word	1073887232
 933 0054 00000240 		.word	1073872896
 934              		.cfi_endproc
 935              	.LFE223:
 937              		.text
 938              	.Letext0:
 939              		.file 2 "c:\\arm-gcc\\tools\\gcc-arm-none-eabi-10-2020-q4-major\\arm-none-eabi\\include\\machine\\
 940              		.file 3 "c:\\arm-gcc\\tools\\gcc-arm-none-eabi-10-2020-q4-major\\arm-none-eabi\\include\\sys\\_std
 941              		.file 4 "Drivers/CMSIS/Device/ST/STM32F4xx/Include/stm32f411xe.h"
 942              		.file 5 "Drivers/CMSIS/Device/ST/STM32F4xx/Include/stm32f4xx.h"
 943              		.file 6 "Drivers/STM32F4xx_HAL_Driver/Inc/stm32f4xx_hal_def.h"
 944              		.file 7 "Drivers/STM32F4xx_HAL_Driver/Inc/stm32f4xx_hal_gpio.h"
 945              		.file 8 "Drivers/STM32F4xx_HAL_Driver/Inc/stm32f4xx_hal_dma.h"
 946              		.file 9 "Drivers/STM32F4xx_HAL_Driver/Inc/stm32f4xx_hal_adc.h"
 947              		.file 10 "Drivers/STM32F4xx_HAL_Driver/Inc/stm32f4xx_hal_tim.h"
 948              		.file 11 "Drivers/STM32F4xx_HAL_Driver/Inc/stm32f4xx_hal_uart.h"
ARM GAS  C:\Users\EI\AppData\Local\Temp\ccAB0Ist.s 			page 25

