ARM GAS  C:\Users\EI\AppData\Local\Temp\cc8Es05K.s 			page 1


   1              		.cpu cortex-m4
   2              		.eabi_attribute 27, 1
   3              		.eabi_attribute 28, 1
   4              		.eabi_attribute 20, 1
   5              		.eabi_attribute 21, 1
   6              		.eabi_attribute 23, 3
   7              		.eabi_attribute 24, 1
   8              		.eabi_attribute 25, 1
   9              		.eabi_attribute 26, 1
  10              		.eabi_attribute 30, 6
  11              		.eabi_attribute 34, 1
  12              		.eabi_attribute 18, 4
  13              		.file	"usbd_core.c"
  14              		.text
  15              	.Ltext0:
  16              		.cfi_sections	.debug_frame
  17              		.section	.text.USBD_Init,"ax",%progbits
  18              		.align	1
  19              		.global	USBD_Init
  20              		.arch armv7e-m
  21              		.syntax unified
  22              		.thumb
  23              		.thumb_func
  24              		.fpu fpv4-sp-d16
  26              	USBD_Init:
  27              	.LFB220:
  28              		.file 1 "Middlewares/ST/STM32_USB_Device_Library/Core/Src/usbd_core.c"
   1:Middlewares/ST/STM32_USB_Device_Library/Core/Src/usbd_core.c **** /**
   2:Middlewares/ST/STM32_USB_Device_Library/Core/Src/usbd_core.c ****   ******************************************************************************
   3:Middlewares/ST/STM32_USB_Device_Library/Core/Src/usbd_core.c ****   * @file    usbd_core.c
   4:Middlewares/ST/STM32_USB_Device_Library/Core/Src/usbd_core.c ****   * @author  MCD Application Team
   5:Middlewares/ST/STM32_USB_Device_Library/Core/Src/usbd_core.c ****   * @brief   This file provides all the USBD core functions.
   6:Middlewares/ST/STM32_USB_Device_Library/Core/Src/usbd_core.c ****   ******************************************************************************
   7:Middlewares/ST/STM32_USB_Device_Library/Core/Src/usbd_core.c ****   * @attention
   8:Middlewares/ST/STM32_USB_Device_Library/Core/Src/usbd_core.c ****   *
   9:Middlewares/ST/STM32_USB_Device_Library/Core/Src/usbd_core.c ****   * Copyright (c) 2015 STMicroelectronics.
  10:Middlewares/ST/STM32_USB_Device_Library/Core/Src/usbd_core.c ****   * All rights reserved.
  11:Middlewares/ST/STM32_USB_Device_Library/Core/Src/usbd_core.c ****   *
  12:Middlewares/ST/STM32_USB_Device_Library/Core/Src/usbd_core.c ****   * This software is licensed under terms that can be found in the LICENSE file
  13:Middlewares/ST/STM32_USB_Device_Library/Core/Src/usbd_core.c ****   * in the root directory of this software component.
  14:Middlewares/ST/STM32_USB_Device_Library/Core/Src/usbd_core.c ****   * If no LICENSE file comes with this software, it is provided AS-IS.
  15:Middlewares/ST/STM32_USB_Device_Library/Core/Src/usbd_core.c ****   *
  16:Middlewares/ST/STM32_USB_Device_Library/Core/Src/usbd_core.c ****   ******************************************************************************
  17:Middlewares/ST/STM32_USB_Device_Library/Core/Src/usbd_core.c ****   */
  18:Middlewares/ST/STM32_USB_Device_Library/Core/Src/usbd_core.c **** 
  19:Middlewares/ST/STM32_USB_Device_Library/Core/Src/usbd_core.c **** /* Includes ------------------------------------------------------------------*/
  20:Middlewares/ST/STM32_USB_Device_Library/Core/Src/usbd_core.c **** #include "usbd_core.h"
  21:Middlewares/ST/STM32_USB_Device_Library/Core/Src/usbd_core.c **** 
  22:Middlewares/ST/STM32_USB_Device_Library/Core/Src/usbd_core.c **** #ifdef USE_USBD_COMPOSITE
  23:Middlewares/ST/STM32_USB_Device_Library/Core/Src/usbd_core.c **** #include "usbd_composite_builder.h"
  24:Middlewares/ST/STM32_USB_Device_Library/Core/Src/usbd_core.c **** #endif /* USE_USBD_COMPOSITE */
  25:Middlewares/ST/STM32_USB_Device_Library/Core/Src/usbd_core.c **** 
  26:Middlewares/ST/STM32_USB_Device_Library/Core/Src/usbd_core.c **** /** @addtogroup STM32_USBD_DEVICE_LIBRARY
  27:Middlewares/ST/STM32_USB_Device_Library/Core/Src/usbd_core.c ****   * @{
  28:Middlewares/ST/STM32_USB_Device_Library/Core/Src/usbd_core.c ****   */
  29:Middlewares/ST/STM32_USB_Device_Library/Core/Src/usbd_core.c **** 
  30:Middlewares/ST/STM32_USB_Device_Library/Core/Src/usbd_core.c **** 
ARM GAS  C:\Users\EI\AppData\Local\Temp\cc8Es05K.s 			page 2


  31:Middlewares/ST/STM32_USB_Device_Library/Core/Src/usbd_core.c **** /** @defgroup USBD_CORE
  32:Middlewares/ST/STM32_USB_Device_Library/Core/Src/usbd_core.c ****   * @brief usbd core module
  33:Middlewares/ST/STM32_USB_Device_Library/Core/Src/usbd_core.c ****   * @{
  34:Middlewares/ST/STM32_USB_Device_Library/Core/Src/usbd_core.c ****   */
  35:Middlewares/ST/STM32_USB_Device_Library/Core/Src/usbd_core.c **** 
  36:Middlewares/ST/STM32_USB_Device_Library/Core/Src/usbd_core.c **** /** @defgroup USBD_CORE_Private_TypesDefinitions
  37:Middlewares/ST/STM32_USB_Device_Library/Core/Src/usbd_core.c ****   * @{
  38:Middlewares/ST/STM32_USB_Device_Library/Core/Src/usbd_core.c ****   */
  39:Middlewares/ST/STM32_USB_Device_Library/Core/Src/usbd_core.c **** 
  40:Middlewares/ST/STM32_USB_Device_Library/Core/Src/usbd_core.c **** /**
  41:Middlewares/ST/STM32_USB_Device_Library/Core/Src/usbd_core.c ****   * @}
  42:Middlewares/ST/STM32_USB_Device_Library/Core/Src/usbd_core.c ****   */
  43:Middlewares/ST/STM32_USB_Device_Library/Core/Src/usbd_core.c **** 
  44:Middlewares/ST/STM32_USB_Device_Library/Core/Src/usbd_core.c **** 
  45:Middlewares/ST/STM32_USB_Device_Library/Core/Src/usbd_core.c **** /** @defgroup USBD_CORE_Private_Defines
  46:Middlewares/ST/STM32_USB_Device_Library/Core/Src/usbd_core.c ****   * @{
  47:Middlewares/ST/STM32_USB_Device_Library/Core/Src/usbd_core.c ****   */
  48:Middlewares/ST/STM32_USB_Device_Library/Core/Src/usbd_core.c **** 
  49:Middlewares/ST/STM32_USB_Device_Library/Core/Src/usbd_core.c **** /**
  50:Middlewares/ST/STM32_USB_Device_Library/Core/Src/usbd_core.c ****   * @}
  51:Middlewares/ST/STM32_USB_Device_Library/Core/Src/usbd_core.c ****   */
  52:Middlewares/ST/STM32_USB_Device_Library/Core/Src/usbd_core.c **** 
  53:Middlewares/ST/STM32_USB_Device_Library/Core/Src/usbd_core.c **** 
  54:Middlewares/ST/STM32_USB_Device_Library/Core/Src/usbd_core.c **** /** @defgroup USBD_CORE_Private_Macros
  55:Middlewares/ST/STM32_USB_Device_Library/Core/Src/usbd_core.c ****   * @{
  56:Middlewares/ST/STM32_USB_Device_Library/Core/Src/usbd_core.c ****   */
  57:Middlewares/ST/STM32_USB_Device_Library/Core/Src/usbd_core.c **** 
  58:Middlewares/ST/STM32_USB_Device_Library/Core/Src/usbd_core.c **** /**
  59:Middlewares/ST/STM32_USB_Device_Library/Core/Src/usbd_core.c ****   * @}
  60:Middlewares/ST/STM32_USB_Device_Library/Core/Src/usbd_core.c ****   */
  61:Middlewares/ST/STM32_USB_Device_Library/Core/Src/usbd_core.c **** 
  62:Middlewares/ST/STM32_USB_Device_Library/Core/Src/usbd_core.c **** 
  63:Middlewares/ST/STM32_USB_Device_Library/Core/Src/usbd_core.c **** /** @defgroup USBD_CORE_Private_FunctionPrototypes
  64:Middlewares/ST/STM32_USB_Device_Library/Core/Src/usbd_core.c ****   * @{
  65:Middlewares/ST/STM32_USB_Device_Library/Core/Src/usbd_core.c ****   */
  66:Middlewares/ST/STM32_USB_Device_Library/Core/Src/usbd_core.c **** 
  67:Middlewares/ST/STM32_USB_Device_Library/Core/Src/usbd_core.c **** /**
  68:Middlewares/ST/STM32_USB_Device_Library/Core/Src/usbd_core.c ****   * @}
  69:Middlewares/ST/STM32_USB_Device_Library/Core/Src/usbd_core.c ****   */
  70:Middlewares/ST/STM32_USB_Device_Library/Core/Src/usbd_core.c **** 
  71:Middlewares/ST/STM32_USB_Device_Library/Core/Src/usbd_core.c **** /** @defgroup USBD_CORE_Private_Variables
  72:Middlewares/ST/STM32_USB_Device_Library/Core/Src/usbd_core.c ****   * @{
  73:Middlewares/ST/STM32_USB_Device_Library/Core/Src/usbd_core.c ****   */
  74:Middlewares/ST/STM32_USB_Device_Library/Core/Src/usbd_core.c **** 
  75:Middlewares/ST/STM32_USB_Device_Library/Core/Src/usbd_core.c **** /**
  76:Middlewares/ST/STM32_USB_Device_Library/Core/Src/usbd_core.c ****   * @}
  77:Middlewares/ST/STM32_USB_Device_Library/Core/Src/usbd_core.c ****   */
  78:Middlewares/ST/STM32_USB_Device_Library/Core/Src/usbd_core.c **** 
  79:Middlewares/ST/STM32_USB_Device_Library/Core/Src/usbd_core.c **** 
  80:Middlewares/ST/STM32_USB_Device_Library/Core/Src/usbd_core.c **** /** @defgroup USBD_CORE_Private_Functions
  81:Middlewares/ST/STM32_USB_Device_Library/Core/Src/usbd_core.c ****   * @{
  82:Middlewares/ST/STM32_USB_Device_Library/Core/Src/usbd_core.c ****   */
  83:Middlewares/ST/STM32_USB_Device_Library/Core/Src/usbd_core.c **** 
  84:Middlewares/ST/STM32_USB_Device_Library/Core/Src/usbd_core.c **** /**
  85:Middlewares/ST/STM32_USB_Device_Library/Core/Src/usbd_core.c ****   * @brief  USBD_Init
  86:Middlewares/ST/STM32_USB_Device_Library/Core/Src/usbd_core.c ****   *         Initializes the device stack and load the class driver
  87:Middlewares/ST/STM32_USB_Device_Library/Core/Src/usbd_core.c ****   * @param  pdev: device instance
ARM GAS  C:\Users\EI\AppData\Local\Temp\cc8Es05K.s 			page 3


  88:Middlewares/ST/STM32_USB_Device_Library/Core/Src/usbd_core.c ****   * @param  pdesc: Descriptor structure address
  89:Middlewares/ST/STM32_USB_Device_Library/Core/Src/usbd_core.c ****   * @param  id: Low level core index
  90:Middlewares/ST/STM32_USB_Device_Library/Core/Src/usbd_core.c ****   * @retval None
  91:Middlewares/ST/STM32_USB_Device_Library/Core/Src/usbd_core.c ****   */
  92:Middlewares/ST/STM32_USB_Device_Library/Core/Src/usbd_core.c **** USBD_StatusTypeDef USBD_Init(USBD_HandleTypeDef *pdev,
  93:Middlewares/ST/STM32_USB_Device_Library/Core/Src/usbd_core.c ****                              USBD_DescriptorsTypeDef *pdesc, uint8_t id)
  94:Middlewares/ST/STM32_USB_Device_Library/Core/Src/usbd_core.c **** {
  29              		.loc 1 94 1
  30              		.cfi_startproc
  31              		@ args = 0, pretend = 0, frame = 24
  32              		@ frame_needed = 1, uses_anonymous_args = 0
  33 0000 80B5     		push	{r7, lr}
  34              	.LCFI0:
  35              		.cfi_def_cfa_offset 8
  36              		.cfi_offset 7, -8
  37              		.cfi_offset 14, -4
  38 0002 86B0     		sub	sp, sp, #24
  39              	.LCFI1:
  40              		.cfi_def_cfa_offset 32
  41 0004 00AF     		add	r7, sp, #0
  42              	.LCFI2:
  43              		.cfi_def_cfa_register 7
  44 0006 F860     		str	r0, [r7, #12]
  45 0008 B960     		str	r1, [r7, #8]
  46 000a 1346     		mov	r3, r2
  47 000c FB71     		strb	r3, [r7, #7]
  95:Middlewares/ST/STM32_USB_Device_Library/Core/Src/usbd_core.c ****   USBD_StatusTypeDef ret;
  96:Middlewares/ST/STM32_USB_Device_Library/Core/Src/usbd_core.c **** 
  97:Middlewares/ST/STM32_USB_Device_Library/Core/Src/usbd_core.c ****   /* Check whether the USB Host handle is valid */
  98:Middlewares/ST/STM32_USB_Device_Library/Core/Src/usbd_core.c ****   if (pdev == NULL)
  48              		.loc 1 98 6
  49 000e FB68     		ldr	r3, [r7, #12]
  50 0010 002B     		cmp	r3, #0
  51 0012 01D1     		bne	.L2
  99:Middlewares/ST/STM32_USB_Device_Library/Core/Src/usbd_core.c ****   {
 100:Middlewares/ST/STM32_USB_Device_Library/Core/Src/usbd_core.c **** #if (USBD_DEBUG_LEVEL > 1U)
 101:Middlewares/ST/STM32_USB_Device_Library/Core/Src/usbd_core.c ****     USBD_ErrLog("Invalid Device handle");
 102:Middlewares/ST/STM32_USB_Device_Library/Core/Src/usbd_core.c **** #endif /* (USBD_DEBUG_LEVEL > 1U) */
 103:Middlewares/ST/STM32_USB_Device_Library/Core/Src/usbd_core.c ****     return USBD_FAIL;
  52              		.loc 1 103 12
  53 0014 0323     		movs	r3, #3
  54 0016 1FE0     		b	.L3
  55              	.L2:
 104:Middlewares/ST/STM32_USB_Device_Library/Core/Src/usbd_core.c ****   }
 105:Middlewares/ST/STM32_USB_Device_Library/Core/Src/usbd_core.c **** 
 106:Middlewares/ST/STM32_USB_Device_Library/Core/Src/usbd_core.c **** #ifdef USE_USBD_COMPOSITE
 107:Middlewares/ST/STM32_USB_Device_Library/Core/Src/usbd_core.c ****   /* Parse the table of classes in use */
 108:Middlewares/ST/STM32_USB_Device_Library/Core/Src/usbd_core.c ****   for (uint32_t i = 0; i < USBD_MAX_SUPPORTED_CLASS; i++)
 109:Middlewares/ST/STM32_USB_Device_Library/Core/Src/usbd_core.c ****   {
 110:Middlewares/ST/STM32_USB_Device_Library/Core/Src/usbd_core.c ****     /* Unlink previous class*/
 111:Middlewares/ST/STM32_USB_Device_Library/Core/Src/usbd_core.c ****     pdev->pClass[i] = NULL;
 112:Middlewares/ST/STM32_USB_Device_Library/Core/Src/usbd_core.c ****     pdev->pUserData[i] = NULL;
 113:Middlewares/ST/STM32_USB_Device_Library/Core/Src/usbd_core.c **** 
 114:Middlewares/ST/STM32_USB_Device_Library/Core/Src/usbd_core.c ****     /* Set class as inactive */
 115:Middlewares/ST/STM32_USB_Device_Library/Core/Src/usbd_core.c ****     pdev->tclasslist[i].Active = 0;
 116:Middlewares/ST/STM32_USB_Device_Library/Core/Src/usbd_core.c ****     pdev->NumClasses = 0;
 117:Middlewares/ST/STM32_USB_Device_Library/Core/Src/usbd_core.c ****     pdev->classId = 0;
ARM GAS  C:\Users\EI\AppData\Local\Temp\cc8Es05K.s 			page 4


 118:Middlewares/ST/STM32_USB_Device_Library/Core/Src/usbd_core.c ****   }
 119:Middlewares/ST/STM32_USB_Device_Library/Core/Src/usbd_core.c **** #else
 120:Middlewares/ST/STM32_USB_Device_Library/Core/Src/usbd_core.c ****   /* Unlink previous class*/
 121:Middlewares/ST/STM32_USB_Device_Library/Core/Src/usbd_core.c ****   pdev->pClass[0] = NULL;
  56              		.loc 1 121 19
  57 0018 FB68     		ldr	r3, [r7, #12]
  58 001a 0022     		movs	r2, #0
  59 001c C3F8B822 		str	r2, [r3, #696]
 122:Middlewares/ST/STM32_USB_Device_Library/Core/Src/usbd_core.c ****   pdev->pUserData[0] = NULL;
  60              		.loc 1 122 22
  61 0020 FB68     		ldr	r3, [r7, #12]
  62 0022 0022     		movs	r2, #0
  63 0024 C3F8C422 		str	r2, [r3, #708]
 123:Middlewares/ST/STM32_USB_Device_Library/Core/Src/usbd_core.c **** #endif /* USE_USBD_COMPOSITE */
 124:Middlewares/ST/STM32_USB_Device_Library/Core/Src/usbd_core.c **** 
 125:Middlewares/ST/STM32_USB_Device_Library/Core/Src/usbd_core.c ****   pdev->pConfDesc = NULL;
  64              		.loc 1 125 19
  65 0028 FB68     		ldr	r3, [r7, #12]
  66 002a 0022     		movs	r2, #0
  67 002c C3F8D022 		str	r2, [r3, #720]
 126:Middlewares/ST/STM32_USB_Device_Library/Core/Src/usbd_core.c **** 
 127:Middlewares/ST/STM32_USB_Device_Library/Core/Src/usbd_core.c ****   /* Assign USBD Descriptors */
 128:Middlewares/ST/STM32_USB_Device_Library/Core/Src/usbd_core.c ****   if (pdesc != NULL)
  68              		.loc 1 128 6
  69 0030 BB68     		ldr	r3, [r7, #8]
  70 0032 002B     		cmp	r3, #0
  71 0034 03D0     		beq	.L4
 129:Middlewares/ST/STM32_USB_Device_Library/Core/Src/usbd_core.c ****   {
 130:Middlewares/ST/STM32_USB_Device_Library/Core/Src/usbd_core.c ****     pdev->pDesc = pdesc;
  72              		.loc 1 130 17
  73 0036 FB68     		ldr	r3, [r7, #12]
  74 0038 BA68     		ldr	r2, [r7, #8]
  75 003a C3F8B422 		str	r2, [r3, #692]
  76              	.L4:
 131:Middlewares/ST/STM32_USB_Device_Library/Core/Src/usbd_core.c ****   }
 132:Middlewares/ST/STM32_USB_Device_Library/Core/Src/usbd_core.c **** 
 133:Middlewares/ST/STM32_USB_Device_Library/Core/Src/usbd_core.c ****   /* Set Device initial State */
 134:Middlewares/ST/STM32_USB_Device_Library/Core/Src/usbd_core.c ****   pdev->dev_state = USBD_STATE_DEFAULT;
  77              		.loc 1 134 19
  78 003e FB68     		ldr	r3, [r7, #12]
  79 0040 0122     		movs	r2, #1
  80 0042 83F89C22 		strb	r2, [r3, #668]
 135:Middlewares/ST/STM32_USB_Device_Library/Core/Src/usbd_core.c ****   pdev->id = id;
  81              		.loc 1 135 12
  82 0046 FB68     		ldr	r3, [r7, #12]
  83 0048 FA79     		ldrb	r2, [r7, #7]
  84 004a 1A70     		strb	r2, [r3]
 136:Middlewares/ST/STM32_USB_Device_Library/Core/Src/usbd_core.c **** 
 137:Middlewares/ST/STM32_USB_Device_Library/Core/Src/usbd_core.c ****   /* Initialize low level driver */
 138:Middlewares/ST/STM32_USB_Device_Library/Core/Src/usbd_core.c ****   ret = USBD_LL_Init(pdev);
  85              		.loc 1 138 9
  86 004c F868     		ldr	r0, [r7, #12]
  87 004e FFF7FEFF 		bl	USBD_LL_Init
  88 0052 0346     		mov	r3, r0
  89 0054 FB75     		strb	r3, [r7, #23]
 139:Middlewares/ST/STM32_USB_Device_Library/Core/Src/usbd_core.c **** 
 140:Middlewares/ST/STM32_USB_Device_Library/Core/Src/usbd_core.c ****   return ret;
ARM GAS  C:\Users\EI\AppData\Local\Temp\cc8Es05K.s 			page 5


  90              		.loc 1 140 10
  91 0056 FB7D     		ldrb	r3, [r7, #23]	@ zero_extendqisi2
  92              	.L3:
 141:Middlewares/ST/STM32_USB_Device_Library/Core/Src/usbd_core.c **** }
  93              		.loc 1 141 1
  94 0058 1846     		mov	r0, r3
  95 005a 1837     		adds	r7, r7, #24
  96              	.LCFI3:
  97              		.cfi_def_cfa_offset 8
  98 005c BD46     		mov	sp, r7
  99              	.LCFI4:
 100              		.cfi_def_cfa_register 13
 101              		@ sp needed
 102 005e 80BD     		pop	{r7, pc}
 103              		.cfi_endproc
 104              	.LFE220:
 106              		.section	.text.USBD_DeInit,"ax",%progbits
 107              		.align	1
 108              		.global	USBD_DeInit
 109              		.syntax unified
 110              		.thumb
 111              		.thumb_func
 112              		.fpu fpv4-sp-d16
 114              	USBD_DeInit:
 115              	.LFB221:
 142:Middlewares/ST/STM32_USB_Device_Library/Core/Src/usbd_core.c **** 
 143:Middlewares/ST/STM32_USB_Device_Library/Core/Src/usbd_core.c **** /**
 144:Middlewares/ST/STM32_USB_Device_Library/Core/Src/usbd_core.c ****   * @brief  USBD_DeInit
 145:Middlewares/ST/STM32_USB_Device_Library/Core/Src/usbd_core.c ****   *         Re-Initialize the device library
 146:Middlewares/ST/STM32_USB_Device_Library/Core/Src/usbd_core.c ****   * @param  pdev: device instance
 147:Middlewares/ST/STM32_USB_Device_Library/Core/Src/usbd_core.c ****   * @retval status: status
 148:Middlewares/ST/STM32_USB_Device_Library/Core/Src/usbd_core.c ****   */
 149:Middlewares/ST/STM32_USB_Device_Library/Core/Src/usbd_core.c **** USBD_StatusTypeDef USBD_DeInit(USBD_HandleTypeDef *pdev)
 150:Middlewares/ST/STM32_USB_Device_Library/Core/Src/usbd_core.c **** {
 116              		.loc 1 150 1
 117              		.cfi_startproc
 118              		@ args = 0, pretend = 0, frame = 16
 119              		@ frame_needed = 1, uses_anonymous_args = 0
 120 0000 80B5     		push	{r7, lr}
 121              	.LCFI5:
 122              		.cfi_def_cfa_offset 8
 123              		.cfi_offset 7, -8
 124              		.cfi_offset 14, -4
 125 0002 84B0     		sub	sp, sp, #16
 126              	.LCFI6:
 127              		.cfi_def_cfa_offset 24
 128 0004 00AF     		add	r7, sp, #0
 129              	.LCFI7:
 130              		.cfi_def_cfa_register 7
 131 0006 7860     		str	r0, [r7, #4]
 151:Middlewares/ST/STM32_USB_Device_Library/Core/Src/usbd_core.c ****   USBD_StatusTypeDef ret;
 152:Middlewares/ST/STM32_USB_Device_Library/Core/Src/usbd_core.c **** 
 153:Middlewares/ST/STM32_USB_Device_Library/Core/Src/usbd_core.c ****   /* Disconnect the USB Device */
 154:Middlewares/ST/STM32_USB_Device_Library/Core/Src/usbd_core.c ****   (void)USBD_LL_Stop(pdev);
 132              		.loc 1 154 9
 133 0008 7868     		ldr	r0, [r7, #4]
 134 000a FFF7FEFF 		bl	USBD_LL_Stop
ARM GAS  C:\Users\EI\AppData\Local\Temp\cc8Es05K.s 			page 6


 155:Middlewares/ST/STM32_USB_Device_Library/Core/Src/usbd_core.c **** 
 156:Middlewares/ST/STM32_USB_Device_Library/Core/Src/usbd_core.c ****   /* Set Default State */
 157:Middlewares/ST/STM32_USB_Device_Library/Core/Src/usbd_core.c ****   pdev->dev_state = USBD_STATE_DEFAULT;
 135              		.loc 1 157 19
 136 000e 7B68     		ldr	r3, [r7, #4]
 137 0010 0122     		movs	r2, #1
 138 0012 83F89C22 		strb	r2, [r3, #668]
 158:Middlewares/ST/STM32_USB_Device_Library/Core/Src/usbd_core.c **** 
 159:Middlewares/ST/STM32_USB_Device_Library/Core/Src/usbd_core.c **** #ifdef USE_USBD_COMPOSITE
 160:Middlewares/ST/STM32_USB_Device_Library/Core/Src/usbd_core.c ****   /* Parse the table of classes in use */
 161:Middlewares/ST/STM32_USB_Device_Library/Core/Src/usbd_core.c ****   for (uint32_t i = 0; i < USBD_MAX_SUPPORTED_CLASS; i++)
 162:Middlewares/ST/STM32_USB_Device_Library/Core/Src/usbd_core.c ****   {
 163:Middlewares/ST/STM32_USB_Device_Library/Core/Src/usbd_core.c ****     /* Check if current class is in use */
 164:Middlewares/ST/STM32_USB_Device_Library/Core/Src/usbd_core.c ****     if ((pdev->tclasslist[i].Active) == 1U)
 165:Middlewares/ST/STM32_USB_Device_Library/Core/Src/usbd_core.c ****     {
 166:Middlewares/ST/STM32_USB_Device_Library/Core/Src/usbd_core.c ****       if (pdev->pClass[i] != NULL)
 167:Middlewares/ST/STM32_USB_Device_Library/Core/Src/usbd_core.c ****       {
 168:Middlewares/ST/STM32_USB_Device_Library/Core/Src/usbd_core.c ****         pdev->classId = i;
 169:Middlewares/ST/STM32_USB_Device_Library/Core/Src/usbd_core.c ****         /* Free Class Resources */
 170:Middlewares/ST/STM32_USB_Device_Library/Core/Src/usbd_core.c ****         pdev->pClass[i]->DeInit(pdev, (uint8_t)pdev->dev_config);
 171:Middlewares/ST/STM32_USB_Device_Library/Core/Src/usbd_core.c ****       }
 172:Middlewares/ST/STM32_USB_Device_Library/Core/Src/usbd_core.c ****     }
 173:Middlewares/ST/STM32_USB_Device_Library/Core/Src/usbd_core.c ****   }
 174:Middlewares/ST/STM32_USB_Device_Library/Core/Src/usbd_core.c **** #else
 175:Middlewares/ST/STM32_USB_Device_Library/Core/Src/usbd_core.c ****   /* Free Class Resources */
 176:Middlewares/ST/STM32_USB_Device_Library/Core/Src/usbd_core.c ****   if (pdev->pClass[0] != NULL)
 139              		.loc 1 176 19
 140 0016 7B68     		ldr	r3, [r7, #4]
 141 0018 D3F8B832 		ldr	r3, [r3, #696]
 142              		.loc 1 176 6
 143 001c 002B     		cmp	r3, #0
 144 001e 09D0     		beq	.L6
 177:Middlewares/ST/STM32_USB_Device_Library/Core/Src/usbd_core.c ****   {
 178:Middlewares/ST/STM32_USB_Device_Library/Core/Src/usbd_core.c ****     pdev->pClass[0]->DeInit(pdev, (uint8_t)pdev->dev_config);
 145              		.loc 1 178 17
 146 0020 7B68     		ldr	r3, [r7, #4]
 147 0022 D3F8B832 		ldr	r3, [r3, #696]
 148              		.loc 1 178 20
 149 0026 5B68     		ldr	r3, [r3, #4]
 150              		.loc 1 178 48
 151 0028 7A68     		ldr	r2, [r7, #4]
 152 002a 5268     		ldr	r2, [r2, #4]
 153              		.loc 1 178 5
 154 002c D2B2     		uxtb	r2, r2
 155 002e 1146     		mov	r1, r2
 156 0030 7868     		ldr	r0, [r7, #4]
 157 0032 9847     		blx	r3
 158              	.LVL0:
 159              	.L6:
 179:Middlewares/ST/STM32_USB_Device_Library/Core/Src/usbd_core.c ****   }
 180:Middlewares/ST/STM32_USB_Device_Library/Core/Src/usbd_core.c **** 
 181:Middlewares/ST/STM32_USB_Device_Library/Core/Src/usbd_core.c ****   pdev->pUserData[0] = NULL;
 160              		.loc 1 181 22
 161 0034 7B68     		ldr	r3, [r7, #4]
 162 0036 0022     		movs	r2, #0
 163 0038 C3F8C422 		str	r2, [r3, #708]
 182:Middlewares/ST/STM32_USB_Device_Library/Core/Src/usbd_core.c **** 
ARM GAS  C:\Users\EI\AppData\Local\Temp\cc8Es05K.s 			page 7


 183:Middlewares/ST/STM32_USB_Device_Library/Core/Src/usbd_core.c **** #endif /* USE_USBD_COMPOSITE */
 184:Middlewares/ST/STM32_USB_Device_Library/Core/Src/usbd_core.c **** 
 185:Middlewares/ST/STM32_USB_Device_Library/Core/Src/usbd_core.c ****   /* Free Device descriptors resources */
 186:Middlewares/ST/STM32_USB_Device_Library/Core/Src/usbd_core.c ****   pdev->pDesc = NULL;
 164              		.loc 1 186 15
 165 003c 7B68     		ldr	r3, [r7, #4]
 166 003e 0022     		movs	r2, #0
 167 0040 C3F8B422 		str	r2, [r3, #692]
 187:Middlewares/ST/STM32_USB_Device_Library/Core/Src/usbd_core.c ****   pdev->pConfDesc = NULL;
 168              		.loc 1 187 19
 169 0044 7B68     		ldr	r3, [r7, #4]
 170 0046 0022     		movs	r2, #0
 171 0048 C3F8D022 		str	r2, [r3, #720]
 188:Middlewares/ST/STM32_USB_Device_Library/Core/Src/usbd_core.c **** 
 189:Middlewares/ST/STM32_USB_Device_Library/Core/Src/usbd_core.c ****   /* DeInitialize low level driver */
 190:Middlewares/ST/STM32_USB_Device_Library/Core/Src/usbd_core.c ****   ret = USBD_LL_DeInit(pdev);
 172              		.loc 1 190 9
 173 004c 7868     		ldr	r0, [r7, #4]
 174 004e FFF7FEFF 		bl	USBD_LL_DeInit
 175 0052 0346     		mov	r3, r0
 176 0054 FB73     		strb	r3, [r7, #15]
 191:Middlewares/ST/STM32_USB_Device_Library/Core/Src/usbd_core.c **** 
 192:Middlewares/ST/STM32_USB_Device_Library/Core/Src/usbd_core.c ****   return ret;
 177              		.loc 1 192 10
 178 0056 FB7B     		ldrb	r3, [r7, #15]	@ zero_extendqisi2
 193:Middlewares/ST/STM32_USB_Device_Library/Core/Src/usbd_core.c **** }
 179              		.loc 1 193 1
 180 0058 1846     		mov	r0, r3
 181 005a 1037     		adds	r7, r7, #16
 182              	.LCFI8:
 183              		.cfi_def_cfa_offset 8
 184 005c BD46     		mov	sp, r7
 185              	.LCFI9:
 186              		.cfi_def_cfa_register 13
 187              		@ sp needed
 188 005e 80BD     		pop	{r7, pc}
 189              		.cfi_endproc
 190              	.LFE221:
 192              		.section	.text.USBD_RegisterClass,"ax",%progbits
 193              		.align	1
 194              		.global	USBD_RegisterClass
 195              		.syntax unified
 196              		.thumb
 197              		.thumb_func
 198              		.fpu fpv4-sp-d16
 200              	USBD_RegisterClass:
 201              	.LFB222:
 194:Middlewares/ST/STM32_USB_Device_Library/Core/Src/usbd_core.c **** 
 195:Middlewares/ST/STM32_USB_Device_Library/Core/Src/usbd_core.c **** /**
 196:Middlewares/ST/STM32_USB_Device_Library/Core/Src/usbd_core.c ****   * @brief  USBD_RegisterClass
 197:Middlewares/ST/STM32_USB_Device_Library/Core/Src/usbd_core.c ****   *         Link class driver to Device Core.
 198:Middlewares/ST/STM32_USB_Device_Library/Core/Src/usbd_core.c ****   * @param  pDevice : Device Handle
 199:Middlewares/ST/STM32_USB_Device_Library/Core/Src/usbd_core.c ****   * @param  pclass: Class handle
 200:Middlewares/ST/STM32_USB_Device_Library/Core/Src/usbd_core.c ****   * @retval USBD Status
 201:Middlewares/ST/STM32_USB_Device_Library/Core/Src/usbd_core.c ****   */
 202:Middlewares/ST/STM32_USB_Device_Library/Core/Src/usbd_core.c **** USBD_StatusTypeDef USBD_RegisterClass(USBD_HandleTypeDef *pdev, USBD_ClassTypeDef *pclass)
 203:Middlewares/ST/STM32_USB_Device_Library/Core/Src/usbd_core.c **** {
ARM GAS  C:\Users\EI\AppData\Local\Temp\cc8Es05K.s 			page 8


 202              		.loc 1 203 1
 203              		.cfi_startproc
 204              		@ args = 0, pretend = 0, frame = 16
 205              		@ frame_needed = 1, uses_anonymous_args = 0
 206 0000 80B5     		push	{r7, lr}
 207              	.LCFI10:
 208              		.cfi_def_cfa_offset 8
 209              		.cfi_offset 7, -8
 210              		.cfi_offset 14, -4
 211 0002 84B0     		sub	sp, sp, #16
 212              	.LCFI11:
 213              		.cfi_def_cfa_offset 24
 214 0004 00AF     		add	r7, sp, #0
 215              	.LCFI12:
 216              		.cfi_def_cfa_register 7
 217 0006 7860     		str	r0, [r7, #4]
 218 0008 3960     		str	r1, [r7]
 204:Middlewares/ST/STM32_USB_Device_Library/Core/Src/usbd_core.c ****   uint16_t len = 0U;
 219              		.loc 1 204 12
 220 000a 0023     		movs	r3, #0
 221 000c FB81     		strh	r3, [r7, #14]	@ movhi
 205:Middlewares/ST/STM32_USB_Device_Library/Core/Src/usbd_core.c **** 
 206:Middlewares/ST/STM32_USB_Device_Library/Core/Src/usbd_core.c ****   if (pclass == NULL)
 222              		.loc 1 206 6
 223 000e 3B68     		ldr	r3, [r7]
 224 0010 002B     		cmp	r3, #0
 225 0012 01D1     		bne	.L9
 207:Middlewares/ST/STM32_USB_Device_Library/Core/Src/usbd_core.c ****   {
 208:Middlewares/ST/STM32_USB_Device_Library/Core/Src/usbd_core.c **** #if (USBD_DEBUG_LEVEL > 1U)
 209:Middlewares/ST/STM32_USB_Device_Library/Core/Src/usbd_core.c ****     USBD_ErrLog("Invalid Class handle");
 210:Middlewares/ST/STM32_USB_Device_Library/Core/Src/usbd_core.c **** #endif /* (USBD_DEBUG_LEVEL > 1U) */
 211:Middlewares/ST/STM32_USB_Device_Library/Core/Src/usbd_core.c ****     return USBD_FAIL;
 226              		.loc 1 211 12
 227 0014 0323     		movs	r3, #3
 228 0016 25E0     		b	.L12
 229              	.L9:
 212:Middlewares/ST/STM32_USB_Device_Library/Core/Src/usbd_core.c ****   }
 213:Middlewares/ST/STM32_USB_Device_Library/Core/Src/usbd_core.c **** 
 214:Middlewares/ST/STM32_USB_Device_Library/Core/Src/usbd_core.c ****   /* link the class to the USB Device handle */
 215:Middlewares/ST/STM32_USB_Device_Library/Core/Src/usbd_core.c ****   pdev->pClass[0] = pclass;
 230              		.loc 1 215 19
 231 0018 7B68     		ldr	r3, [r7, #4]
 232 001a 3A68     		ldr	r2, [r7]
 233 001c C3F8B822 		str	r2, [r3, #696]
 216:Middlewares/ST/STM32_USB_Device_Library/Core/Src/usbd_core.c **** 
 217:Middlewares/ST/STM32_USB_Device_Library/Core/Src/usbd_core.c ****   /* Get Device Configuration Descriptor */
 218:Middlewares/ST/STM32_USB_Device_Library/Core/Src/usbd_core.c **** #ifdef USE_USB_HS
 219:Middlewares/ST/STM32_USB_Device_Library/Core/Src/usbd_core.c ****   if (pdev->pClass[pdev->classId]->GetHSConfigDescriptor != NULL)
 220:Middlewares/ST/STM32_USB_Device_Library/Core/Src/usbd_core.c ****   {
 221:Middlewares/ST/STM32_USB_Device_Library/Core/Src/usbd_core.c ****     pdev->pConfDesc = (void *)pdev->pClass[pdev->classId]->GetHSConfigDescriptor(&len);
 222:Middlewares/ST/STM32_USB_Device_Library/Core/Src/usbd_core.c ****   }
 223:Middlewares/ST/STM32_USB_Device_Library/Core/Src/usbd_core.c **** #else /* Default USE_USB_FS */
 224:Middlewares/ST/STM32_USB_Device_Library/Core/Src/usbd_core.c ****   if (pdev->pClass[pdev->classId]->GetFSConfigDescriptor != NULL)
 234              		.loc 1 224 24
 235 0020 7B68     		ldr	r3, [r7, #4]
 236 0022 D3F8D422 		ldr	r2, [r3, #724]
 237              		.loc 1 224 19
ARM GAS  C:\Users\EI\AppData\Local\Temp\cc8Es05K.s 			page 9


 238 0026 7B68     		ldr	r3, [r7, #4]
 239 0028 AE32     		adds	r2, r2, #174
 240 002a 53F82230 		ldr	r3, [r3, r2, lsl #2]
 241              		.loc 1 224 34
 242 002e DB6A     		ldr	r3, [r3, #44]
 243              		.loc 1 224 6
 244 0030 002B     		cmp	r3, #0
 245 0032 0FD0     		beq	.L11
 225:Middlewares/ST/STM32_USB_Device_Library/Core/Src/usbd_core.c ****   {
 226:Middlewares/ST/STM32_USB_Device_Library/Core/Src/usbd_core.c ****     pdev->pConfDesc = (void *)pdev->pClass[pdev->classId]->GetFSConfigDescriptor(&len);
 246              		.loc 1 226 48
 247 0034 7B68     		ldr	r3, [r7, #4]
 248 0036 D3F8D422 		ldr	r2, [r3, #724]
 249              		.loc 1 226 43
 250 003a 7B68     		ldr	r3, [r7, #4]
 251 003c AE32     		adds	r2, r2, #174
 252 003e 53F82230 		ldr	r3, [r3, r2, lsl #2]
 253              		.loc 1 226 58
 254 0042 DB6A     		ldr	r3, [r3, #44]
 255              		.loc 1 226 31
 256 0044 07F10E02 		add	r2, r7, #14
 257 0048 1046     		mov	r0, r2
 258 004a 9847     		blx	r3
 259              	.LVL1:
 260 004c 0246     		mov	r2, r0
 261              		.loc 1 226 21
 262 004e 7B68     		ldr	r3, [r7, #4]
 263 0050 C3F8D022 		str	r2, [r3, #720]
 264              	.L11:
 227:Middlewares/ST/STM32_USB_Device_Library/Core/Src/usbd_core.c ****   }
 228:Middlewares/ST/STM32_USB_Device_Library/Core/Src/usbd_core.c **** #endif /* USE_USB_FS */
 229:Middlewares/ST/STM32_USB_Device_Library/Core/Src/usbd_core.c **** 
 230:Middlewares/ST/STM32_USB_Device_Library/Core/Src/usbd_core.c ****   /* Increment the NumClasses */
 231:Middlewares/ST/STM32_USB_Device_Library/Core/Src/usbd_core.c ****   pdev->NumClasses ++;
 265              		.loc 1 231 7
 266 0054 7B68     		ldr	r3, [r7, #4]
 267 0056 D3F8D832 		ldr	r3, [r3, #728]
 268              		.loc 1 231 20
 269 005a 5A1C     		adds	r2, r3, #1
 270 005c 7B68     		ldr	r3, [r7, #4]
 271 005e C3F8D822 		str	r2, [r3, #728]
 232:Middlewares/ST/STM32_USB_Device_Library/Core/Src/usbd_core.c **** 
 233:Middlewares/ST/STM32_USB_Device_Library/Core/Src/usbd_core.c ****   return USBD_OK;
 272              		.loc 1 233 10
 273 0062 0023     		movs	r3, #0
 274              	.L12:
 234:Middlewares/ST/STM32_USB_Device_Library/Core/Src/usbd_core.c **** }
 275              		.loc 1 234 1 discriminator 1
 276 0064 1846     		mov	r0, r3
 277 0066 1037     		adds	r7, r7, #16
 278              	.LCFI13:
 279              		.cfi_def_cfa_offset 8
 280 0068 BD46     		mov	sp, r7
 281              	.LCFI14:
 282              		.cfi_def_cfa_register 13
 283              		@ sp needed
 284 006a 80BD     		pop	{r7, pc}
ARM GAS  C:\Users\EI\AppData\Local\Temp\cc8Es05K.s 			page 10


 285              		.cfi_endproc
 286              	.LFE222:
 288              		.section	.text.USBD_Start,"ax",%progbits
 289              		.align	1
 290              		.global	USBD_Start
 291              		.syntax unified
 292              		.thumb
 293              		.thumb_func
 294              		.fpu fpv4-sp-d16
 296              	USBD_Start:
 297              	.LFB223:
 235:Middlewares/ST/STM32_USB_Device_Library/Core/Src/usbd_core.c **** 
 236:Middlewares/ST/STM32_USB_Device_Library/Core/Src/usbd_core.c **** #ifdef USE_USBD_COMPOSITE
 237:Middlewares/ST/STM32_USB_Device_Library/Core/Src/usbd_core.c **** /**
 238:Middlewares/ST/STM32_USB_Device_Library/Core/Src/usbd_core.c ****   * @brief  USBD_RegisterClassComposite
 239:Middlewares/ST/STM32_USB_Device_Library/Core/Src/usbd_core.c ****   *         Link class driver to Device Core.
 240:Middlewares/ST/STM32_USB_Device_Library/Core/Src/usbd_core.c ****   * @param  pdev : Device Handle
 241:Middlewares/ST/STM32_USB_Device_Library/Core/Src/usbd_core.c ****   * @param  pclass: Class handle
 242:Middlewares/ST/STM32_USB_Device_Library/Core/Src/usbd_core.c ****   * @param  classtype: Class type
 243:Middlewares/ST/STM32_USB_Device_Library/Core/Src/usbd_core.c ****   * @param  EpAddr: Endpoint Address handle
 244:Middlewares/ST/STM32_USB_Device_Library/Core/Src/usbd_core.c ****   * @retval USBD Status
 245:Middlewares/ST/STM32_USB_Device_Library/Core/Src/usbd_core.c ****   */
 246:Middlewares/ST/STM32_USB_Device_Library/Core/Src/usbd_core.c **** USBD_StatusTypeDef  USBD_RegisterClassComposite(USBD_HandleTypeDef *pdev, USBD_ClassTypeDef *pclass
 247:Middlewares/ST/STM32_USB_Device_Library/Core/Src/usbd_core.c ****                                                 USBD_CompositeClassTypeDef classtype, uint8_t *EpAd
 248:Middlewares/ST/STM32_USB_Device_Library/Core/Src/usbd_core.c **** {
 249:Middlewares/ST/STM32_USB_Device_Library/Core/Src/usbd_core.c ****   USBD_StatusTypeDef   ret = USBD_OK;
 250:Middlewares/ST/STM32_USB_Device_Library/Core/Src/usbd_core.c ****   uint16_t len = 0U;
 251:Middlewares/ST/STM32_USB_Device_Library/Core/Src/usbd_core.c **** 
 252:Middlewares/ST/STM32_USB_Device_Library/Core/Src/usbd_core.c ****   if ((pdev->classId < USBD_MAX_SUPPORTED_CLASS) && (pdev->NumClasses < USBD_MAX_SUPPORTED_CLASS))
 253:Middlewares/ST/STM32_USB_Device_Library/Core/Src/usbd_core.c ****   {
 254:Middlewares/ST/STM32_USB_Device_Library/Core/Src/usbd_core.c ****     if ((uint32_t)pclass != 0U)
 255:Middlewares/ST/STM32_USB_Device_Library/Core/Src/usbd_core.c ****     {
 256:Middlewares/ST/STM32_USB_Device_Library/Core/Src/usbd_core.c ****       /* Link the class to the USB Device handle */
 257:Middlewares/ST/STM32_USB_Device_Library/Core/Src/usbd_core.c ****       pdev->pClass[pdev->classId] = pclass;
 258:Middlewares/ST/STM32_USB_Device_Library/Core/Src/usbd_core.c ****       ret = USBD_OK;
 259:Middlewares/ST/STM32_USB_Device_Library/Core/Src/usbd_core.c **** 
 260:Middlewares/ST/STM32_USB_Device_Library/Core/Src/usbd_core.c ****       pdev->tclasslist[pdev->classId].EpAdd = EpAddr;
 261:Middlewares/ST/STM32_USB_Device_Library/Core/Src/usbd_core.c **** 
 262:Middlewares/ST/STM32_USB_Device_Library/Core/Src/usbd_core.c ****       /* Call the composite class builder */
 263:Middlewares/ST/STM32_USB_Device_Library/Core/Src/usbd_core.c ****       (void)USBD_CMPSIT_AddClass(pdev, pclass, classtype, 0);
 264:Middlewares/ST/STM32_USB_Device_Library/Core/Src/usbd_core.c **** 
 265:Middlewares/ST/STM32_USB_Device_Library/Core/Src/usbd_core.c ****       /* Increment the ClassId for the next occurrence */
 266:Middlewares/ST/STM32_USB_Device_Library/Core/Src/usbd_core.c ****       pdev->classId ++;
 267:Middlewares/ST/STM32_USB_Device_Library/Core/Src/usbd_core.c ****       pdev->NumClasses ++;
 268:Middlewares/ST/STM32_USB_Device_Library/Core/Src/usbd_core.c ****     }
 269:Middlewares/ST/STM32_USB_Device_Library/Core/Src/usbd_core.c ****     else
 270:Middlewares/ST/STM32_USB_Device_Library/Core/Src/usbd_core.c ****     {
 271:Middlewares/ST/STM32_USB_Device_Library/Core/Src/usbd_core.c **** #if (USBD_DEBUG_LEVEL > 1U)
 272:Middlewares/ST/STM32_USB_Device_Library/Core/Src/usbd_core.c ****       USBD_ErrLog("Invalid Class handle");
 273:Middlewares/ST/STM32_USB_Device_Library/Core/Src/usbd_core.c **** #endif /* (USBD_DEBUG_LEVEL > 1U) */
 274:Middlewares/ST/STM32_USB_Device_Library/Core/Src/usbd_core.c ****       ret = USBD_FAIL;
 275:Middlewares/ST/STM32_USB_Device_Library/Core/Src/usbd_core.c ****     }
 276:Middlewares/ST/STM32_USB_Device_Library/Core/Src/usbd_core.c ****   }
 277:Middlewares/ST/STM32_USB_Device_Library/Core/Src/usbd_core.c **** 
 278:Middlewares/ST/STM32_USB_Device_Library/Core/Src/usbd_core.c ****   if (ret == USBD_OK)
 279:Middlewares/ST/STM32_USB_Device_Library/Core/Src/usbd_core.c ****   {
 280:Middlewares/ST/STM32_USB_Device_Library/Core/Src/usbd_core.c ****     /* Get Device Configuration Descriptor */
ARM GAS  C:\Users\EI\AppData\Local\Temp\cc8Es05K.s 			page 11


 281:Middlewares/ST/STM32_USB_Device_Library/Core/Src/usbd_core.c **** #ifdef USE_USB_HS
 282:Middlewares/ST/STM32_USB_Device_Library/Core/Src/usbd_core.c ****     pdev->pConfDesc = USBD_CMPSIT.GetHSConfigDescriptor(&len);
 283:Middlewares/ST/STM32_USB_Device_Library/Core/Src/usbd_core.c **** #else /* Default USE_USB_FS */
 284:Middlewares/ST/STM32_USB_Device_Library/Core/Src/usbd_core.c ****     pdev->pConfDesc = USBD_CMPSIT.GetFSConfigDescriptor(&len);
 285:Middlewares/ST/STM32_USB_Device_Library/Core/Src/usbd_core.c **** #endif /* USE_USB_FS */
 286:Middlewares/ST/STM32_USB_Device_Library/Core/Src/usbd_core.c ****   }
 287:Middlewares/ST/STM32_USB_Device_Library/Core/Src/usbd_core.c **** 
 288:Middlewares/ST/STM32_USB_Device_Library/Core/Src/usbd_core.c ****   return ret;
 289:Middlewares/ST/STM32_USB_Device_Library/Core/Src/usbd_core.c **** }
 290:Middlewares/ST/STM32_USB_Device_Library/Core/Src/usbd_core.c **** 
 291:Middlewares/ST/STM32_USB_Device_Library/Core/Src/usbd_core.c **** /**
 292:Middlewares/ST/STM32_USB_Device_Library/Core/Src/usbd_core.c ****   * @brief  USBD_UnRegisterClassComposite
 293:Middlewares/ST/STM32_USB_Device_Library/Core/Src/usbd_core.c ****   *         UnLink all composite class drivers from Device Core.
 294:Middlewares/ST/STM32_USB_Device_Library/Core/Src/usbd_core.c ****   * @param  pDevice : Device Handle
 295:Middlewares/ST/STM32_USB_Device_Library/Core/Src/usbd_core.c ****   * @retval USBD Status
 296:Middlewares/ST/STM32_USB_Device_Library/Core/Src/usbd_core.c ****   */
 297:Middlewares/ST/STM32_USB_Device_Library/Core/Src/usbd_core.c **** USBD_StatusTypeDef  USBD_UnRegisterClassComposite(USBD_HandleTypeDef *pdev)
 298:Middlewares/ST/STM32_USB_Device_Library/Core/Src/usbd_core.c **** {
 299:Middlewares/ST/STM32_USB_Device_Library/Core/Src/usbd_core.c ****   USBD_StatusTypeDef   ret = USBD_FAIL;
 300:Middlewares/ST/STM32_USB_Device_Library/Core/Src/usbd_core.c ****   uint8_t idx1;
 301:Middlewares/ST/STM32_USB_Device_Library/Core/Src/usbd_core.c ****   uint8_t idx2;
 302:Middlewares/ST/STM32_USB_Device_Library/Core/Src/usbd_core.c **** 
 303:Middlewares/ST/STM32_USB_Device_Library/Core/Src/usbd_core.c ****   /* Unroll all activated classes */
 304:Middlewares/ST/STM32_USB_Device_Library/Core/Src/usbd_core.c ****   for (idx1 = 0; idx1 < pdev->NumClasses; idx1++)
 305:Middlewares/ST/STM32_USB_Device_Library/Core/Src/usbd_core.c ****   {
 306:Middlewares/ST/STM32_USB_Device_Library/Core/Src/usbd_core.c ****     /* Check if the class correspond to the requested type and if it is active */
 307:Middlewares/ST/STM32_USB_Device_Library/Core/Src/usbd_core.c ****     if (pdev->tclasslist[idx1].Active == 1U)
 308:Middlewares/ST/STM32_USB_Device_Library/Core/Src/usbd_core.c ****     {
 309:Middlewares/ST/STM32_USB_Device_Library/Core/Src/usbd_core.c ****       /* Set the new class ID */
 310:Middlewares/ST/STM32_USB_Device_Library/Core/Src/usbd_core.c ****       pdev->classId = idx1;
 311:Middlewares/ST/STM32_USB_Device_Library/Core/Src/usbd_core.c **** 
 312:Middlewares/ST/STM32_USB_Device_Library/Core/Src/usbd_core.c ****       /* Free resources used by the selected class */
 313:Middlewares/ST/STM32_USB_Device_Library/Core/Src/usbd_core.c ****       if (pdev->pClass[pdev->classId] != NULL)
 314:Middlewares/ST/STM32_USB_Device_Library/Core/Src/usbd_core.c ****       {
 315:Middlewares/ST/STM32_USB_Device_Library/Core/Src/usbd_core.c ****         /* Free Class Resources */
 316:Middlewares/ST/STM32_USB_Device_Library/Core/Src/usbd_core.c ****         if (pdev->pClass[pdev->classId]->DeInit(pdev, (uint8_t)pdev->dev_config) != 0U)
 317:Middlewares/ST/STM32_USB_Device_Library/Core/Src/usbd_core.c ****         {
 318:Middlewares/ST/STM32_USB_Device_Library/Core/Src/usbd_core.c **** #if (USBD_DEBUG_LEVEL > 1U)
 319:Middlewares/ST/STM32_USB_Device_Library/Core/Src/usbd_core.c ****           USBD_ErrLog("Class DeInit didn't succeed!, can't unregister selected class");
 320:Middlewares/ST/STM32_USB_Device_Library/Core/Src/usbd_core.c **** #endif /* (USBD_DEBUG_LEVEL > 1U) */
 321:Middlewares/ST/STM32_USB_Device_Library/Core/Src/usbd_core.c **** 
 322:Middlewares/ST/STM32_USB_Device_Library/Core/Src/usbd_core.c ****           ret = USBD_FAIL;
 323:Middlewares/ST/STM32_USB_Device_Library/Core/Src/usbd_core.c ****         }
 324:Middlewares/ST/STM32_USB_Device_Library/Core/Src/usbd_core.c ****       }
 325:Middlewares/ST/STM32_USB_Device_Library/Core/Src/usbd_core.c **** 
 326:Middlewares/ST/STM32_USB_Device_Library/Core/Src/usbd_core.c ****       /* Free the class pointer */
 327:Middlewares/ST/STM32_USB_Device_Library/Core/Src/usbd_core.c ****       pdev->pClass[pdev->classId] = NULL;
 328:Middlewares/ST/STM32_USB_Device_Library/Core/Src/usbd_core.c **** 
 329:Middlewares/ST/STM32_USB_Device_Library/Core/Src/usbd_core.c ****       /* Free the class location in classes table and reset its parameters to zero */
 330:Middlewares/ST/STM32_USB_Device_Library/Core/Src/usbd_core.c ****       pdev->tclasslist[pdev->classId].ClassType = CLASS_TYPE_NONE;
 331:Middlewares/ST/STM32_USB_Device_Library/Core/Src/usbd_core.c ****       pdev->tclasslist[pdev->classId].ClassId = 0U;
 332:Middlewares/ST/STM32_USB_Device_Library/Core/Src/usbd_core.c ****       pdev->tclasslist[pdev->classId].Active = 0U;
 333:Middlewares/ST/STM32_USB_Device_Library/Core/Src/usbd_core.c ****       pdev->tclasslist[pdev->classId].NumEps = 0U;
 334:Middlewares/ST/STM32_USB_Device_Library/Core/Src/usbd_core.c ****       pdev->tclasslist[pdev->classId].NumIf = 0U;
 335:Middlewares/ST/STM32_USB_Device_Library/Core/Src/usbd_core.c ****       pdev->tclasslist[pdev->classId].CurrPcktSze = 0U;
 336:Middlewares/ST/STM32_USB_Device_Library/Core/Src/usbd_core.c **** 
 337:Middlewares/ST/STM32_USB_Device_Library/Core/Src/usbd_core.c ****       for (idx2 = 0U; idx2 < USBD_MAX_CLASS_ENDPOINTS; idx2++)
ARM GAS  C:\Users\EI\AppData\Local\Temp\cc8Es05K.s 			page 12


 338:Middlewares/ST/STM32_USB_Device_Library/Core/Src/usbd_core.c ****       {
 339:Middlewares/ST/STM32_USB_Device_Library/Core/Src/usbd_core.c ****         pdev->tclasslist[pdev->classId].Eps[idx2].add = 0U;
 340:Middlewares/ST/STM32_USB_Device_Library/Core/Src/usbd_core.c ****         pdev->tclasslist[pdev->classId].Eps[idx2].type = 0U;
 341:Middlewares/ST/STM32_USB_Device_Library/Core/Src/usbd_core.c ****         pdev->tclasslist[pdev->classId].Eps[idx2].size = 0U;
 342:Middlewares/ST/STM32_USB_Device_Library/Core/Src/usbd_core.c ****         pdev->tclasslist[pdev->classId].Eps[idx2].is_used = 0U;
 343:Middlewares/ST/STM32_USB_Device_Library/Core/Src/usbd_core.c ****       }
 344:Middlewares/ST/STM32_USB_Device_Library/Core/Src/usbd_core.c **** 
 345:Middlewares/ST/STM32_USB_Device_Library/Core/Src/usbd_core.c ****       for (idx2 = 0U; idx2 < USBD_MAX_CLASS_INTERFACES; idx2++)
 346:Middlewares/ST/STM32_USB_Device_Library/Core/Src/usbd_core.c ****       {
 347:Middlewares/ST/STM32_USB_Device_Library/Core/Src/usbd_core.c ****         pdev->tclasslist[pdev->classId].Ifs[idx2] = 0U;
 348:Middlewares/ST/STM32_USB_Device_Library/Core/Src/usbd_core.c ****       }
 349:Middlewares/ST/STM32_USB_Device_Library/Core/Src/usbd_core.c ****     }
 350:Middlewares/ST/STM32_USB_Device_Library/Core/Src/usbd_core.c ****   }
 351:Middlewares/ST/STM32_USB_Device_Library/Core/Src/usbd_core.c **** 
 352:Middlewares/ST/STM32_USB_Device_Library/Core/Src/usbd_core.c ****   /* Reset the configuration descriptor */
 353:Middlewares/ST/STM32_USB_Device_Library/Core/Src/usbd_core.c ****   (void)USBD_CMPST_ClearConfDesc(pdev);
 354:Middlewares/ST/STM32_USB_Device_Library/Core/Src/usbd_core.c **** 
 355:Middlewares/ST/STM32_USB_Device_Library/Core/Src/usbd_core.c ****   /* Reset the class ID and number of classes */
 356:Middlewares/ST/STM32_USB_Device_Library/Core/Src/usbd_core.c ****   pdev->classId = 0U;
 357:Middlewares/ST/STM32_USB_Device_Library/Core/Src/usbd_core.c ****   pdev->NumClasses = 0U;
 358:Middlewares/ST/STM32_USB_Device_Library/Core/Src/usbd_core.c **** 
 359:Middlewares/ST/STM32_USB_Device_Library/Core/Src/usbd_core.c ****   return ret;
 360:Middlewares/ST/STM32_USB_Device_Library/Core/Src/usbd_core.c **** }
 361:Middlewares/ST/STM32_USB_Device_Library/Core/Src/usbd_core.c **** 
 362:Middlewares/ST/STM32_USB_Device_Library/Core/Src/usbd_core.c **** 
 363:Middlewares/ST/STM32_USB_Device_Library/Core/Src/usbd_core.c **** #endif /* USE_USBD_COMPOSITE */
 364:Middlewares/ST/STM32_USB_Device_Library/Core/Src/usbd_core.c **** 
 365:Middlewares/ST/STM32_USB_Device_Library/Core/Src/usbd_core.c **** /**
 366:Middlewares/ST/STM32_USB_Device_Library/Core/Src/usbd_core.c ****   * @brief  USBD_Start
 367:Middlewares/ST/STM32_USB_Device_Library/Core/Src/usbd_core.c ****   *         Start the USB Device Core.
 368:Middlewares/ST/STM32_USB_Device_Library/Core/Src/usbd_core.c ****   * @param  pdev: Device Handle
 369:Middlewares/ST/STM32_USB_Device_Library/Core/Src/usbd_core.c ****   * @retval USBD Status
 370:Middlewares/ST/STM32_USB_Device_Library/Core/Src/usbd_core.c ****   */
 371:Middlewares/ST/STM32_USB_Device_Library/Core/Src/usbd_core.c **** USBD_StatusTypeDef USBD_Start(USBD_HandleTypeDef *pdev)
 372:Middlewares/ST/STM32_USB_Device_Library/Core/Src/usbd_core.c **** {
 298              		.loc 1 372 1
 299              		.cfi_startproc
 300              		@ args = 0, pretend = 0, frame = 8
 301              		@ frame_needed = 1, uses_anonymous_args = 0
 302 0000 80B5     		push	{r7, lr}
 303              	.LCFI15:
 304              		.cfi_def_cfa_offset 8
 305              		.cfi_offset 7, -8
 306              		.cfi_offset 14, -4
 307 0002 82B0     		sub	sp, sp, #8
 308              	.LCFI16:
 309              		.cfi_def_cfa_offset 16
 310 0004 00AF     		add	r7, sp, #0
 311              	.LCFI17:
 312              		.cfi_def_cfa_register 7
 313 0006 7860     		str	r0, [r7, #4]
 373:Middlewares/ST/STM32_USB_Device_Library/Core/Src/usbd_core.c **** #ifdef USE_USBD_COMPOSITE
 374:Middlewares/ST/STM32_USB_Device_Library/Core/Src/usbd_core.c ****   pdev->classId = 0U;
 375:Middlewares/ST/STM32_USB_Device_Library/Core/Src/usbd_core.c **** #endif /* USE_USBD_COMPOSITE */
 376:Middlewares/ST/STM32_USB_Device_Library/Core/Src/usbd_core.c **** 
 377:Middlewares/ST/STM32_USB_Device_Library/Core/Src/usbd_core.c ****   /* Start the low level driver  */
 378:Middlewares/ST/STM32_USB_Device_Library/Core/Src/usbd_core.c ****   return USBD_LL_Start(pdev);
ARM GAS  C:\Users\EI\AppData\Local\Temp\cc8Es05K.s 			page 13


 314              		.loc 1 378 10
 315 0008 7868     		ldr	r0, [r7, #4]
 316 000a FFF7FEFF 		bl	USBD_LL_Start
 317 000e 0346     		mov	r3, r0
 379:Middlewares/ST/STM32_USB_Device_Library/Core/Src/usbd_core.c **** }
 318              		.loc 1 379 1
 319 0010 1846     		mov	r0, r3
 320 0012 0837     		adds	r7, r7, #8
 321              	.LCFI18:
 322              		.cfi_def_cfa_offset 8
 323 0014 BD46     		mov	sp, r7
 324              	.LCFI19:
 325              		.cfi_def_cfa_register 13
 326              		@ sp needed
 327 0016 80BD     		pop	{r7, pc}
 328              		.cfi_endproc
 329              	.LFE223:
 331              		.section	.text.USBD_Stop,"ax",%progbits
 332              		.align	1
 333              		.global	USBD_Stop
 334              		.syntax unified
 335              		.thumb
 336              		.thumb_func
 337              		.fpu fpv4-sp-d16
 339              	USBD_Stop:
 340              	.LFB224:
 380:Middlewares/ST/STM32_USB_Device_Library/Core/Src/usbd_core.c **** 
 381:Middlewares/ST/STM32_USB_Device_Library/Core/Src/usbd_core.c **** /**
 382:Middlewares/ST/STM32_USB_Device_Library/Core/Src/usbd_core.c ****   * @brief  USBD_Stop
 383:Middlewares/ST/STM32_USB_Device_Library/Core/Src/usbd_core.c ****   *         Stop the USB Device Core.
 384:Middlewares/ST/STM32_USB_Device_Library/Core/Src/usbd_core.c ****   * @param  pdev: Device Handle
 385:Middlewares/ST/STM32_USB_Device_Library/Core/Src/usbd_core.c ****   * @retval USBD Status
 386:Middlewares/ST/STM32_USB_Device_Library/Core/Src/usbd_core.c ****   */
 387:Middlewares/ST/STM32_USB_Device_Library/Core/Src/usbd_core.c **** USBD_StatusTypeDef USBD_Stop(USBD_HandleTypeDef *pdev)
 388:Middlewares/ST/STM32_USB_Device_Library/Core/Src/usbd_core.c **** {
 341              		.loc 1 388 1
 342              		.cfi_startproc
 343              		@ args = 0, pretend = 0, frame = 8
 344              		@ frame_needed = 1, uses_anonymous_args = 0
 345 0000 80B5     		push	{r7, lr}
 346              	.LCFI20:
 347              		.cfi_def_cfa_offset 8
 348              		.cfi_offset 7, -8
 349              		.cfi_offset 14, -4
 350 0002 82B0     		sub	sp, sp, #8
 351              	.LCFI21:
 352              		.cfi_def_cfa_offset 16
 353 0004 00AF     		add	r7, sp, #0
 354              	.LCFI22:
 355              		.cfi_def_cfa_register 7
 356 0006 7860     		str	r0, [r7, #4]
 389:Middlewares/ST/STM32_USB_Device_Library/Core/Src/usbd_core.c ****   /* Disconnect USB Device */
 390:Middlewares/ST/STM32_USB_Device_Library/Core/Src/usbd_core.c ****   (void)USBD_LL_Stop(pdev);
 357              		.loc 1 390 9
 358 0008 7868     		ldr	r0, [r7, #4]
 359 000a FFF7FEFF 		bl	USBD_LL_Stop
 391:Middlewares/ST/STM32_USB_Device_Library/Core/Src/usbd_core.c **** 
ARM GAS  C:\Users\EI\AppData\Local\Temp\cc8Es05K.s 			page 14


 392:Middlewares/ST/STM32_USB_Device_Library/Core/Src/usbd_core.c ****   /* Free Class Resources */
 393:Middlewares/ST/STM32_USB_Device_Library/Core/Src/usbd_core.c **** #ifdef USE_USBD_COMPOSITE
 394:Middlewares/ST/STM32_USB_Device_Library/Core/Src/usbd_core.c ****   /* Parse the table of classes in use */
 395:Middlewares/ST/STM32_USB_Device_Library/Core/Src/usbd_core.c ****   for (uint32_t i = 0U; i < USBD_MAX_SUPPORTED_CLASS; i++)
 396:Middlewares/ST/STM32_USB_Device_Library/Core/Src/usbd_core.c ****   {
 397:Middlewares/ST/STM32_USB_Device_Library/Core/Src/usbd_core.c ****     /* Check if current class is in use */
 398:Middlewares/ST/STM32_USB_Device_Library/Core/Src/usbd_core.c ****     if ((pdev->tclasslist[i].Active) == 1U)
 399:Middlewares/ST/STM32_USB_Device_Library/Core/Src/usbd_core.c ****     {
 400:Middlewares/ST/STM32_USB_Device_Library/Core/Src/usbd_core.c ****       if (pdev->pClass[i] != NULL)
 401:Middlewares/ST/STM32_USB_Device_Library/Core/Src/usbd_core.c ****       {
 402:Middlewares/ST/STM32_USB_Device_Library/Core/Src/usbd_core.c ****         pdev->classId = i;
 403:Middlewares/ST/STM32_USB_Device_Library/Core/Src/usbd_core.c ****         /* Free Class Resources */
 404:Middlewares/ST/STM32_USB_Device_Library/Core/Src/usbd_core.c ****         (void)pdev->pClass[i]->DeInit(pdev, (uint8_t)pdev->dev_config);
 405:Middlewares/ST/STM32_USB_Device_Library/Core/Src/usbd_core.c ****       }
 406:Middlewares/ST/STM32_USB_Device_Library/Core/Src/usbd_core.c ****     }
 407:Middlewares/ST/STM32_USB_Device_Library/Core/Src/usbd_core.c ****   }
 408:Middlewares/ST/STM32_USB_Device_Library/Core/Src/usbd_core.c **** 
 409:Middlewares/ST/STM32_USB_Device_Library/Core/Src/usbd_core.c ****   /* Reset the class ID */
 410:Middlewares/ST/STM32_USB_Device_Library/Core/Src/usbd_core.c ****   pdev->classId = 0U;
 411:Middlewares/ST/STM32_USB_Device_Library/Core/Src/usbd_core.c **** #else
 412:Middlewares/ST/STM32_USB_Device_Library/Core/Src/usbd_core.c ****   if (pdev->pClass[0] != NULL)
 360              		.loc 1 412 19
 361 000e 7B68     		ldr	r3, [r7, #4]
 362 0010 D3F8B832 		ldr	r3, [r3, #696]
 363              		.loc 1 412 6
 364 0014 002B     		cmp	r3, #0
 365 0016 09D0     		beq	.L16
 413:Middlewares/ST/STM32_USB_Device_Library/Core/Src/usbd_core.c ****   {
 414:Middlewares/ST/STM32_USB_Device_Library/Core/Src/usbd_core.c ****     (void)pdev->pClass[0]->DeInit(pdev, (uint8_t)pdev->dev_config);
 366              		.loc 1 414 23
 367 0018 7B68     		ldr	r3, [r7, #4]
 368 001a D3F8B832 		ldr	r3, [r3, #696]
 369              		.loc 1 414 26
 370 001e 5B68     		ldr	r3, [r3, #4]
 371              		.loc 1 414 54
 372 0020 7A68     		ldr	r2, [r7, #4]
 373 0022 5268     		ldr	r2, [r2, #4]
 374              		.loc 1 414 11
 375 0024 D2B2     		uxtb	r2, r2
 376 0026 1146     		mov	r1, r2
 377 0028 7868     		ldr	r0, [r7, #4]
 378 002a 9847     		blx	r3
 379              	.LVL2:
 380              	.L16:
 415:Middlewares/ST/STM32_USB_Device_Library/Core/Src/usbd_core.c ****   }
 416:Middlewares/ST/STM32_USB_Device_Library/Core/Src/usbd_core.c **** #endif /* USE_USBD_COMPOSITE */
 417:Middlewares/ST/STM32_USB_Device_Library/Core/Src/usbd_core.c **** 
 418:Middlewares/ST/STM32_USB_Device_Library/Core/Src/usbd_core.c ****   return USBD_OK;
 381              		.loc 1 418 10
 382 002c 0023     		movs	r3, #0
 419:Middlewares/ST/STM32_USB_Device_Library/Core/Src/usbd_core.c **** }
 383              		.loc 1 419 1
 384 002e 1846     		mov	r0, r3
 385 0030 0837     		adds	r7, r7, #8
 386              	.LCFI23:
 387              		.cfi_def_cfa_offset 8
 388 0032 BD46     		mov	sp, r7
ARM GAS  C:\Users\EI\AppData\Local\Temp\cc8Es05K.s 			page 15


 389              	.LCFI24:
 390              		.cfi_def_cfa_register 13
 391              		@ sp needed
 392 0034 80BD     		pop	{r7, pc}
 393              		.cfi_endproc
 394              	.LFE224:
 396              		.section	.text.USBD_RunTestMode,"ax",%progbits
 397              		.align	1
 398              		.global	USBD_RunTestMode
 399              		.syntax unified
 400              		.thumb
 401              		.thumb_func
 402              		.fpu fpv4-sp-d16
 404              	USBD_RunTestMode:
 405              	.LFB225:
 420:Middlewares/ST/STM32_USB_Device_Library/Core/Src/usbd_core.c **** 
 421:Middlewares/ST/STM32_USB_Device_Library/Core/Src/usbd_core.c **** /**
 422:Middlewares/ST/STM32_USB_Device_Library/Core/Src/usbd_core.c ****   * @brief  USBD_RunTestMode
 423:Middlewares/ST/STM32_USB_Device_Library/Core/Src/usbd_core.c ****   *         Launch test mode process
 424:Middlewares/ST/STM32_USB_Device_Library/Core/Src/usbd_core.c ****   * @param  pdev: device instance
 425:Middlewares/ST/STM32_USB_Device_Library/Core/Src/usbd_core.c ****   * @retval status
 426:Middlewares/ST/STM32_USB_Device_Library/Core/Src/usbd_core.c ****   */
 427:Middlewares/ST/STM32_USB_Device_Library/Core/Src/usbd_core.c **** USBD_StatusTypeDef USBD_RunTestMode(USBD_HandleTypeDef *pdev)
 428:Middlewares/ST/STM32_USB_Device_Library/Core/Src/usbd_core.c **** {
 406              		.loc 1 428 1
 407              		.cfi_startproc
 408              		@ args = 0, pretend = 0, frame = 8
 409              		@ frame_needed = 1, uses_anonymous_args = 0
 410              		@ link register save eliminated.
 411 0000 80B4     		push	{r7}
 412              	.LCFI25:
 413              		.cfi_def_cfa_offset 4
 414              		.cfi_offset 7, -4
 415 0002 83B0     		sub	sp, sp, #12
 416              	.LCFI26:
 417              		.cfi_def_cfa_offset 16
 418 0004 00AF     		add	r7, sp, #0
 419              	.LCFI27:
 420              		.cfi_def_cfa_register 7
 421 0006 7860     		str	r0, [r7, #4]
 429:Middlewares/ST/STM32_USB_Device_Library/Core/Src/usbd_core.c **** #ifdef USBD_HS_TESTMODE_ENABLE
 430:Middlewares/ST/STM32_USB_Device_Library/Core/Src/usbd_core.c ****   USBD_StatusTypeDef ret;
 431:Middlewares/ST/STM32_USB_Device_Library/Core/Src/usbd_core.c **** 
 432:Middlewares/ST/STM32_USB_Device_Library/Core/Src/usbd_core.c ****   /* Run USB HS test mode */
 433:Middlewares/ST/STM32_USB_Device_Library/Core/Src/usbd_core.c ****   ret = USBD_LL_SetTestMode(pdev, pdev->dev_test_mode);
 434:Middlewares/ST/STM32_USB_Device_Library/Core/Src/usbd_core.c **** 
 435:Middlewares/ST/STM32_USB_Device_Library/Core/Src/usbd_core.c ****   return ret;
 436:Middlewares/ST/STM32_USB_Device_Library/Core/Src/usbd_core.c **** #else
 437:Middlewares/ST/STM32_USB_Device_Library/Core/Src/usbd_core.c ****   /* Prevent unused argument compilation warning */
 438:Middlewares/ST/STM32_USB_Device_Library/Core/Src/usbd_core.c ****   UNUSED(pdev);
 439:Middlewares/ST/STM32_USB_Device_Library/Core/Src/usbd_core.c **** 
 440:Middlewares/ST/STM32_USB_Device_Library/Core/Src/usbd_core.c ****   return USBD_OK;
 422              		.loc 1 440 10
 423 0008 0023     		movs	r3, #0
 441:Middlewares/ST/STM32_USB_Device_Library/Core/Src/usbd_core.c **** #endif /* USBD_HS_TESTMODE_ENABLE */
 442:Middlewares/ST/STM32_USB_Device_Library/Core/Src/usbd_core.c **** }
 424              		.loc 1 442 1
ARM GAS  C:\Users\EI\AppData\Local\Temp\cc8Es05K.s 			page 16


 425 000a 1846     		mov	r0, r3
 426 000c 0C37     		adds	r7, r7, #12
 427              	.LCFI28:
 428              		.cfi_def_cfa_offset 4
 429 000e BD46     		mov	sp, r7
 430              	.LCFI29:
 431              		.cfi_def_cfa_register 13
 432              		@ sp needed
 433 0010 5DF8047B 		ldr	r7, [sp], #4
 434              	.LCFI30:
 435              		.cfi_restore 7
 436              		.cfi_def_cfa_offset 0
 437 0014 7047     		bx	lr
 438              		.cfi_endproc
 439              	.LFE225:
 441              		.section	.text.USBD_SetClassConfig,"ax",%progbits
 442              		.align	1
 443              		.global	USBD_SetClassConfig
 444              		.syntax unified
 445              		.thumb
 446              		.thumb_func
 447              		.fpu fpv4-sp-d16
 449              	USBD_SetClassConfig:
 450              	.LFB226:
 443:Middlewares/ST/STM32_USB_Device_Library/Core/Src/usbd_core.c **** 
 444:Middlewares/ST/STM32_USB_Device_Library/Core/Src/usbd_core.c **** /**
 445:Middlewares/ST/STM32_USB_Device_Library/Core/Src/usbd_core.c ****   * @brief  USBD_SetClassConfig
 446:Middlewares/ST/STM32_USB_Device_Library/Core/Src/usbd_core.c ****   *        Configure device and start the interface
 447:Middlewares/ST/STM32_USB_Device_Library/Core/Src/usbd_core.c ****   * @param  pdev: device instance
 448:Middlewares/ST/STM32_USB_Device_Library/Core/Src/usbd_core.c ****   * @param  cfgidx: configuration index
 449:Middlewares/ST/STM32_USB_Device_Library/Core/Src/usbd_core.c ****   * @retval status
 450:Middlewares/ST/STM32_USB_Device_Library/Core/Src/usbd_core.c ****   */
 451:Middlewares/ST/STM32_USB_Device_Library/Core/Src/usbd_core.c **** 
 452:Middlewares/ST/STM32_USB_Device_Library/Core/Src/usbd_core.c **** USBD_StatusTypeDef USBD_SetClassConfig(USBD_HandleTypeDef *pdev, uint8_t cfgidx)
 453:Middlewares/ST/STM32_USB_Device_Library/Core/Src/usbd_core.c **** {
 451              		.loc 1 453 1
 452              		.cfi_startproc
 453              		@ args = 0, pretend = 0, frame = 16
 454              		@ frame_needed = 1, uses_anonymous_args = 0
 455 0000 80B5     		push	{r7, lr}
 456              	.LCFI31:
 457              		.cfi_def_cfa_offset 8
 458              		.cfi_offset 7, -8
 459              		.cfi_offset 14, -4
 460 0002 84B0     		sub	sp, sp, #16
 461              	.LCFI32:
 462              		.cfi_def_cfa_offset 24
 463 0004 00AF     		add	r7, sp, #0
 464              	.LCFI33:
 465              		.cfi_def_cfa_register 7
 466 0006 7860     		str	r0, [r7, #4]
 467 0008 0B46     		mov	r3, r1
 468 000a FB70     		strb	r3, [r7, #3]
 454:Middlewares/ST/STM32_USB_Device_Library/Core/Src/usbd_core.c ****   USBD_StatusTypeDef ret = USBD_OK;
 469              		.loc 1 454 22
 470 000c 0023     		movs	r3, #0
 471 000e FB73     		strb	r3, [r7, #15]
ARM GAS  C:\Users\EI\AppData\Local\Temp\cc8Es05K.s 			page 17


 455:Middlewares/ST/STM32_USB_Device_Library/Core/Src/usbd_core.c **** 
 456:Middlewares/ST/STM32_USB_Device_Library/Core/Src/usbd_core.c **** #ifdef USE_USBD_COMPOSITE
 457:Middlewares/ST/STM32_USB_Device_Library/Core/Src/usbd_core.c ****   /* Parse the table of classes in use */
 458:Middlewares/ST/STM32_USB_Device_Library/Core/Src/usbd_core.c ****   for (uint32_t i = 0U; i < USBD_MAX_SUPPORTED_CLASS; i++)
 459:Middlewares/ST/STM32_USB_Device_Library/Core/Src/usbd_core.c ****   {
 460:Middlewares/ST/STM32_USB_Device_Library/Core/Src/usbd_core.c ****     /* Check if current class is in use */
 461:Middlewares/ST/STM32_USB_Device_Library/Core/Src/usbd_core.c ****     if ((pdev->tclasslist[i].Active) == 1U)
 462:Middlewares/ST/STM32_USB_Device_Library/Core/Src/usbd_core.c ****     {
 463:Middlewares/ST/STM32_USB_Device_Library/Core/Src/usbd_core.c ****       if (pdev->pClass[i] != NULL)
 464:Middlewares/ST/STM32_USB_Device_Library/Core/Src/usbd_core.c ****       {
 465:Middlewares/ST/STM32_USB_Device_Library/Core/Src/usbd_core.c ****         pdev->classId = i;
 466:Middlewares/ST/STM32_USB_Device_Library/Core/Src/usbd_core.c ****         /* Set configuration  and Start the Class*/
 467:Middlewares/ST/STM32_USB_Device_Library/Core/Src/usbd_core.c ****         if (pdev->pClass[i]->Init(pdev, cfgidx) != 0U)
 468:Middlewares/ST/STM32_USB_Device_Library/Core/Src/usbd_core.c ****         {
 469:Middlewares/ST/STM32_USB_Device_Library/Core/Src/usbd_core.c ****           ret = USBD_FAIL;
 470:Middlewares/ST/STM32_USB_Device_Library/Core/Src/usbd_core.c ****         }
 471:Middlewares/ST/STM32_USB_Device_Library/Core/Src/usbd_core.c ****       }
 472:Middlewares/ST/STM32_USB_Device_Library/Core/Src/usbd_core.c ****     }
 473:Middlewares/ST/STM32_USB_Device_Library/Core/Src/usbd_core.c ****   }
 474:Middlewares/ST/STM32_USB_Device_Library/Core/Src/usbd_core.c **** #else
 475:Middlewares/ST/STM32_USB_Device_Library/Core/Src/usbd_core.c ****   if (pdev->pClass[0] != NULL)
 472              		.loc 1 475 19
 473 0010 7B68     		ldr	r3, [r7, #4]
 474 0012 D3F8B832 		ldr	r3, [r3, #696]
 475              		.loc 1 475 6
 476 0016 002B     		cmp	r3, #0
 477 0018 09D0     		beq	.L21
 476:Middlewares/ST/STM32_USB_Device_Library/Core/Src/usbd_core.c ****   {
 477:Middlewares/ST/STM32_USB_Device_Library/Core/Src/usbd_core.c ****     /* Set configuration and Start the Class */
 478:Middlewares/ST/STM32_USB_Device_Library/Core/Src/usbd_core.c ****     ret = (USBD_StatusTypeDef)pdev->pClass[0]->Init(pdev, cfgidx);
 478              		.loc 1 478 43
 479 001a 7B68     		ldr	r3, [r7, #4]
 480 001c D3F8B832 		ldr	r3, [r3, #696]
 481              		.loc 1 478 46
 482 0020 1B68     		ldr	r3, [r3]
 483              		.loc 1 478 31
 484 0022 FA78     		ldrb	r2, [r7, #3]	@ zero_extendqisi2
 485 0024 1146     		mov	r1, r2
 486 0026 7868     		ldr	r0, [r7, #4]
 487 0028 9847     		blx	r3
 488              	.LVL3:
 489 002a 0346     		mov	r3, r0
 490 002c FB73     		strb	r3, [r7, #15]
 491              	.L21:
 479:Middlewares/ST/STM32_USB_Device_Library/Core/Src/usbd_core.c ****   }
 480:Middlewares/ST/STM32_USB_Device_Library/Core/Src/usbd_core.c **** #endif /* USE_USBD_COMPOSITE */
 481:Middlewares/ST/STM32_USB_Device_Library/Core/Src/usbd_core.c **** 
 482:Middlewares/ST/STM32_USB_Device_Library/Core/Src/usbd_core.c ****   return ret;
 492              		.loc 1 482 10
 493 002e FB7B     		ldrb	r3, [r7, #15]	@ zero_extendqisi2
 483:Middlewares/ST/STM32_USB_Device_Library/Core/Src/usbd_core.c **** }
 494              		.loc 1 483 1
 495 0030 1846     		mov	r0, r3
 496 0032 1037     		adds	r7, r7, #16
 497              	.LCFI34:
 498              		.cfi_def_cfa_offset 8
 499 0034 BD46     		mov	sp, r7
ARM GAS  C:\Users\EI\AppData\Local\Temp\cc8Es05K.s 			page 18


 500              	.LCFI35:
 501              		.cfi_def_cfa_register 13
 502              		@ sp needed
 503 0036 80BD     		pop	{r7, pc}
 504              		.cfi_endproc
 505              	.LFE226:
 507              		.section	.text.USBD_ClrClassConfig,"ax",%progbits
 508              		.align	1
 509              		.global	USBD_ClrClassConfig
 510              		.syntax unified
 511              		.thumb
 512              		.thumb_func
 513              		.fpu fpv4-sp-d16
 515              	USBD_ClrClassConfig:
 516              	.LFB227:
 484:Middlewares/ST/STM32_USB_Device_Library/Core/Src/usbd_core.c **** 
 485:Middlewares/ST/STM32_USB_Device_Library/Core/Src/usbd_core.c **** /**
 486:Middlewares/ST/STM32_USB_Device_Library/Core/Src/usbd_core.c ****   * @brief  USBD_ClrClassConfig
 487:Middlewares/ST/STM32_USB_Device_Library/Core/Src/usbd_core.c ****   *         Clear current configuration
 488:Middlewares/ST/STM32_USB_Device_Library/Core/Src/usbd_core.c ****   * @param  pdev: device instance
 489:Middlewares/ST/STM32_USB_Device_Library/Core/Src/usbd_core.c ****   * @param  cfgidx: configuration index
 490:Middlewares/ST/STM32_USB_Device_Library/Core/Src/usbd_core.c ****   * @retval status: USBD_StatusTypeDef
 491:Middlewares/ST/STM32_USB_Device_Library/Core/Src/usbd_core.c ****   */
 492:Middlewares/ST/STM32_USB_Device_Library/Core/Src/usbd_core.c **** USBD_StatusTypeDef USBD_ClrClassConfig(USBD_HandleTypeDef *pdev, uint8_t cfgidx)
 493:Middlewares/ST/STM32_USB_Device_Library/Core/Src/usbd_core.c **** {
 517              		.loc 1 493 1
 518              		.cfi_startproc
 519              		@ args = 0, pretend = 0, frame = 16
 520              		@ frame_needed = 1, uses_anonymous_args = 0
 521 0000 80B5     		push	{r7, lr}
 522              	.LCFI36:
 523              		.cfi_def_cfa_offset 8
 524              		.cfi_offset 7, -8
 525              		.cfi_offset 14, -4
 526 0002 84B0     		sub	sp, sp, #16
 527              	.LCFI37:
 528              		.cfi_def_cfa_offset 24
 529 0004 00AF     		add	r7, sp, #0
 530              	.LCFI38:
 531              		.cfi_def_cfa_register 7
 532 0006 7860     		str	r0, [r7, #4]
 533 0008 0B46     		mov	r3, r1
 534 000a FB70     		strb	r3, [r7, #3]
 494:Middlewares/ST/STM32_USB_Device_Library/Core/Src/usbd_core.c ****   USBD_StatusTypeDef ret = USBD_OK;
 535              		.loc 1 494 22
 536 000c 0023     		movs	r3, #0
 537 000e FB73     		strb	r3, [r7, #15]
 495:Middlewares/ST/STM32_USB_Device_Library/Core/Src/usbd_core.c **** 
 496:Middlewares/ST/STM32_USB_Device_Library/Core/Src/usbd_core.c **** #ifdef USE_USBD_COMPOSITE
 497:Middlewares/ST/STM32_USB_Device_Library/Core/Src/usbd_core.c ****   /* Parse the table of classes in use */
 498:Middlewares/ST/STM32_USB_Device_Library/Core/Src/usbd_core.c ****   for (uint32_t i = 0U; i < USBD_MAX_SUPPORTED_CLASS; i++)
 499:Middlewares/ST/STM32_USB_Device_Library/Core/Src/usbd_core.c ****   {
 500:Middlewares/ST/STM32_USB_Device_Library/Core/Src/usbd_core.c ****     /* Check if current class is in use */
 501:Middlewares/ST/STM32_USB_Device_Library/Core/Src/usbd_core.c ****     if ((pdev->tclasslist[i].Active) == 1U)
 502:Middlewares/ST/STM32_USB_Device_Library/Core/Src/usbd_core.c ****     {
 503:Middlewares/ST/STM32_USB_Device_Library/Core/Src/usbd_core.c ****       if (pdev->pClass[i] != NULL)
 504:Middlewares/ST/STM32_USB_Device_Library/Core/Src/usbd_core.c ****       {
ARM GAS  C:\Users\EI\AppData\Local\Temp\cc8Es05K.s 			page 19


 505:Middlewares/ST/STM32_USB_Device_Library/Core/Src/usbd_core.c ****         pdev->classId = i;
 506:Middlewares/ST/STM32_USB_Device_Library/Core/Src/usbd_core.c ****         /* Clear configuration  and De-initialize the Class process */
 507:Middlewares/ST/STM32_USB_Device_Library/Core/Src/usbd_core.c ****         if (pdev->pClass[i]->DeInit(pdev, cfgidx) != 0U)
 508:Middlewares/ST/STM32_USB_Device_Library/Core/Src/usbd_core.c ****         {
 509:Middlewares/ST/STM32_USB_Device_Library/Core/Src/usbd_core.c ****           ret = USBD_FAIL;
 510:Middlewares/ST/STM32_USB_Device_Library/Core/Src/usbd_core.c ****         }
 511:Middlewares/ST/STM32_USB_Device_Library/Core/Src/usbd_core.c ****       }
 512:Middlewares/ST/STM32_USB_Device_Library/Core/Src/usbd_core.c ****     }
 513:Middlewares/ST/STM32_USB_Device_Library/Core/Src/usbd_core.c ****   }
 514:Middlewares/ST/STM32_USB_Device_Library/Core/Src/usbd_core.c **** #else
 515:Middlewares/ST/STM32_USB_Device_Library/Core/Src/usbd_core.c ****   /* Clear configuration  and De-initialize the Class process */
 516:Middlewares/ST/STM32_USB_Device_Library/Core/Src/usbd_core.c ****   if (pdev->pClass[0]->DeInit(pdev, cfgidx) != 0U)
 538              		.loc 1 516 19
 539 0010 7B68     		ldr	r3, [r7, #4]
 540 0012 D3F8B832 		ldr	r3, [r3, #696]
 541              		.loc 1 516 22
 542 0016 5B68     		ldr	r3, [r3, #4]
 543              		.loc 1 516 7
 544 0018 FA78     		ldrb	r2, [r7, #3]	@ zero_extendqisi2
 545 001a 1146     		mov	r1, r2
 546 001c 7868     		ldr	r0, [r7, #4]
 547 001e 9847     		blx	r3
 548              	.LVL4:
 549 0020 0346     		mov	r3, r0
 550              		.loc 1 516 6
 551 0022 002B     		cmp	r3, #0
 552 0024 01D0     		beq	.L24
 517:Middlewares/ST/STM32_USB_Device_Library/Core/Src/usbd_core.c ****   {
 518:Middlewares/ST/STM32_USB_Device_Library/Core/Src/usbd_core.c ****     ret = USBD_FAIL;
 553              		.loc 1 518 9
 554 0026 0323     		movs	r3, #3
 555 0028 FB73     		strb	r3, [r7, #15]
 556              	.L24:
 519:Middlewares/ST/STM32_USB_Device_Library/Core/Src/usbd_core.c ****   }
 520:Middlewares/ST/STM32_USB_Device_Library/Core/Src/usbd_core.c **** #endif /* USE_USBD_COMPOSITE */
 521:Middlewares/ST/STM32_USB_Device_Library/Core/Src/usbd_core.c **** 
 522:Middlewares/ST/STM32_USB_Device_Library/Core/Src/usbd_core.c ****   return ret;
 557              		.loc 1 522 10
 558 002a FB7B     		ldrb	r3, [r7, #15]	@ zero_extendqisi2
 523:Middlewares/ST/STM32_USB_Device_Library/Core/Src/usbd_core.c **** }
 559              		.loc 1 523 1
 560 002c 1846     		mov	r0, r3
 561 002e 1037     		adds	r7, r7, #16
 562              	.LCFI39:
 563              		.cfi_def_cfa_offset 8
 564 0030 BD46     		mov	sp, r7
 565              	.LCFI40:
 566              		.cfi_def_cfa_register 13
 567              		@ sp needed
 568 0032 80BD     		pop	{r7, pc}
 569              		.cfi_endproc
 570              	.LFE227:
 572              		.section	.text.USBD_LL_SetupStage,"ax",%progbits
 573              		.align	1
 574              		.global	USBD_LL_SetupStage
 575              		.syntax unified
 576              		.thumb
ARM GAS  C:\Users\EI\AppData\Local\Temp\cc8Es05K.s 			page 20


 577              		.thumb_func
 578              		.fpu fpv4-sp-d16
 580              	USBD_LL_SetupStage:
 581              	.LFB228:
 524:Middlewares/ST/STM32_USB_Device_Library/Core/Src/usbd_core.c **** 
 525:Middlewares/ST/STM32_USB_Device_Library/Core/Src/usbd_core.c **** 
 526:Middlewares/ST/STM32_USB_Device_Library/Core/Src/usbd_core.c **** /**
 527:Middlewares/ST/STM32_USB_Device_Library/Core/Src/usbd_core.c ****   * @brief  USBD_LL_SetupStage
 528:Middlewares/ST/STM32_USB_Device_Library/Core/Src/usbd_core.c ****   *         Handle the setup stage
 529:Middlewares/ST/STM32_USB_Device_Library/Core/Src/usbd_core.c ****   * @param  pdev: device instance
 530:Middlewares/ST/STM32_USB_Device_Library/Core/Src/usbd_core.c ****   * @retval status
 531:Middlewares/ST/STM32_USB_Device_Library/Core/Src/usbd_core.c ****   */
 532:Middlewares/ST/STM32_USB_Device_Library/Core/Src/usbd_core.c **** USBD_StatusTypeDef USBD_LL_SetupStage(USBD_HandleTypeDef *pdev, uint8_t *psetup)
 533:Middlewares/ST/STM32_USB_Device_Library/Core/Src/usbd_core.c **** {
 582              		.loc 1 533 1
 583              		.cfi_startproc
 584              		@ args = 0, pretend = 0, frame = 16
 585              		@ frame_needed = 1, uses_anonymous_args = 0
 586 0000 80B5     		push	{r7, lr}
 587              	.LCFI41:
 588              		.cfi_def_cfa_offset 8
 589              		.cfi_offset 7, -8
 590              		.cfi_offset 14, -4
 591 0002 84B0     		sub	sp, sp, #16
 592              	.LCFI42:
 593              		.cfi_def_cfa_offset 24
 594 0004 00AF     		add	r7, sp, #0
 595              	.LCFI43:
 596              		.cfi_def_cfa_register 7
 597 0006 7860     		str	r0, [r7, #4]
 598 0008 3960     		str	r1, [r7]
 534:Middlewares/ST/STM32_USB_Device_Library/Core/Src/usbd_core.c ****   USBD_StatusTypeDef ret;
 535:Middlewares/ST/STM32_USB_Device_Library/Core/Src/usbd_core.c **** 
 536:Middlewares/ST/STM32_USB_Device_Library/Core/Src/usbd_core.c ****   USBD_ParseSetupRequest(&pdev->request, psetup);
 599              		.loc 1 536 3
 600 000a 7B68     		ldr	r3, [r7, #4]
 601 000c 03F2AA23 		addw	r3, r3, #682
 602 0010 3968     		ldr	r1, [r7]
 603 0012 1846     		mov	r0, r3
 604 0014 FFF7FEFF 		bl	USBD_ParseSetupRequest
 537:Middlewares/ST/STM32_USB_Device_Library/Core/Src/usbd_core.c **** 
 538:Middlewares/ST/STM32_USB_Device_Library/Core/Src/usbd_core.c ****   pdev->ep0_state = USBD_EP0_SETUP;
 605              		.loc 1 538 19
 606 0018 7B68     		ldr	r3, [r7, #4]
 607 001a 0122     		movs	r2, #1
 608 001c C3F89422 		str	r2, [r3, #660]
 539:Middlewares/ST/STM32_USB_Device_Library/Core/Src/usbd_core.c **** 
 540:Middlewares/ST/STM32_USB_Device_Library/Core/Src/usbd_core.c ****   pdev->ep0_data_len = pdev->request.wLength;
 609              		.loc 1 540 37
 610 0020 7B68     		ldr	r3, [r7, #4]
 611 0022 B3F8B032 		ldrh	r3, [r3, #688]
 612 0026 1A46     		mov	r2, r3
 613              		.loc 1 540 22
 614 0028 7B68     		ldr	r3, [r7, #4]
 615 002a C3F89822 		str	r2, [r3, #664]
 541:Middlewares/ST/STM32_USB_Device_Library/Core/Src/usbd_core.c **** 
 542:Middlewares/ST/STM32_USB_Device_Library/Core/Src/usbd_core.c ****   switch (pdev->request.bmRequest & 0x1FU)
ARM GAS  C:\Users\EI\AppData\Local\Temp\cc8Es05K.s 			page 21


 616              		.loc 1 542 24
 617 002e 7B68     		ldr	r3, [r7, #4]
 618 0030 93F8AA32 		ldrb	r3, [r3, #682]	@ zero_extendqisi2
 619              		.loc 1 542 35
 620 0034 03F01F03 		and	r3, r3, #31
 621              		.loc 1 542 3
 622 0038 022B     		cmp	r3, #2
 623 003a 1AD0     		beq	.L27
 624 003c 022B     		cmp	r3, #2
 625 003e 22D8     		bhi	.L28
 626 0040 002B     		cmp	r3, #0
 627 0042 02D0     		beq	.L29
 628 0044 012B     		cmp	r3, #1
 629 0046 0AD0     		beq	.L30
 630 0048 1DE0     		b	.L28
 631              	.L29:
 543:Middlewares/ST/STM32_USB_Device_Library/Core/Src/usbd_core.c ****   {
 544:Middlewares/ST/STM32_USB_Device_Library/Core/Src/usbd_core.c ****     case USB_REQ_RECIPIENT_DEVICE:
 545:Middlewares/ST/STM32_USB_Device_Library/Core/Src/usbd_core.c ****       ret = USBD_StdDevReq(pdev, &pdev->request);
 632              		.loc 1 545 13
 633 004a 7B68     		ldr	r3, [r7, #4]
 634 004c 03F2AA23 		addw	r3, r3, #682
 635 0050 1946     		mov	r1, r3
 636 0052 7868     		ldr	r0, [r7, #4]
 637 0054 FFF7FEFF 		bl	USBD_StdDevReq
 638 0058 0346     		mov	r3, r0
 639 005a FB73     		strb	r3, [r7, #15]
 546:Middlewares/ST/STM32_USB_Device_Library/Core/Src/usbd_core.c ****       break;
 640              		.loc 1 546 7
 641 005c 20E0     		b	.L31
 642              	.L30:
 547:Middlewares/ST/STM32_USB_Device_Library/Core/Src/usbd_core.c **** 
 548:Middlewares/ST/STM32_USB_Device_Library/Core/Src/usbd_core.c ****     case USB_REQ_RECIPIENT_INTERFACE:
 549:Middlewares/ST/STM32_USB_Device_Library/Core/Src/usbd_core.c ****       ret = USBD_StdItfReq(pdev, &pdev->request);
 643              		.loc 1 549 13
 644 005e 7B68     		ldr	r3, [r7, #4]
 645 0060 03F2AA23 		addw	r3, r3, #682
 646 0064 1946     		mov	r1, r3
 647 0066 7868     		ldr	r0, [r7, #4]
 648 0068 FFF7FEFF 		bl	USBD_StdItfReq
 649 006c 0346     		mov	r3, r0
 650 006e FB73     		strb	r3, [r7, #15]
 550:Middlewares/ST/STM32_USB_Device_Library/Core/Src/usbd_core.c ****       break;
 651              		.loc 1 550 7
 652 0070 16E0     		b	.L31
 653              	.L27:
 551:Middlewares/ST/STM32_USB_Device_Library/Core/Src/usbd_core.c **** 
 552:Middlewares/ST/STM32_USB_Device_Library/Core/Src/usbd_core.c ****     case USB_REQ_RECIPIENT_ENDPOINT:
 553:Middlewares/ST/STM32_USB_Device_Library/Core/Src/usbd_core.c ****       ret = USBD_StdEPReq(pdev, &pdev->request);
 654              		.loc 1 553 13
 655 0072 7B68     		ldr	r3, [r7, #4]
 656 0074 03F2AA23 		addw	r3, r3, #682
 657 0078 1946     		mov	r1, r3
 658 007a 7868     		ldr	r0, [r7, #4]
 659 007c FFF7FEFF 		bl	USBD_StdEPReq
 660 0080 0346     		mov	r3, r0
 661 0082 FB73     		strb	r3, [r7, #15]
ARM GAS  C:\Users\EI\AppData\Local\Temp\cc8Es05K.s 			page 22


 554:Middlewares/ST/STM32_USB_Device_Library/Core/Src/usbd_core.c ****       break;
 662              		.loc 1 554 7
 663 0084 0CE0     		b	.L31
 664              	.L28:
 555:Middlewares/ST/STM32_USB_Device_Library/Core/Src/usbd_core.c **** 
 556:Middlewares/ST/STM32_USB_Device_Library/Core/Src/usbd_core.c ****     default:
 557:Middlewares/ST/STM32_USB_Device_Library/Core/Src/usbd_core.c ****       ret = USBD_LL_StallEP(pdev, (pdev->request.bmRequest & 0x80U));
 665              		.loc 1 557 49
 666 0086 7B68     		ldr	r3, [r7, #4]
 667 0088 93F8AA32 		ldrb	r3, [r3, #682]	@ zero_extendqisi2
 668              		.loc 1 557 13
 669 008c 23F07F03 		bic	r3, r3, #127
 670 0090 DBB2     		uxtb	r3, r3
 671 0092 1946     		mov	r1, r3
 672 0094 7868     		ldr	r0, [r7, #4]
 673 0096 FFF7FEFF 		bl	USBD_LL_StallEP
 674 009a 0346     		mov	r3, r0
 675 009c FB73     		strb	r3, [r7, #15]
 558:Middlewares/ST/STM32_USB_Device_Library/Core/Src/usbd_core.c ****       break;
 676              		.loc 1 558 7
 677 009e 00BF     		nop
 678              	.L31:
 559:Middlewares/ST/STM32_USB_Device_Library/Core/Src/usbd_core.c ****   }
 560:Middlewares/ST/STM32_USB_Device_Library/Core/Src/usbd_core.c **** 
 561:Middlewares/ST/STM32_USB_Device_Library/Core/Src/usbd_core.c ****   return ret;
 679              		.loc 1 561 10
 680 00a0 FB7B     		ldrb	r3, [r7, #15]	@ zero_extendqisi2
 562:Middlewares/ST/STM32_USB_Device_Library/Core/Src/usbd_core.c **** }
 681              		.loc 1 562 1
 682 00a2 1846     		mov	r0, r3
 683 00a4 1037     		adds	r7, r7, #16
 684              	.LCFI44:
 685              		.cfi_def_cfa_offset 8
 686 00a6 BD46     		mov	sp, r7
 687              	.LCFI45:
 688              		.cfi_def_cfa_register 13
 689              		@ sp needed
 690 00a8 80BD     		pop	{r7, pc}
 691              		.cfi_endproc
 692              	.LFE228:
 694              		.section	.text.USBD_LL_DataOutStage,"ax",%progbits
 695              		.align	1
 696              		.global	USBD_LL_DataOutStage
 697              		.syntax unified
 698              		.thumb
 699              		.thumb_func
 700              		.fpu fpv4-sp-d16
 702              	USBD_LL_DataOutStage:
 703              	.LFB229:
 563:Middlewares/ST/STM32_USB_Device_Library/Core/Src/usbd_core.c **** 
 564:Middlewares/ST/STM32_USB_Device_Library/Core/Src/usbd_core.c **** /**
 565:Middlewares/ST/STM32_USB_Device_Library/Core/Src/usbd_core.c ****   * @brief  USBD_LL_DataOutStage
 566:Middlewares/ST/STM32_USB_Device_Library/Core/Src/usbd_core.c ****   *         Handle data OUT stage
 567:Middlewares/ST/STM32_USB_Device_Library/Core/Src/usbd_core.c ****   * @param  pdev: device instance
 568:Middlewares/ST/STM32_USB_Device_Library/Core/Src/usbd_core.c ****   * @param  epnum: endpoint index
 569:Middlewares/ST/STM32_USB_Device_Library/Core/Src/usbd_core.c ****   * @param  pdata: data pointer
 570:Middlewares/ST/STM32_USB_Device_Library/Core/Src/usbd_core.c ****   * @retval status
ARM GAS  C:\Users\EI\AppData\Local\Temp\cc8Es05K.s 			page 23


 571:Middlewares/ST/STM32_USB_Device_Library/Core/Src/usbd_core.c ****   */
 572:Middlewares/ST/STM32_USB_Device_Library/Core/Src/usbd_core.c **** USBD_StatusTypeDef USBD_LL_DataOutStage(USBD_HandleTypeDef *pdev,
 573:Middlewares/ST/STM32_USB_Device_Library/Core/Src/usbd_core.c ****                                         uint8_t epnum, uint8_t *pdata)
 574:Middlewares/ST/STM32_USB_Device_Library/Core/Src/usbd_core.c **** {
 704              		.loc 1 574 1
 705              		.cfi_startproc
 706              		@ args = 0, pretend = 0, frame = 24
 707              		@ frame_needed = 1, uses_anonymous_args = 0
 708 0000 80B5     		push	{r7, lr}
 709              	.LCFI46:
 710              		.cfi_def_cfa_offset 8
 711              		.cfi_offset 7, -8
 712              		.cfi_offset 14, -4
 713 0002 86B0     		sub	sp, sp, #24
 714              	.LCFI47:
 715              		.cfi_def_cfa_offset 32
 716 0004 00AF     		add	r7, sp, #0
 717              	.LCFI48:
 718              		.cfi_def_cfa_register 7
 719 0006 F860     		str	r0, [r7, #12]
 720 0008 0B46     		mov	r3, r1
 721 000a 7A60     		str	r2, [r7, #4]
 722 000c FB72     		strb	r3, [r7, #11]
 575:Middlewares/ST/STM32_USB_Device_Library/Core/Src/usbd_core.c ****   USBD_EndpointTypeDef *pep;
 576:Middlewares/ST/STM32_USB_Device_Library/Core/Src/usbd_core.c ****   USBD_StatusTypeDef ret = USBD_OK;
 723              		.loc 1 576 22
 724 000e 0023     		movs	r3, #0
 725 0010 FB75     		strb	r3, [r7, #23]
 577:Middlewares/ST/STM32_USB_Device_Library/Core/Src/usbd_core.c ****   uint8_t idx;
 578:Middlewares/ST/STM32_USB_Device_Library/Core/Src/usbd_core.c **** 
 579:Middlewares/ST/STM32_USB_Device_Library/Core/Src/usbd_core.c ****   if (epnum == 0U)
 726              		.loc 1 579 6
 727 0012 FB7A     		ldrb	r3, [r7, #11]	@ zero_extendqisi2
 728 0014 002B     		cmp	r3, #0
 729 0016 6ED1     		bne	.L34
 580:Middlewares/ST/STM32_USB_Device_Library/Core/Src/usbd_core.c ****   {
 581:Middlewares/ST/STM32_USB_Device_Library/Core/Src/usbd_core.c ****     pep = &pdev->ep_out[0];
 730              		.loc 1 581 9
 731 0018 FB68     		ldr	r3, [r7, #12]
 732 001a 03F5AA73 		add	r3, r3, #340
 733 001e 3B61     		str	r3, [r7, #16]
 582:Middlewares/ST/STM32_USB_Device_Library/Core/Src/usbd_core.c **** 
 583:Middlewares/ST/STM32_USB_Device_Library/Core/Src/usbd_core.c ****     if (pdev->ep0_state == USBD_EP0_DATA_OUT)
 734              		.loc 1 583 13
 735 0020 FB68     		ldr	r3, [r7, #12]
 736 0022 D3F89432 		ldr	r3, [r3, #660]
 737              		.loc 1 583 8
 738 0026 032B     		cmp	r3, #3
 739 0028 40F09880 		bne	.L35
 584:Middlewares/ST/STM32_USB_Device_Library/Core/Src/usbd_core.c ****     {
 585:Middlewares/ST/STM32_USB_Device_Library/Core/Src/usbd_core.c ****       if (pep->rem_length > pep->maxpacket)
 740              		.loc 1 585 14
 741 002c 3B69     		ldr	r3, [r7, #16]
 742 002e 9A68     		ldr	r2, [r3, #8]
 743              		.loc 1 585 32
 744 0030 3B69     		ldr	r3, [r7, #16]
 745 0032 DB68     		ldr	r3, [r3, #12]
ARM GAS  C:\Users\EI\AppData\Local\Temp\cc8Es05K.s 			page 24


 746              		.loc 1 585 10
 747 0034 9A42     		cmp	r2, r3
 748 0036 13D9     		bls	.L36
 586:Middlewares/ST/STM32_USB_Device_Library/Core/Src/usbd_core.c ****       {
 587:Middlewares/ST/STM32_USB_Device_Library/Core/Src/usbd_core.c ****         pep->rem_length -= pep->maxpacket;
 749              		.loc 1 587 25
 750 0038 3B69     		ldr	r3, [r7, #16]
 751 003a 9A68     		ldr	r2, [r3, #8]
 752              		.loc 1 587 31
 753 003c 3B69     		ldr	r3, [r7, #16]
 754 003e DB68     		ldr	r3, [r3, #12]
 755              		.loc 1 587 25
 756 0040 D21A     		subs	r2, r2, r3
 757 0042 3B69     		ldr	r3, [r7, #16]
 758 0044 9A60     		str	r2, [r3, #8]
 588:Middlewares/ST/STM32_USB_Device_Library/Core/Src/usbd_core.c **** 
 589:Middlewares/ST/STM32_USB_Device_Library/Core/Src/usbd_core.c ****         (void)USBD_CtlContinueRx(pdev, pdata, MIN(pep->rem_length, pep->maxpacket));
 759              		.loc 1 589 47
 760 0046 3B69     		ldr	r3, [r7, #16]
 761 0048 DA68     		ldr	r2, [r3, #12]
 762 004a 3B69     		ldr	r3, [r7, #16]
 763 004c 9B68     		ldr	r3, [r3, #8]
 764              		.loc 1 589 15
 765 004e 9342     		cmp	r3, r2
 766 0050 28BF     		it	cs
 767 0052 1346     		movcs	r3, r2
 768 0054 1A46     		mov	r2, r3
 769 0056 7968     		ldr	r1, [r7, #4]
 770 0058 F868     		ldr	r0, [r7, #12]
 771 005a FFF7FEFF 		bl	USBD_CtlContinueRx
 772 005e 7DE0     		b	.L35
 773              	.L36:
 590:Middlewares/ST/STM32_USB_Device_Library/Core/Src/usbd_core.c ****       }
 591:Middlewares/ST/STM32_USB_Device_Library/Core/Src/usbd_core.c ****       else
 592:Middlewares/ST/STM32_USB_Device_Library/Core/Src/usbd_core.c ****       {
 593:Middlewares/ST/STM32_USB_Device_Library/Core/Src/usbd_core.c ****         /* Find the class ID relative to the current request */
 594:Middlewares/ST/STM32_USB_Device_Library/Core/Src/usbd_core.c ****         switch (pdev->request.bmRequest & 0x1FU)
 774              		.loc 1 594 30
 775 0060 FB68     		ldr	r3, [r7, #12]
 776 0062 93F8AA32 		ldrb	r3, [r3, #682]	@ zero_extendqisi2
 777              		.loc 1 594 41
 778 0066 03F01F03 		and	r3, r3, #31
 779              		.loc 1 594 9
 780 006a 022B     		cmp	r3, #2
 781 006c 14D0     		beq	.L37
 782 006e 022B     		cmp	r3, #2
 783 0070 1DD8     		bhi	.L38
 784 0072 002B     		cmp	r3, #0
 785 0074 02D0     		beq	.L39
 786 0076 012B     		cmp	r3, #1
 787 0078 03D0     		beq	.L40
 788 007a 18E0     		b	.L38
 789              	.L39:
 595:Middlewares/ST/STM32_USB_Device_Library/Core/Src/usbd_core.c ****         {
 596:Middlewares/ST/STM32_USB_Device_Library/Core/Src/usbd_core.c ****           case USB_REQ_RECIPIENT_DEVICE:
 597:Middlewares/ST/STM32_USB_Device_Library/Core/Src/usbd_core.c ****             /* Device requests must be managed by the first instantiated class
 598:Middlewares/ST/STM32_USB_Device_Library/Core/Src/usbd_core.c ****                (or duplicated by all classes for simplicity) */
ARM GAS  C:\Users\EI\AppData\Local\Temp\cc8Es05K.s 			page 25


 599:Middlewares/ST/STM32_USB_Device_Library/Core/Src/usbd_core.c ****             idx = 0U;
 790              		.loc 1 599 17
 791 007c 0023     		movs	r3, #0
 792 007e BB75     		strb	r3, [r7, #22]
 600:Middlewares/ST/STM32_USB_Device_Library/Core/Src/usbd_core.c ****             break;
 793              		.loc 1 600 13
 794 0080 18E0     		b	.L41
 795              	.L40:
 601:Middlewares/ST/STM32_USB_Device_Library/Core/Src/usbd_core.c **** 
 602:Middlewares/ST/STM32_USB_Device_Library/Core/Src/usbd_core.c ****           case USB_REQ_RECIPIENT_INTERFACE:
 603:Middlewares/ST/STM32_USB_Device_Library/Core/Src/usbd_core.c ****             idx = USBD_CoreFindIF(pdev, LOBYTE(pdev->request.wIndex));
 796              		.loc 1 603 41
 797 0082 FB68     		ldr	r3, [r7, #12]
 798 0084 B3F8AE32 		ldrh	r3, [r3, #686]
 799              		.loc 1 603 19
 800 0088 DBB2     		uxtb	r3, r3
 801 008a 1946     		mov	r1, r3
 802 008c F868     		ldr	r0, [r7, #12]
 803 008e FFF7FEFF 		bl	USBD_CoreFindIF
 804 0092 0346     		mov	r3, r0
 805 0094 BB75     		strb	r3, [r7, #22]
 604:Middlewares/ST/STM32_USB_Device_Library/Core/Src/usbd_core.c ****             break;
 806              		.loc 1 604 13
 807 0096 0DE0     		b	.L41
 808              	.L37:
 605:Middlewares/ST/STM32_USB_Device_Library/Core/Src/usbd_core.c **** 
 606:Middlewares/ST/STM32_USB_Device_Library/Core/Src/usbd_core.c ****           case USB_REQ_RECIPIENT_ENDPOINT:
 607:Middlewares/ST/STM32_USB_Device_Library/Core/Src/usbd_core.c ****             idx = USBD_CoreFindEP(pdev, LOBYTE(pdev->request.wIndex));
 809              		.loc 1 607 41
 810 0098 FB68     		ldr	r3, [r7, #12]
 811 009a B3F8AE32 		ldrh	r3, [r3, #686]
 812              		.loc 1 607 19
 813 009e DBB2     		uxtb	r3, r3
 814 00a0 1946     		mov	r1, r3
 815 00a2 F868     		ldr	r0, [r7, #12]
 816 00a4 FFF7FEFF 		bl	USBD_CoreFindEP
 817 00a8 0346     		mov	r3, r0
 818 00aa BB75     		strb	r3, [r7, #22]
 608:Middlewares/ST/STM32_USB_Device_Library/Core/Src/usbd_core.c ****             break;
 819              		.loc 1 608 13
 820 00ac 02E0     		b	.L41
 821              	.L38:
 609:Middlewares/ST/STM32_USB_Device_Library/Core/Src/usbd_core.c **** 
 610:Middlewares/ST/STM32_USB_Device_Library/Core/Src/usbd_core.c ****           default:
 611:Middlewares/ST/STM32_USB_Device_Library/Core/Src/usbd_core.c ****             /* Back to the first class in case of doubt */
 612:Middlewares/ST/STM32_USB_Device_Library/Core/Src/usbd_core.c ****             idx = 0U;
 822              		.loc 1 612 17
 823 00ae 0023     		movs	r3, #0
 824 00b0 BB75     		strb	r3, [r7, #22]
 613:Middlewares/ST/STM32_USB_Device_Library/Core/Src/usbd_core.c ****             break;
 825              		.loc 1 613 13
 826 00b2 00BF     		nop
 827              	.L41:
 614:Middlewares/ST/STM32_USB_Device_Library/Core/Src/usbd_core.c ****         }
 615:Middlewares/ST/STM32_USB_Device_Library/Core/Src/usbd_core.c **** 
 616:Middlewares/ST/STM32_USB_Device_Library/Core/Src/usbd_core.c ****         if (idx < USBD_MAX_SUPPORTED_CLASS)
 828              		.loc 1 616 12
ARM GAS  C:\Users\EI\AppData\Local\Temp\cc8Es05K.s 			page 26


 829 00b4 BB7D     		ldrb	r3, [r7, #22]	@ zero_extendqisi2
 830 00b6 002B     		cmp	r3, #0
 831 00b8 19D1     		bne	.L42
 617:Middlewares/ST/STM32_USB_Device_Library/Core/Src/usbd_core.c ****         {
 618:Middlewares/ST/STM32_USB_Device_Library/Core/Src/usbd_core.c ****           /* Setup the class ID and route the request to the relative class function */
 619:Middlewares/ST/STM32_USB_Device_Library/Core/Src/usbd_core.c ****           if (pdev->dev_state == USBD_STATE_CONFIGURED)
 832              		.loc 1 619 19
 833 00ba FB68     		ldr	r3, [r7, #12]
 834 00bc 93F89C32 		ldrb	r3, [r3, #668]
 835 00c0 DBB2     		uxtb	r3, r3
 836              		.loc 1 619 14
 837 00c2 032B     		cmp	r3, #3
 838 00c4 13D1     		bne	.L42
 620:Middlewares/ST/STM32_USB_Device_Library/Core/Src/usbd_core.c ****           {
 621:Middlewares/ST/STM32_USB_Device_Library/Core/Src/usbd_core.c ****             if (pdev->pClass[idx]->EP0_RxReady != NULL)
 839              		.loc 1 621 29
 840 00c6 BA7D     		ldrb	r2, [r7, #22]	@ zero_extendqisi2
 841 00c8 FB68     		ldr	r3, [r7, #12]
 842 00ca AE32     		adds	r2, r2, #174
 843 00cc 53F82230 		ldr	r3, [r3, r2, lsl #2]
 844              		.loc 1 621 34
 845 00d0 1B69     		ldr	r3, [r3, #16]
 846              		.loc 1 621 16
 847 00d2 002B     		cmp	r3, #0
 848 00d4 0BD0     		beq	.L42
 622:Middlewares/ST/STM32_USB_Device_Library/Core/Src/usbd_core.c ****             {
 623:Middlewares/ST/STM32_USB_Device_Library/Core/Src/usbd_core.c ****               pdev->classId = idx;
 849              		.loc 1 623 29
 850 00d6 BA7D     		ldrb	r2, [r7, #22]	@ zero_extendqisi2
 851 00d8 FB68     		ldr	r3, [r7, #12]
 852 00da C3F8D422 		str	r2, [r3, #724]
 624:Middlewares/ST/STM32_USB_Device_Library/Core/Src/usbd_core.c ****               pdev->pClass[idx]->EP0_RxReady(pdev);
 853              		.loc 1 624 27
 854 00de BA7D     		ldrb	r2, [r7, #22]	@ zero_extendqisi2
 855 00e0 FB68     		ldr	r3, [r7, #12]
 856 00e2 AE32     		adds	r2, r2, #174
 857 00e4 53F82230 		ldr	r3, [r3, r2, lsl #2]
 858              		.loc 1 624 32
 859 00e8 1B69     		ldr	r3, [r3, #16]
 860              		.loc 1 624 15
 861 00ea F868     		ldr	r0, [r7, #12]
 862 00ec 9847     		blx	r3
 863              	.LVL5:
 864              	.L42:
 625:Middlewares/ST/STM32_USB_Device_Library/Core/Src/usbd_core.c ****             }
 626:Middlewares/ST/STM32_USB_Device_Library/Core/Src/usbd_core.c ****           }
 627:Middlewares/ST/STM32_USB_Device_Library/Core/Src/usbd_core.c ****         }
 628:Middlewares/ST/STM32_USB_Device_Library/Core/Src/usbd_core.c **** 
 629:Middlewares/ST/STM32_USB_Device_Library/Core/Src/usbd_core.c ****         (void)USBD_CtlSendStatus(pdev);
 865              		.loc 1 629 15
 866 00ee F868     		ldr	r0, [r7, #12]
 867 00f0 FFF7FEFF 		bl	USBD_CtlSendStatus
 868 00f4 32E0     		b	.L35
 869              	.L34:
 630:Middlewares/ST/STM32_USB_Device_Library/Core/Src/usbd_core.c ****       }
 631:Middlewares/ST/STM32_USB_Device_Library/Core/Src/usbd_core.c ****     }
 632:Middlewares/ST/STM32_USB_Device_Library/Core/Src/usbd_core.c ****     else
ARM GAS  C:\Users\EI\AppData\Local\Temp\cc8Es05K.s 			page 27


 633:Middlewares/ST/STM32_USB_Device_Library/Core/Src/usbd_core.c ****     {
 634:Middlewares/ST/STM32_USB_Device_Library/Core/Src/usbd_core.c **** #if 0
 635:Middlewares/ST/STM32_USB_Device_Library/Core/Src/usbd_core.c ****       if (pdev->ep0_state == USBD_EP0_STATUS_OUT)
 636:Middlewares/ST/STM32_USB_Device_Library/Core/Src/usbd_core.c ****       {
 637:Middlewares/ST/STM32_USB_Device_Library/Core/Src/usbd_core.c ****         /*
 638:Middlewares/ST/STM32_USB_Device_Library/Core/Src/usbd_core.c ****           * STATUS PHASE completed, update ep0_state to idle
 639:Middlewares/ST/STM32_USB_Device_Library/Core/Src/usbd_core.c ****           */
 640:Middlewares/ST/STM32_USB_Device_Library/Core/Src/usbd_core.c ****         pdev->ep0_state = USBD_EP0_IDLE;
 641:Middlewares/ST/STM32_USB_Device_Library/Core/Src/usbd_core.c ****         (void)USBD_LL_StallEP(pdev, 0U);
 642:Middlewares/ST/STM32_USB_Device_Library/Core/Src/usbd_core.c ****       }
 643:Middlewares/ST/STM32_USB_Device_Library/Core/Src/usbd_core.c **** #endif
 644:Middlewares/ST/STM32_USB_Device_Library/Core/Src/usbd_core.c ****     }
 645:Middlewares/ST/STM32_USB_Device_Library/Core/Src/usbd_core.c ****   }
 646:Middlewares/ST/STM32_USB_Device_Library/Core/Src/usbd_core.c ****   else
 647:Middlewares/ST/STM32_USB_Device_Library/Core/Src/usbd_core.c ****   {
 648:Middlewares/ST/STM32_USB_Device_Library/Core/Src/usbd_core.c ****     /* Get the class index relative to this interface */
 649:Middlewares/ST/STM32_USB_Device_Library/Core/Src/usbd_core.c ****     idx = USBD_CoreFindEP(pdev, (epnum & 0x7FU));
 870              		.loc 1 649 11
 871 00f6 FB7A     		ldrb	r3, [r7, #11]
 872 00f8 03F07F03 		and	r3, r3, #127
 873 00fc DBB2     		uxtb	r3, r3
 874 00fe 1946     		mov	r1, r3
 875 0100 F868     		ldr	r0, [r7, #12]
 876 0102 FFF7FEFF 		bl	USBD_CoreFindEP
 877 0106 0346     		mov	r3, r0
 878 0108 BB75     		strb	r3, [r7, #22]
 650:Middlewares/ST/STM32_USB_Device_Library/Core/Src/usbd_core.c **** 
 651:Middlewares/ST/STM32_USB_Device_Library/Core/Src/usbd_core.c ****     if (((uint16_t)idx != 0xFFU) && (idx < USBD_MAX_SUPPORTED_CLASS))
 879              		.loc 1 651 8
 880 010a BB7D     		ldrb	r3, [r7, #22]	@ zero_extendqisi2
 881 010c FF2B     		cmp	r3, #255
 882 010e 25D0     		beq	.L35
 883              		.loc 1 651 34 discriminator 1
 884 0110 BB7D     		ldrb	r3, [r7, #22]	@ zero_extendqisi2
 885 0112 002B     		cmp	r3, #0
 886 0114 22D1     		bne	.L35
 652:Middlewares/ST/STM32_USB_Device_Library/Core/Src/usbd_core.c ****     {
 653:Middlewares/ST/STM32_USB_Device_Library/Core/Src/usbd_core.c ****       /* Call the class data out function to manage the request */
 654:Middlewares/ST/STM32_USB_Device_Library/Core/Src/usbd_core.c ****       if (pdev->dev_state == USBD_STATE_CONFIGURED)
 887              		.loc 1 654 15
 888 0116 FB68     		ldr	r3, [r7, #12]
 889 0118 93F89C32 		ldrb	r3, [r3, #668]
 890 011c DBB2     		uxtb	r3, r3
 891              		.loc 1 654 10
 892 011e 032B     		cmp	r3, #3
 893 0120 17D1     		bne	.L43
 655:Middlewares/ST/STM32_USB_Device_Library/Core/Src/usbd_core.c ****       {
 656:Middlewares/ST/STM32_USB_Device_Library/Core/Src/usbd_core.c ****         if (pdev->pClass[idx]->DataOut != NULL)
 894              		.loc 1 656 25
 895 0122 BA7D     		ldrb	r2, [r7, #22]	@ zero_extendqisi2
 896 0124 FB68     		ldr	r3, [r7, #12]
 897 0126 AE32     		adds	r2, r2, #174
 898 0128 53F82230 		ldr	r3, [r3, r2, lsl #2]
 899              		.loc 1 656 30
 900 012c 9B69     		ldr	r3, [r3, #24]
 901              		.loc 1 656 12
 902 012e 002B     		cmp	r3, #0
ARM GAS  C:\Users\EI\AppData\Local\Temp\cc8Es05K.s 			page 28


 903 0130 0FD0     		beq	.L43
 657:Middlewares/ST/STM32_USB_Device_Library/Core/Src/usbd_core.c ****         {
 658:Middlewares/ST/STM32_USB_Device_Library/Core/Src/usbd_core.c ****           pdev->classId = idx;
 904              		.loc 1 658 25
 905 0132 BA7D     		ldrb	r2, [r7, #22]	@ zero_extendqisi2
 906 0134 FB68     		ldr	r3, [r7, #12]
 907 0136 C3F8D422 		str	r2, [r3, #724]
 659:Middlewares/ST/STM32_USB_Device_Library/Core/Src/usbd_core.c ****           ret = (USBD_StatusTypeDef)pdev->pClass[idx]->DataOut(pdev, epnum);
 908              		.loc 1 659 49
 909 013a BA7D     		ldrb	r2, [r7, #22]	@ zero_extendqisi2
 910 013c FB68     		ldr	r3, [r7, #12]
 911 013e AE32     		adds	r2, r2, #174
 912 0140 53F82230 		ldr	r3, [r3, r2, lsl #2]
 913              		.loc 1 659 54
 914 0144 9B69     		ldr	r3, [r3, #24]
 915              		.loc 1 659 37
 916 0146 FA7A     		ldrb	r2, [r7, #11]	@ zero_extendqisi2
 917 0148 1146     		mov	r1, r2
 918 014a F868     		ldr	r0, [r7, #12]
 919 014c 9847     		blx	r3
 920              	.LVL6:
 921 014e 0346     		mov	r3, r0
 922 0150 FB75     		strb	r3, [r7, #23]
 923              	.L43:
 660:Middlewares/ST/STM32_USB_Device_Library/Core/Src/usbd_core.c ****         }
 661:Middlewares/ST/STM32_USB_Device_Library/Core/Src/usbd_core.c ****       }
 662:Middlewares/ST/STM32_USB_Device_Library/Core/Src/usbd_core.c ****       if (ret != USBD_OK)
 924              		.loc 1 662 10
 925 0152 FB7D     		ldrb	r3, [r7, #23]	@ zero_extendqisi2
 926 0154 002B     		cmp	r3, #0
 927 0156 01D0     		beq	.L35
 663:Middlewares/ST/STM32_USB_Device_Library/Core/Src/usbd_core.c ****       {
 664:Middlewares/ST/STM32_USB_Device_Library/Core/Src/usbd_core.c ****         return ret;
 928              		.loc 1 664 16
 929 0158 FB7D     		ldrb	r3, [r7, #23]	@ zero_extendqisi2
 930 015a 00E0     		b	.L44
 931              	.L35:
 665:Middlewares/ST/STM32_USB_Device_Library/Core/Src/usbd_core.c ****       }
 666:Middlewares/ST/STM32_USB_Device_Library/Core/Src/usbd_core.c ****     }
 667:Middlewares/ST/STM32_USB_Device_Library/Core/Src/usbd_core.c ****   }
 668:Middlewares/ST/STM32_USB_Device_Library/Core/Src/usbd_core.c **** 
 669:Middlewares/ST/STM32_USB_Device_Library/Core/Src/usbd_core.c ****   return USBD_OK;
 932              		.loc 1 669 10
 933 015c 0023     		movs	r3, #0
 934              	.L44:
 670:Middlewares/ST/STM32_USB_Device_Library/Core/Src/usbd_core.c **** }
 935              		.loc 1 670 1
 936 015e 1846     		mov	r0, r3
 937 0160 1837     		adds	r7, r7, #24
 938              	.LCFI49:
 939              		.cfi_def_cfa_offset 8
 940 0162 BD46     		mov	sp, r7
 941              	.LCFI50:
 942              		.cfi_def_cfa_register 13
 943              		@ sp needed
 944 0164 80BD     		pop	{r7, pc}
 945              		.cfi_endproc
ARM GAS  C:\Users\EI\AppData\Local\Temp\cc8Es05K.s 			page 29


 946              	.LFE229:
 948              		.section	.text.USBD_LL_DataInStage,"ax",%progbits
 949              		.align	1
 950              		.global	USBD_LL_DataInStage
 951              		.syntax unified
 952              		.thumb
 953              		.thumb_func
 954              		.fpu fpv4-sp-d16
 956              	USBD_LL_DataInStage:
 957              	.LFB230:
 671:Middlewares/ST/STM32_USB_Device_Library/Core/Src/usbd_core.c **** 
 672:Middlewares/ST/STM32_USB_Device_Library/Core/Src/usbd_core.c **** /**
 673:Middlewares/ST/STM32_USB_Device_Library/Core/Src/usbd_core.c ****   * @brief  USBD_LL_DataInStage
 674:Middlewares/ST/STM32_USB_Device_Library/Core/Src/usbd_core.c ****   *         Handle data in stage
 675:Middlewares/ST/STM32_USB_Device_Library/Core/Src/usbd_core.c ****   * @param  pdev: device instance
 676:Middlewares/ST/STM32_USB_Device_Library/Core/Src/usbd_core.c ****   * @param  epnum: endpoint index
 677:Middlewares/ST/STM32_USB_Device_Library/Core/Src/usbd_core.c ****   * @retval status
 678:Middlewares/ST/STM32_USB_Device_Library/Core/Src/usbd_core.c ****   */
 679:Middlewares/ST/STM32_USB_Device_Library/Core/Src/usbd_core.c **** USBD_StatusTypeDef USBD_LL_DataInStage(USBD_HandleTypeDef *pdev,
 680:Middlewares/ST/STM32_USB_Device_Library/Core/Src/usbd_core.c ****                                        uint8_t epnum, uint8_t *pdata)
 681:Middlewares/ST/STM32_USB_Device_Library/Core/Src/usbd_core.c **** {
 958              		.loc 1 681 1
 959              		.cfi_startproc
 960              		@ args = 0, pretend = 0, frame = 24
 961              		@ frame_needed = 1, uses_anonymous_args = 0
 962 0000 80B5     		push	{r7, lr}
 963              	.LCFI51:
 964              		.cfi_def_cfa_offset 8
 965              		.cfi_offset 7, -8
 966              		.cfi_offset 14, -4
 967 0002 86B0     		sub	sp, sp, #24
 968              	.LCFI52:
 969              		.cfi_def_cfa_offset 32
 970 0004 00AF     		add	r7, sp, #0
 971              	.LCFI53:
 972              		.cfi_def_cfa_register 7
 973 0006 F860     		str	r0, [r7, #12]
 974 0008 0B46     		mov	r3, r1
 975 000a 7A60     		str	r2, [r7, #4]
 976 000c FB72     		strb	r3, [r7, #11]
 682:Middlewares/ST/STM32_USB_Device_Library/Core/Src/usbd_core.c ****   USBD_EndpointTypeDef *pep;
 683:Middlewares/ST/STM32_USB_Device_Library/Core/Src/usbd_core.c ****   USBD_StatusTypeDef ret;
 684:Middlewares/ST/STM32_USB_Device_Library/Core/Src/usbd_core.c ****   uint8_t idx;
 685:Middlewares/ST/STM32_USB_Device_Library/Core/Src/usbd_core.c **** 
 686:Middlewares/ST/STM32_USB_Device_Library/Core/Src/usbd_core.c ****   if (epnum == 0U)
 977              		.loc 1 686 6
 978 000e FB7A     		ldrb	r3, [r7, #11]	@ zero_extendqisi2
 979 0010 002B     		cmp	r3, #0
 980 0012 6FD1     		bne	.L46
 687:Middlewares/ST/STM32_USB_Device_Library/Core/Src/usbd_core.c ****   {
 688:Middlewares/ST/STM32_USB_Device_Library/Core/Src/usbd_core.c ****     pep = &pdev->ep_in[0];
 981              		.loc 1 688 9
 982 0014 FB68     		ldr	r3, [r7, #12]
 983 0016 1433     		adds	r3, r3, #20
 984 0018 3B61     		str	r3, [r7, #16]
 689:Middlewares/ST/STM32_USB_Device_Library/Core/Src/usbd_core.c **** 
 690:Middlewares/ST/STM32_USB_Device_Library/Core/Src/usbd_core.c ****     if (pdev->ep0_state == USBD_EP0_DATA_IN)
ARM GAS  C:\Users\EI\AppData\Local\Temp\cc8Es05K.s 			page 30


 985              		.loc 1 690 13
 986 001a FB68     		ldr	r3, [r7, #12]
 987 001c D3F89432 		ldr	r3, [r3, #660]
 988              		.loc 1 690 8
 989 0020 022B     		cmp	r3, #2
 990 0022 5AD1     		bne	.L47
 691:Middlewares/ST/STM32_USB_Device_Library/Core/Src/usbd_core.c ****     {
 692:Middlewares/ST/STM32_USB_Device_Library/Core/Src/usbd_core.c ****       if (pep->rem_length > pep->maxpacket)
 991              		.loc 1 692 14
 992 0024 3B69     		ldr	r3, [r7, #16]
 993 0026 9A68     		ldr	r2, [r3, #8]
 994              		.loc 1 692 32
 995 0028 3B69     		ldr	r3, [r7, #16]
 996 002a DB68     		ldr	r3, [r3, #12]
 997              		.loc 1 692 10
 998 002c 9A42     		cmp	r2, r3
 999 002e 14D9     		bls	.L48
 693:Middlewares/ST/STM32_USB_Device_Library/Core/Src/usbd_core.c ****       {
 694:Middlewares/ST/STM32_USB_Device_Library/Core/Src/usbd_core.c ****         pep->rem_length -= pep->maxpacket;
 1000              		.loc 1 694 25
 1001 0030 3B69     		ldr	r3, [r7, #16]
 1002 0032 9A68     		ldr	r2, [r3, #8]
 1003              		.loc 1 694 31
 1004 0034 3B69     		ldr	r3, [r7, #16]
 1005 0036 DB68     		ldr	r3, [r3, #12]
 1006              		.loc 1 694 25
 1007 0038 D21A     		subs	r2, r2, r3
 1008 003a 3B69     		ldr	r3, [r7, #16]
 1009 003c 9A60     		str	r2, [r3, #8]
 695:Middlewares/ST/STM32_USB_Device_Library/Core/Src/usbd_core.c **** 
 696:Middlewares/ST/STM32_USB_Device_Library/Core/Src/usbd_core.c ****         (void)USBD_CtlContinueSendData(pdev, pdata, pep->rem_length);
 1010              		.loc 1 696 15
 1011 003e 3B69     		ldr	r3, [r7, #16]
 1012 0040 9B68     		ldr	r3, [r3, #8]
 1013 0042 1A46     		mov	r2, r3
 1014 0044 7968     		ldr	r1, [r7, #4]
 1015 0046 F868     		ldr	r0, [r7, #12]
 1016 0048 FFF7FEFF 		bl	USBD_CtlContinueSendData
 697:Middlewares/ST/STM32_USB_Device_Library/Core/Src/usbd_core.c **** 
 698:Middlewares/ST/STM32_USB_Device_Library/Core/Src/usbd_core.c ****         /* Prepare endpoint for premature end of transfer */
 699:Middlewares/ST/STM32_USB_Device_Library/Core/Src/usbd_core.c ****         (void)USBD_LL_PrepareReceive(pdev, 0U, NULL, 0U);
 1017              		.loc 1 699 15
 1018 004c 0023     		movs	r3, #0
 1019 004e 0022     		movs	r2, #0
 1020 0050 0021     		movs	r1, #0
 1021 0052 F868     		ldr	r0, [r7, #12]
 1022 0054 FFF7FEFF 		bl	USBD_LL_PrepareReceive
 1023 0058 3FE0     		b	.L47
 1024              	.L48:
 700:Middlewares/ST/STM32_USB_Device_Library/Core/Src/usbd_core.c ****       }
 701:Middlewares/ST/STM32_USB_Device_Library/Core/Src/usbd_core.c ****       else
 702:Middlewares/ST/STM32_USB_Device_Library/Core/Src/usbd_core.c ****       {
 703:Middlewares/ST/STM32_USB_Device_Library/Core/Src/usbd_core.c ****         /* last packet is MPS multiple, so send ZLP packet */
 704:Middlewares/ST/STM32_USB_Device_Library/Core/Src/usbd_core.c ****         if ((pep->maxpacket == pep->rem_length) &&
 1025              		.loc 1 704 17
 1026 005a 3B69     		ldr	r3, [r7, #16]
 1027 005c DA68     		ldr	r2, [r3, #12]
ARM GAS  C:\Users\EI\AppData\Local\Temp\cc8Es05K.s 			page 31


 1028              		.loc 1 704 35
 1029 005e 3B69     		ldr	r3, [r7, #16]
 1030 0060 9B68     		ldr	r3, [r3, #8]
 1031              		.loc 1 704 12
 1032 0062 9A42     		cmp	r2, r3
 1033 0064 1CD1     		bne	.L50
 705:Middlewares/ST/STM32_USB_Device_Library/Core/Src/usbd_core.c ****             (pep->total_length >= pep->maxpacket) &&
 1034              		.loc 1 705 17 discriminator 1
 1035 0066 3B69     		ldr	r3, [r7, #16]
 1036 0068 5A68     		ldr	r2, [r3, #4]
 1037              		.loc 1 705 38 discriminator 1
 1038 006a 3B69     		ldr	r3, [r7, #16]
 1039 006c DB68     		ldr	r3, [r3, #12]
 704:Middlewares/ST/STM32_USB_Device_Library/Core/Src/usbd_core.c ****             (pep->total_length >= pep->maxpacket) &&
 1040              		.loc 1 704 49 discriminator 1
 1041 006e 9A42     		cmp	r2, r3
 1042 0070 16D3     		bcc	.L50
 706:Middlewares/ST/STM32_USB_Device_Library/Core/Src/usbd_core.c ****             (pep->total_length < pdev->ep0_data_len))
 1043              		.loc 1 706 17
 1044 0072 3B69     		ldr	r3, [r7, #16]
 1045 0074 5A68     		ldr	r2, [r3, #4]
 1046              		.loc 1 706 38
 1047 0076 FB68     		ldr	r3, [r7, #12]
 1048 0078 D3F89832 		ldr	r3, [r3, #664]
 705:Middlewares/ST/STM32_USB_Device_Library/Core/Src/usbd_core.c ****             (pep->total_length >= pep->maxpacket) &&
 1049              		.loc 1 705 51
 1050 007c 9A42     		cmp	r2, r3
 1051 007e 0FD2     		bcs	.L50
 707:Middlewares/ST/STM32_USB_Device_Library/Core/Src/usbd_core.c ****         {
 708:Middlewares/ST/STM32_USB_Device_Library/Core/Src/usbd_core.c ****           (void)USBD_CtlContinueSendData(pdev, NULL, 0U);
 1052              		.loc 1 708 17
 1053 0080 0022     		movs	r2, #0
 1054 0082 0021     		movs	r1, #0
 1055 0084 F868     		ldr	r0, [r7, #12]
 1056 0086 FFF7FEFF 		bl	USBD_CtlContinueSendData
 709:Middlewares/ST/STM32_USB_Device_Library/Core/Src/usbd_core.c ****           pdev->ep0_data_len = 0U;
 1057              		.loc 1 709 30
 1058 008a FB68     		ldr	r3, [r7, #12]
 1059 008c 0022     		movs	r2, #0
 1060 008e C3F89822 		str	r2, [r3, #664]
 710:Middlewares/ST/STM32_USB_Device_Library/Core/Src/usbd_core.c **** 
 711:Middlewares/ST/STM32_USB_Device_Library/Core/Src/usbd_core.c ****           /* Prepare endpoint for premature end of transfer */
 712:Middlewares/ST/STM32_USB_Device_Library/Core/Src/usbd_core.c ****           (void)USBD_LL_PrepareReceive(pdev, 0U, NULL, 0U);
 1061              		.loc 1 712 17
 1062 0092 0023     		movs	r3, #0
 1063 0094 0022     		movs	r2, #0
 1064 0096 0021     		movs	r1, #0
 1065 0098 F868     		ldr	r0, [r7, #12]
 1066 009a FFF7FEFF 		bl	USBD_LL_PrepareReceive
 1067              		.loc 1 712 11
 1068 009e 1CE0     		b	.L47
 1069              	.L50:
 713:Middlewares/ST/STM32_USB_Device_Library/Core/Src/usbd_core.c ****         }
 714:Middlewares/ST/STM32_USB_Device_Library/Core/Src/usbd_core.c ****         else
 715:Middlewares/ST/STM32_USB_Device_Library/Core/Src/usbd_core.c ****         {
 716:Middlewares/ST/STM32_USB_Device_Library/Core/Src/usbd_core.c ****           if (pdev->dev_state == USBD_STATE_CONFIGURED)
 1070              		.loc 1 716 19
ARM GAS  C:\Users\EI\AppData\Local\Temp\cc8Es05K.s 			page 32


 1071 00a0 FB68     		ldr	r3, [r7, #12]
 1072 00a2 93F89C32 		ldrb	r3, [r3, #668]
 1073 00a6 DBB2     		uxtb	r3, r3
 1074              		.loc 1 716 14
 1075 00a8 032B     		cmp	r3, #3
 1076 00aa 0FD1     		bne	.L51
 717:Middlewares/ST/STM32_USB_Device_Library/Core/Src/usbd_core.c ****           {
 718:Middlewares/ST/STM32_USB_Device_Library/Core/Src/usbd_core.c ****             if (pdev->pClass[0]->EP0_TxSent != NULL)
 1077              		.loc 1 718 29
 1078 00ac FB68     		ldr	r3, [r7, #12]
 1079 00ae D3F8B832 		ldr	r3, [r3, #696]
 1080              		.loc 1 718 32
 1081 00b2 DB68     		ldr	r3, [r3, #12]
 1082              		.loc 1 718 16
 1083 00b4 002B     		cmp	r3, #0
 1084 00b6 09D0     		beq	.L51
 719:Middlewares/ST/STM32_USB_Device_Library/Core/Src/usbd_core.c ****             {
 720:Middlewares/ST/STM32_USB_Device_Library/Core/Src/usbd_core.c ****               pdev->classId = 0U;
 1085              		.loc 1 720 29
 1086 00b8 FB68     		ldr	r3, [r7, #12]
 1087 00ba 0022     		movs	r2, #0
 1088 00bc C3F8D422 		str	r2, [r3, #724]
 721:Middlewares/ST/STM32_USB_Device_Library/Core/Src/usbd_core.c ****               pdev->pClass[0]->EP0_TxSent(pdev);
 1089              		.loc 1 721 27
 1090 00c0 FB68     		ldr	r3, [r7, #12]
 1091 00c2 D3F8B832 		ldr	r3, [r3, #696]
 1092              		.loc 1 721 30
 1093 00c6 DB68     		ldr	r3, [r3, #12]
 1094              		.loc 1 721 15
 1095 00c8 F868     		ldr	r0, [r7, #12]
 1096 00ca 9847     		blx	r3
 1097              	.LVL7:
 1098              	.L51:
 722:Middlewares/ST/STM32_USB_Device_Library/Core/Src/usbd_core.c ****             }
 723:Middlewares/ST/STM32_USB_Device_Library/Core/Src/usbd_core.c ****           }
 724:Middlewares/ST/STM32_USB_Device_Library/Core/Src/usbd_core.c ****           (void)USBD_LL_StallEP(pdev, 0x80U);
 1099              		.loc 1 724 17
 1100 00cc 8021     		movs	r1, #128
 1101 00ce F868     		ldr	r0, [r7, #12]
 1102 00d0 FFF7FEFF 		bl	USBD_LL_StallEP
 725:Middlewares/ST/STM32_USB_Device_Library/Core/Src/usbd_core.c ****           (void)USBD_CtlReceiveStatus(pdev);
 1103              		.loc 1 725 17
 1104 00d4 F868     		ldr	r0, [r7, #12]
 1105 00d6 FFF7FEFF 		bl	USBD_CtlReceiveStatus
 1106              	.L47:
 726:Middlewares/ST/STM32_USB_Device_Library/Core/Src/usbd_core.c ****         }
 727:Middlewares/ST/STM32_USB_Device_Library/Core/Src/usbd_core.c ****       }
 728:Middlewares/ST/STM32_USB_Device_Library/Core/Src/usbd_core.c ****     }
 729:Middlewares/ST/STM32_USB_Device_Library/Core/Src/usbd_core.c ****     else
 730:Middlewares/ST/STM32_USB_Device_Library/Core/Src/usbd_core.c ****     {
 731:Middlewares/ST/STM32_USB_Device_Library/Core/Src/usbd_core.c **** #if 0
 732:Middlewares/ST/STM32_USB_Device_Library/Core/Src/usbd_core.c ****       if ((pdev->ep0_state == USBD_EP0_STATUS_IN) ||
 733:Middlewares/ST/STM32_USB_Device_Library/Core/Src/usbd_core.c ****           (pdev->ep0_state == USBD_EP0_IDLE))
 734:Middlewares/ST/STM32_USB_Device_Library/Core/Src/usbd_core.c ****       {
 735:Middlewares/ST/STM32_USB_Device_Library/Core/Src/usbd_core.c ****         (void)USBD_LL_StallEP(pdev, 0x80U);
 736:Middlewares/ST/STM32_USB_Device_Library/Core/Src/usbd_core.c ****       }
 737:Middlewares/ST/STM32_USB_Device_Library/Core/Src/usbd_core.c **** #endif
ARM GAS  C:\Users\EI\AppData\Local\Temp\cc8Es05K.s 			page 33


 738:Middlewares/ST/STM32_USB_Device_Library/Core/Src/usbd_core.c ****     }
 739:Middlewares/ST/STM32_USB_Device_Library/Core/Src/usbd_core.c **** 
 740:Middlewares/ST/STM32_USB_Device_Library/Core/Src/usbd_core.c ****     if (pdev->dev_test_mode != 0U)
 1107              		.loc 1 740 13
 1108 00da FB68     		ldr	r3, [r7, #12]
 1109 00dc 93F8A032 		ldrb	r3, [r3, #672]	@ zero_extendqisi2
 1110              		.loc 1 740 8
 1111 00e0 002B     		cmp	r3, #0
 1112 00e2 3AD0     		beq	.L52
 741:Middlewares/ST/STM32_USB_Device_Library/Core/Src/usbd_core.c ****     {
 742:Middlewares/ST/STM32_USB_Device_Library/Core/Src/usbd_core.c ****       (void)USBD_RunTestMode(pdev);
 1113              		.loc 1 742 13
 1114 00e4 F868     		ldr	r0, [r7, #12]
 1115 00e6 FFF7FEFF 		bl	USBD_RunTestMode
 743:Middlewares/ST/STM32_USB_Device_Library/Core/Src/usbd_core.c ****       pdev->dev_test_mode = 0U;
 1116              		.loc 1 743 27
 1117 00ea FB68     		ldr	r3, [r7, #12]
 1118 00ec 0022     		movs	r2, #0
 1119 00ee 83F8A022 		strb	r2, [r3, #672]
 1120 00f2 32E0     		b	.L52
 1121              	.L46:
 744:Middlewares/ST/STM32_USB_Device_Library/Core/Src/usbd_core.c ****     }
 745:Middlewares/ST/STM32_USB_Device_Library/Core/Src/usbd_core.c ****   }
 746:Middlewares/ST/STM32_USB_Device_Library/Core/Src/usbd_core.c ****   else
 747:Middlewares/ST/STM32_USB_Device_Library/Core/Src/usbd_core.c ****   {
 748:Middlewares/ST/STM32_USB_Device_Library/Core/Src/usbd_core.c ****     /* Get the class index relative to this interface */
 749:Middlewares/ST/STM32_USB_Device_Library/Core/Src/usbd_core.c ****     idx = USBD_CoreFindEP(pdev, ((uint8_t)epnum | 0x80U));
 1122              		.loc 1 749 11
 1123 00f4 FB7A     		ldrb	r3, [r7, #11]
 1124 00f6 63F07F03 		orn	r3, r3, #127
 1125 00fa DBB2     		uxtb	r3, r3
 1126 00fc 1946     		mov	r1, r3
 1127 00fe F868     		ldr	r0, [r7, #12]
 1128 0100 FFF7FEFF 		bl	USBD_CoreFindEP
 1129 0104 0346     		mov	r3, r0
 1130 0106 FB75     		strb	r3, [r7, #23]
 750:Middlewares/ST/STM32_USB_Device_Library/Core/Src/usbd_core.c **** 
 751:Middlewares/ST/STM32_USB_Device_Library/Core/Src/usbd_core.c ****     if (((uint16_t)idx != 0xFFU) && (idx < USBD_MAX_SUPPORTED_CLASS))
 1131              		.loc 1 751 8
 1132 0108 FB7D     		ldrb	r3, [r7, #23]	@ zero_extendqisi2
 1133 010a FF2B     		cmp	r3, #255
 1134 010c 25D0     		beq	.L52
 1135              		.loc 1 751 34 discriminator 1
 1136 010e FB7D     		ldrb	r3, [r7, #23]	@ zero_extendqisi2
 1137 0110 002B     		cmp	r3, #0
 1138 0112 22D1     		bne	.L52
 752:Middlewares/ST/STM32_USB_Device_Library/Core/Src/usbd_core.c ****     {
 753:Middlewares/ST/STM32_USB_Device_Library/Core/Src/usbd_core.c ****       /* Call the class data out function to manage the request */
 754:Middlewares/ST/STM32_USB_Device_Library/Core/Src/usbd_core.c ****       if (pdev->dev_state == USBD_STATE_CONFIGURED)
 1139              		.loc 1 754 15
 1140 0114 FB68     		ldr	r3, [r7, #12]
 1141 0116 93F89C32 		ldrb	r3, [r3, #668]
 1142 011a DBB2     		uxtb	r3, r3
 1143              		.loc 1 754 10
 1144 011c 032B     		cmp	r3, #3
 1145 011e 1CD1     		bne	.L52
 755:Middlewares/ST/STM32_USB_Device_Library/Core/Src/usbd_core.c ****       {
ARM GAS  C:\Users\EI\AppData\Local\Temp\cc8Es05K.s 			page 34


 756:Middlewares/ST/STM32_USB_Device_Library/Core/Src/usbd_core.c ****         if (pdev->pClass[idx]->DataIn != NULL)
 1146              		.loc 1 756 25
 1147 0120 FA7D     		ldrb	r2, [r7, #23]	@ zero_extendqisi2
 1148 0122 FB68     		ldr	r3, [r7, #12]
 1149 0124 AE32     		adds	r2, r2, #174
 1150 0126 53F82230 		ldr	r3, [r3, r2, lsl #2]
 1151              		.loc 1 756 30
 1152 012a 5B69     		ldr	r3, [r3, #20]
 1153              		.loc 1 756 12
 1154 012c 002B     		cmp	r3, #0
 1155 012e 14D0     		beq	.L52
 757:Middlewares/ST/STM32_USB_Device_Library/Core/Src/usbd_core.c ****         {
 758:Middlewares/ST/STM32_USB_Device_Library/Core/Src/usbd_core.c ****           pdev->classId = idx;
 1156              		.loc 1 758 25
 1157 0130 FA7D     		ldrb	r2, [r7, #23]	@ zero_extendqisi2
 1158 0132 FB68     		ldr	r3, [r7, #12]
 1159 0134 C3F8D422 		str	r2, [r3, #724]
 759:Middlewares/ST/STM32_USB_Device_Library/Core/Src/usbd_core.c ****           ret = (USBD_StatusTypeDef)pdev->pClass[idx]->DataIn(pdev, epnum);
 1160              		.loc 1 759 49
 1161 0138 FA7D     		ldrb	r2, [r7, #23]	@ zero_extendqisi2
 1162 013a FB68     		ldr	r3, [r7, #12]
 1163 013c AE32     		adds	r2, r2, #174
 1164 013e 53F82230 		ldr	r3, [r3, r2, lsl #2]
 1165              		.loc 1 759 54
 1166 0142 5B69     		ldr	r3, [r3, #20]
 1167              		.loc 1 759 37
 1168 0144 FA7A     		ldrb	r2, [r7, #11]	@ zero_extendqisi2
 1169 0146 1146     		mov	r1, r2
 1170 0148 F868     		ldr	r0, [r7, #12]
 1171 014a 9847     		blx	r3
 1172              	.LVL8:
 1173 014c 0346     		mov	r3, r0
 1174 014e BB75     		strb	r3, [r7, #22]
 760:Middlewares/ST/STM32_USB_Device_Library/Core/Src/usbd_core.c **** 
 761:Middlewares/ST/STM32_USB_Device_Library/Core/Src/usbd_core.c ****           if (ret != USBD_OK)
 1175              		.loc 1 761 14
 1176 0150 BB7D     		ldrb	r3, [r7, #22]	@ zero_extendqisi2
 1177 0152 002B     		cmp	r3, #0
 1178 0154 01D0     		beq	.L52
 762:Middlewares/ST/STM32_USB_Device_Library/Core/Src/usbd_core.c ****           {
 763:Middlewares/ST/STM32_USB_Device_Library/Core/Src/usbd_core.c ****             return ret;
 1179              		.loc 1 763 20
 1180 0156 BB7D     		ldrb	r3, [r7, #22]	@ zero_extendqisi2
 1181 0158 00E0     		b	.L53
 1182              	.L52:
 764:Middlewares/ST/STM32_USB_Device_Library/Core/Src/usbd_core.c ****           }
 765:Middlewares/ST/STM32_USB_Device_Library/Core/Src/usbd_core.c ****         }
 766:Middlewares/ST/STM32_USB_Device_Library/Core/Src/usbd_core.c ****       }
 767:Middlewares/ST/STM32_USB_Device_Library/Core/Src/usbd_core.c ****     }
 768:Middlewares/ST/STM32_USB_Device_Library/Core/Src/usbd_core.c ****   }
 769:Middlewares/ST/STM32_USB_Device_Library/Core/Src/usbd_core.c **** 
 770:Middlewares/ST/STM32_USB_Device_Library/Core/Src/usbd_core.c ****   return USBD_OK;
 1183              		.loc 1 770 10
 1184 015a 0023     		movs	r3, #0
 1185              	.L53:
 771:Middlewares/ST/STM32_USB_Device_Library/Core/Src/usbd_core.c **** }
 1186              		.loc 1 771 1
ARM GAS  C:\Users\EI\AppData\Local\Temp\cc8Es05K.s 			page 35


 1187 015c 1846     		mov	r0, r3
 1188 015e 1837     		adds	r7, r7, #24
 1189              	.LCFI54:
 1190              		.cfi_def_cfa_offset 8
 1191 0160 BD46     		mov	sp, r7
 1192              	.LCFI55:
 1193              		.cfi_def_cfa_register 13
 1194              		@ sp needed
 1195 0162 80BD     		pop	{r7, pc}
 1196              		.cfi_endproc
 1197              	.LFE230:
 1199              		.section	.text.USBD_LL_Reset,"ax",%progbits
 1200              		.align	1
 1201              		.global	USBD_LL_Reset
 1202              		.syntax unified
 1203              		.thumb
 1204              		.thumb_func
 1205              		.fpu fpv4-sp-d16
 1207              	USBD_LL_Reset:
 1208              	.LFB231:
 772:Middlewares/ST/STM32_USB_Device_Library/Core/Src/usbd_core.c **** 
 773:Middlewares/ST/STM32_USB_Device_Library/Core/Src/usbd_core.c **** /**
 774:Middlewares/ST/STM32_USB_Device_Library/Core/Src/usbd_core.c ****   * @brief  USBD_LL_Reset
 775:Middlewares/ST/STM32_USB_Device_Library/Core/Src/usbd_core.c ****   *         Handle Reset event
 776:Middlewares/ST/STM32_USB_Device_Library/Core/Src/usbd_core.c ****   * @param  pdev: device instance
 777:Middlewares/ST/STM32_USB_Device_Library/Core/Src/usbd_core.c ****   * @retval status
 778:Middlewares/ST/STM32_USB_Device_Library/Core/Src/usbd_core.c ****   */
 779:Middlewares/ST/STM32_USB_Device_Library/Core/Src/usbd_core.c **** 
 780:Middlewares/ST/STM32_USB_Device_Library/Core/Src/usbd_core.c **** USBD_StatusTypeDef USBD_LL_Reset(USBD_HandleTypeDef *pdev)
 781:Middlewares/ST/STM32_USB_Device_Library/Core/Src/usbd_core.c **** {
 1209              		.loc 1 781 1
 1210              		.cfi_startproc
 1211              		@ args = 0, pretend = 0, frame = 16
 1212              		@ frame_needed = 1, uses_anonymous_args = 0
 1213 0000 80B5     		push	{r7, lr}
 1214              	.LCFI56:
 1215              		.cfi_def_cfa_offset 8
 1216              		.cfi_offset 7, -8
 1217              		.cfi_offset 14, -4
 1218 0002 84B0     		sub	sp, sp, #16
 1219              	.LCFI57:
 1220              		.cfi_def_cfa_offset 24
 1221 0004 00AF     		add	r7, sp, #0
 1222              	.LCFI58:
 1223              		.cfi_def_cfa_register 7
 1224 0006 7860     		str	r0, [r7, #4]
 782:Middlewares/ST/STM32_USB_Device_Library/Core/Src/usbd_core.c ****   USBD_StatusTypeDef ret = USBD_OK;
 1225              		.loc 1 782 22
 1226 0008 0023     		movs	r3, #0
 1227 000a FB73     		strb	r3, [r7, #15]
 783:Middlewares/ST/STM32_USB_Device_Library/Core/Src/usbd_core.c **** 
 784:Middlewares/ST/STM32_USB_Device_Library/Core/Src/usbd_core.c ****   /* Upon Reset call user call back */
 785:Middlewares/ST/STM32_USB_Device_Library/Core/Src/usbd_core.c ****   pdev->dev_state = USBD_STATE_DEFAULT;
 1228              		.loc 1 785 19
 1229 000c 7B68     		ldr	r3, [r7, #4]
 1230 000e 0122     		movs	r2, #1
 1231 0010 83F89C22 		strb	r2, [r3, #668]
ARM GAS  C:\Users\EI\AppData\Local\Temp\cc8Es05K.s 			page 36


 786:Middlewares/ST/STM32_USB_Device_Library/Core/Src/usbd_core.c ****   pdev->ep0_state = USBD_EP0_IDLE;
 1232              		.loc 1 786 19
 1233 0014 7B68     		ldr	r3, [r7, #4]
 1234 0016 0022     		movs	r2, #0
 1235 0018 C3F89422 		str	r2, [r3, #660]
 787:Middlewares/ST/STM32_USB_Device_Library/Core/Src/usbd_core.c ****   pdev->dev_config = 0U;
 1236              		.loc 1 787 20
 1237 001c 7B68     		ldr	r3, [r7, #4]
 1238 001e 0022     		movs	r2, #0
 1239 0020 5A60     		str	r2, [r3, #4]
 788:Middlewares/ST/STM32_USB_Device_Library/Core/Src/usbd_core.c ****   pdev->dev_remote_wakeup = 0U;
 1240              		.loc 1 788 27
 1241 0022 7B68     		ldr	r3, [r7, #4]
 1242 0024 0022     		movs	r2, #0
 1243 0026 C3F8A422 		str	r2, [r3, #676]
 789:Middlewares/ST/STM32_USB_Device_Library/Core/Src/usbd_core.c ****   pdev->dev_test_mode = 0U;
 1244              		.loc 1 789 23
 1245 002a 7B68     		ldr	r3, [r7, #4]
 1246 002c 0022     		movs	r2, #0
 1247 002e 83F8A022 		strb	r2, [r3, #672]
 790:Middlewares/ST/STM32_USB_Device_Library/Core/Src/usbd_core.c **** 
 791:Middlewares/ST/STM32_USB_Device_Library/Core/Src/usbd_core.c **** #ifdef USE_USBD_COMPOSITE
 792:Middlewares/ST/STM32_USB_Device_Library/Core/Src/usbd_core.c ****   /* Parse the table of classes in use */
 793:Middlewares/ST/STM32_USB_Device_Library/Core/Src/usbd_core.c ****   for (uint32_t i = 0U; i < USBD_MAX_SUPPORTED_CLASS; i++)
 794:Middlewares/ST/STM32_USB_Device_Library/Core/Src/usbd_core.c ****   {
 795:Middlewares/ST/STM32_USB_Device_Library/Core/Src/usbd_core.c ****     /* Check if current class is in use */
 796:Middlewares/ST/STM32_USB_Device_Library/Core/Src/usbd_core.c ****     if ((pdev->tclasslist[i].Active) == 1U)
 797:Middlewares/ST/STM32_USB_Device_Library/Core/Src/usbd_core.c ****     {
 798:Middlewares/ST/STM32_USB_Device_Library/Core/Src/usbd_core.c ****       if (pdev->pClass[i] != NULL)
 799:Middlewares/ST/STM32_USB_Device_Library/Core/Src/usbd_core.c ****       {
 800:Middlewares/ST/STM32_USB_Device_Library/Core/Src/usbd_core.c ****         pdev->classId = i;
 801:Middlewares/ST/STM32_USB_Device_Library/Core/Src/usbd_core.c ****         /* Clear configuration  and De-initialize the Class process*/
 802:Middlewares/ST/STM32_USB_Device_Library/Core/Src/usbd_core.c **** 
 803:Middlewares/ST/STM32_USB_Device_Library/Core/Src/usbd_core.c ****         if (pdev->pClass[i]->DeInit != NULL)
 804:Middlewares/ST/STM32_USB_Device_Library/Core/Src/usbd_core.c ****         {
 805:Middlewares/ST/STM32_USB_Device_Library/Core/Src/usbd_core.c ****           if (pdev->pClass[i]->DeInit(pdev, (uint8_t)pdev->dev_config) != USBD_OK)
 806:Middlewares/ST/STM32_USB_Device_Library/Core/Src/usbd_core.c ****           {
 807:Middlewares/ST/STM32_USB_Device_Library/Core/Src/usbd_core.c ****             ret = USBD_FAIL;
 808:Middlewares/ST/STM32_USB_Device_Library/Core/Src/usbd_core.c ****           }
 809:Middlewares/ST/STM32_USB_Device_Library/Core/Src/usbd_core.c ****         }
 810:Middlewares/ST/STM32_USB_Device_Library/Core/Src/usbd_core.c ****       }
 811:Middlewares/ST/STM32_USB_Device_Library/Core/Src/usbd_core.c ****     }
 812:Middlewares/ST/STM32_USB_Device_Library/Core/Src/usbd_core.c ****   }
 813:Middlewares/ST/STM32_USB_Device_Library/Core/Src/usbd_core.c **** #else
 814:Middlewares/ST/STM32_USB_Device_Library/Core/Src/usbd_core.c **** 
 815:Middlewares/ST/STM32_USB_Device_Library/Core/Src/usbd_core.c ****   if (pdev->pClass[0] != NULL)
 1248              		.loc 1 815 19
 1249 0032 7B68     		ldr	r3, [r7, #4]
 1250 0034 D3F8B832 		ldr	r3, [r3, #696]
 1251              		.loc 1 815 6
 1252 0038 002B     		cmp	r3, #0
 1253 003a 14D0     		beq	.L55
 816:Middlewares/ST/STM32_USB_Device_Library/Core/Src/usbd_core.c ****   {
 817:Middlewares/ST/STM32_USB_Device_Library/Core/Src/usbd_core.c ****     if (pdev->pClass[0]->DeInit != NULL)
 1254              		.loc 1 817 21
 1255 003c 7B68     		ldr	r3, [r7, #4]
 1256 003e D3F8B832 		ldr	r3, [r3, #696]
ARM GAS  C:\Users\EI\AppData\Local\Temp\cc8Es05K.s 			page 37


 1257              		.loc 1 817 24
 1258 0042 5B68     		ldr	r3, [r3, #4]
 1259              		.loc 1 817 8
 1260 0044 002B     		cmp	r3, #0
 1261 0046 0ED0     		beq	.L55
 818:Middlewares/ST/STM32_USB_Device_Library/Core/Src/usbd_core.c ****     {
 819:Middlewares/ST/STM32_USB_Device_Library/Core/Src/usbd_core.c ****       if (pdev->pClass[0]->DeInit(pdev, (uint8_t)pdev->dev_config) != USBD_OK)
 1262              		.loc 1 819 23
 1263 0048 7B68     		ldr	r3, [r7, #4]
 1264 004a D3F8B832 		ldr	r3, [r3, #696]
 1265              		.loc 1 819 26
 1266 004e 5B68     		ldr	r3, [r3, #4]
 1267              		.loc 1 819 54
 1268 0050 7A68     		ldr	r2, [r7, #4]
 1269 0052 5268     		ldr	r2, [r2, #4]
 1270              		.loc 1 819 11
 1271 0054 D2B2     		uxtb	r2, r2
 1272 0056 1146     		mov	r1, r2
 1273 0058 7868     		ldr	r0, [r7, #4]
 1274 005a 9847     		blx	r3
 1275              	.LVL9:
 1276 005c 0346     		mov	r3, r0
 1277              		.loc 1 819 10
 1278 005e 002B     		cmp	r3, #0
 1279 0060 01D0     		beq	.L55
 820:Middlewares/ST/STM32_USB_Device_Library/Core/Src/usbd_core.c ****       {
 821:Middlewares/ST/STM32_USB_Device_Library/Core/Src/usbd_core.c ****         ret = USBD_FAIL;
 1280              		.loc 1 821 13
 1281 0062 0323     		movs	r3, #3
 1282 0064 FB73     		strb	r3, [r7, #15]
 1283              	.L55:
 822:Middlewares/ST/STM32_USB_Device_Library/Core/Src/usbd_core.c ****       }
 823:Middlewares/ST/STM32_USB_Device_Library/Core/Src/usbd_core.c ****     }
 824:Middlewares/ST/STM32_USB_Device_Library/Core/Src/usbd_core.c ****   }
 825:Middlewares/ST/STM32_USB_Device_Library/Core/Src/usbd_core.c **** #endif /* USE_USBD_COMPOSITE */
 826:Middlewares/ST/STM32_USB_Device_Library/Core/Src/usbd_core.c **** 
 827:Middlewares/ST/STM32_USB_Device_Library/Core/Src/usbd_core.c ****   /* Open EP0 OUT */
 828:Middlewares/ST/STM32_USB_Device_Library/Core/Src/usbd_core.c ****   (void)USBD_LL_OpenEP(pdev, 0x00U, USBD_EP_TYPE_CTRL, USB_MAX_EP0_SIZE);
 1284              		.loc 1 828 9
 1285 0066 4023     		movs	r3, #64
 1286 0068 0022     		movs	r2, #0
 1287 006a 0021     		movs	r1, #0
 1288 006c 7868     		ldr	r0, [r7, #4]
 1289 006e FFF7FEFF 		bl	USBD_LL_OpenEP
 829:Middlewares/ST/STM32_USB_Device_Library/Core/Src/usbd_core.c ****   pdev->ep_out[0x00U & 0xFU].is_used = 1U;
 1290              		.loc 1 829 38
 1291 0072 7B68     		ldr	r3, [r7, #4]
 1292 0074 0122     		movs	r2, #1
 1293 0076 A3F86421 		strh	r2, [r3, #356]	@ movhi
 830:Middlewares/ST/STM32_USB_Device_Library/Core/Src/usbd_core.c **** 
 831:Middlewares/ST/STM32_USB_Device_Library/Core/Src/usbd_core.c ****   pdev->ep_out[0].maxpacket = USB_MAX_EP0_SIZE;
 1294              		.loc 1 831 29
 1295 007a 7B68     		ldr	r3, [r7, #4]
 1296 007c 4022     		movs	r2, #64
 1297 007e C3F86021 		str	r2, [r3, #352]
 832:Middlewares/ST/STM32_USB_Device_Library/Core/Src/usbd_core.c **** 
 833:Middlewares/ST/STM32_USB_Device_Library/Core/Src/usbd_core.c ****   /* Open EP0 IN */
ARM GAS  C:\Users\EI\AppData\Local\Temp\cc8Es05K.s 			page 38


 834:Middlewares/ST/STM32_USB_Device_Library/Core/Src/usbd_core.c ****   (void)USBD_LL_OpenEP(pdev, 0x80U, USBD_EP_TYPE_CTRL, USB_MAX_EP0_SIZE);
 1298              		.loc 1 834 9
 1299 0082 4023     		movs	r3, #64
 1300 0084 0022     		movs	r2, #0
 1301 0086 8021     		movs	r1, #128
 1302 0088 7868     		ldr	r0, [r7, #4]
 1303 008a FFF7FEFF 		bl	USBD_LL_OpenEP
 835:Middlewares/ST/STM32_USB_Device_Library/Core/Src/usbd_core.c ****   pdev->ep_in[0x80U & 0xFU].is_used = 1U;
 1304              		.loc 1 835 37
 1305 008e 7B68     		ldr	r3, [r7, #4]
 1306 0090 0122     		movs	r2, #1
 1307 0092 9A84     		strh	r2, [r3, #36]	@ movhi
 836:Middlewares/ST/STM32_USB_Device_Library/Core/Src/usbd_core.c **** 
 837:Middlewares/ST/STM32_USB_Device_Library/Core/Src/usbd_core.c ****   pdev->ep_in[0].maxpacket = USB_MAX_EP0_SIZE;
 1308              		.loc 1 837 28
 1309 0094 7B68     		ldr	r3, [r7, #4]
 1310 0096 4022     		movs	r2, #64
 1311 0098 1A62     		str	r2, [r3, #32]
 838:Middlewares/ST/STM32_USB_Device_Library/Core/Src/usbd_core.c **** 
 839:Middlewares/ST/STM32_USB_Device_Library/Core/Src/usbd_core.c ****   return ret;
 1312              		.loc 1 839 10
 1313 009a FB7B     		ldrb	r3, [r7, #15]	@ zero_extendqisi2
 840:Middlewares/ST/STM32_USB_Device_Library/Core/Src/usbd_core.c **** }
 1314              		.loc 1 840 1
 1315 009c 1846     		mov	r0, r3
 1316 009e 1037     		adds	r7, r7, #16
 1317              	.LCFI59:
 1318              		.cfi_def_cfa_offset 8
 1319 00a0 BD46     		mov	sp, r7
 1320              	.LCFI60:
 1321              		.cfi_def_cfa_register 13
 1322              		@ sp needed
 1323 00a2 80BD     		pop	{r7, pc}
 1324              		.cfi_endproc
 1325              	.LFE231:
 1327              		.section	.text.USBD_LL_SetSpeed,"ax",%progbits
 1328              		.align	1
 1329              		.global	USBD_LL_SetSpeed
 1330              		.syntax unified
 1331              		.thumb
 1332              		.thumb_func
 1333              		.fpu fpv4-sp-d16
 1335              	USBD_LL_SetSpeed:
 1336              	.LFB232:
 841:Middlewares/ST/STM32_USB_Device_Library/Core/Src/usbd_core.c **** 
 842:Middlewares/ST/STM32_USB_Device_Library/Core/Src/usbd_core.c **** /**
 843:Middlewares/ST/STM32_USB_Device_Library/Core/Src/usbd_core.c ****   * @brief  USBD_LL_SetSpeed
 844:Middlewares/ST/STM32_USB_Device_Library/Core/Src/usbd_core.c ****   *         Handle Reset event
 845:Middlewares/ST/STM32_USB_Device_Library/Core/Src/usbd_core.c ****   * @param  pdev: device instance
 846:Middlewares/ST/STM32_USB_Device_Library/Core/Src/usbd_core.c ****   * @retval status
 847:Middlewares/ST/STM32_USB_Device_Library/Core/Src/usbd_core.c ****   */
 848:Middlewares/ST/STM32_USB_Device_Library/Core/Src/usbd_core.c **** USBD_StatusTypeDef USBD_LL_SetSpeed(USBD_HandleTypeDef *pdev,
 849:Middlewares/ST/STM32_USB_Device_Library/Core/Src/usbd_core.c ****                                     USBD_SpeedTypeDef speed)
 850:Middlewares/ST/STM32_USB_Device_Library/Core/Src/usbd_core.c **** {
 1337              		.loc 1 850 1
 1338              		.cfi_startproc
 1339              		@ args = 0, pretend = 0, frame = 8
ARM GAS  C:\Users\EI\AppData\Local\Temp\cc8Es05K.s 			page 39


 1340              		@ frame_needed = 1, uses_anonymous_args = 0
 1341              		@ link register save eliminated.
 1342 0000 80B4     		push	{r7}
 1343              	.LCFI61:
 1344              		.cfi_def_cfa_offset 4
 1345              		.cfi_offset 7, -4
 1346 0002 83B0     		sub	sp, sp, #12
 1347              	.LCFI62:
 1348              		.cfi_def_cfa_offset 16
 1349 0004 00AF     		add	r7, sp, #0
 1350              	.LCFI63:
 1351              		.cfi_def_cfa_register 7
 1352 0006 7860     		str	r0, [r7, #4]
 1353 0008 0B46     		mov	r3, r1
 1354 000a FB70     		strb	r3, [r7, #3]
 851:Middlewares/ST/STM32_USB_Device_Library/Core/Src/usbd_core.c ****   pdev->dev_speed = speed;
 1355              		.loc 1 851 19
 1356 000c 7B68     		ldr	r3, [r7, #4]
 1357 000e FA78     		ldrb	r2, [r7, #3]
 1358 0010 1A74     		strb	r2, [r3, #16]
 852:Middlewares/ST/STM32_USB_Device_Library/Core/Src/usbd_core.c **** 
 853:Middlewares/ST/STM32_USB_Device_Library/Core/Src/usbd_core.c ****   return USBD_OK;
 1359              		.loc 1 853 10
 1360 0012 0023     		movs	r3, #0
 854:Middlewares/ST/STM32_USB_Device_Library/Core/Src/usbd_core.c **** }
 1361              		.loc 1 854 1
 1362 0014 1846     		mov	r0, r3
 1363 0016 0C37     		adds	r7, r7, #12
 1364              	.LCFI64:
 1365              		.cfi_def_cfa_offset 4
 1366 0018 BD46     		mov	sp, r7
 1367              	.LCFI65:
 1368              		.cfi_def_cfa_register 13
 1369              		@ sp needed
 1370 001a 5DF8047B 		ldr	r7, [sp], #4
 1371              	.LCFI66:
 1372              		.cfi_restore 7
 1373              		.cfi_def_cfa_offset 0
 1374 001e 7047     		bx	lr
 1375              		.cfi_endproc
 1376              	.LFE232:
 1378              		.section	.text.USBD_LL_Suspend,"ax",%progbits
 1379              		.align	1
 1380              		.global	USBD_LL_Suspend
 1381              		.syntax unified
 1382              		.thumb
 1383              		.thumb_func
 1384              		.fpu fpv4-sp-d16
 1386              	USBD_LL_Suspend:
 1387              	.LFB233:
 855:Middlewares/ST/STM32_USB_Device_Library/Core/Src/usbd_core.c **** 
 856:Middlewares/ST/STM32_USB_Device_Library/Core/Src/usbd_core.c **** /**
 857:Middlewares/ST/STM32_USB_Device_Library/Core/Src/usbd_core.c ****   * @brief  USBD_LL_Suspend
 858:Middlewares/ST/STM32_USB_Device_Library/Core/Src/usbd_core.c ****   *         Handle Suspend event
 859:Middlewares/ST/STM32_USB_Device_Library/Core/Src/usbd_core.c ****   * @param  pdev: device instance
 860:Middlewares/ST/STM32_USB_Device_Library/Core/Src/usbd_core.c ****   * @retval status
 861:Middlewares/ST/STM32_USB_Device_Library/Core/Src/usbd_core.c ****   */
ARM GAS  C:\Users\EI\AppData\Local\Temp\cc8Es05K.s 			page 40


 862:Middlewares/ST/STM32_USB_Device_Library/Core/Src/usbd_core.c **** 
 863:Middlewares/ST/STM32_USB_Device_Library/Core/Src/usbd_core.c **** USBD_StatusTypeDef USBD_LL_Suspend(USBD_HandleTypeDef *pdev)
 864:Middlewares/ST/STM32_USB_Device_Library/Core/Src/usbd_core.c **** {
 1388              		.loc 1 864 1
 1389              		.cfi_startproc
 1390              		@ args = 0, pretend = 0, frame = 8
 1391              		@ frame_needed = 1, uses_anonymous_args = 0
 1392              		@ link register save eliminated.
 1393 0000 80B4     		push	{r7}
 1394              	.LCFI67:
 1395              		.cfi_def_cfa_offset 4
 1396              		.cfi_offset 7, -4
 1397 0002 83B0     		sub	sp, sp, #12
 1398              	.LCFI68:
 1399              		.cfi_def_cfa_offset 16
 1400 0004 00AF     		add	r7, sp, #0
 1401              	.LCFI69:
 1402              		.cfi_def_cfa_register 7
 1403 0006 7860     		str	r0, [r7, #4]
 865:Middlewares/ST/STM32_USB_Device_Library/Core/Src/usbd_core.c ****   pdev->dev_old_state = pdev->dev_state;
 1404              		.loc 1 865 29
 1405 0008 7B68     		ldr	r3, [r7, #4]
 1406 000a 93F89C32 		ldrb	r3, [r3, #668]
 1407 000e DAB2     		uxtb	r2, r3
 1408              		.loc 1 865 23
 1409 0010 7B68     		ldr	r3, [r7, #4]
 1410 0012 83F89D22 		strb	r2, [r3, #669]
 866:Middlewares/ST/STM32_USB_Device_Library/Core/Src/usbd_core.c ****   pdev->dev_state = USBD_STATE_SUSPENDED;
 1411              		.loc 1 866 19
 1412 0016 7B68     		ldr	r3, [r7, #4]
 1413 0018 0422     		movs	r2, #4
 1414 001a 83F89C22 		strb	r2, [r3, #668]
 867:Middlewares/ST/STM32_USB_Device_Library/Core/Src/usbd_core.c **** 
 868:Middlewares/ST/STM32_USB_Device_Library/Core/Src/usbd_core.c ****   return USBD_OK;
 1415              		.loc 1 868 10
 1416 001e 0023     		movs	r3, #0
 869:Middlewares/ST/STM32_USB_Device_Library/Core/Src/usbd_core.c **** }
 1417              		.loc 1 869 1
 1418 0020 1846     		mov	r0, r3
 1419 0022 0C37     		adds	r7, r7, #12
 1420              	.LCFI70:
 1421              		.cfi_def_cfa_offset 4
 1422 0024 BD46     		mov	sp, r7
 1423              	.LCFI71:
 1424              		.cfi_def_cfa_register 13
 1425              		@ sp needed
 1426 0026 5DF8047B 		ldr	r7, [sp], #4
 1427              	.LCFI72:
 1428              		.cfi_restore 7
 1429              		.cfi_def_cfa_offset 0
 1430 002a 7047     		bx	lr
 1431              		.cfi_endproc
 1432              	.LFE233:
 1434              		.section	.text.USBD_LL_Resume,"ax",%progbits
 1435              		.align	1
 1436              		.global	USBD_LL_Resume
 1437              		.syntax unified
ARM GAS  C:\Users\EI\AppData\Local\Temp\cc8Es05K.s 			page 41


 1438              		.thumb
 1439              		.thumb_func
 1440              		.fpu fpv4-sp-d16
 1442              	USBD_LL_Resume:
 1443              	.LFB234:
 870:Middlewares/ST/STM32_USB_Device_Library/Core/Src/usbd_core.c **** 
 871:Middlewares/ST/STM32_USB_Device_Library/Core/Src/usbd_core.c **** /**
 872:Middlewares/ST/STM32_USB_Device_Library/Core/Src/usbd_core.c ****   * @brief  USBD_LL_Resume
 873:Middlewares/ST/STM32_USB_Device_Library/Core/Src/usbd_core.c ****   *         Handle Resume event
 874:Middlewares/ST/STM32_USB_Device_Library/Core/Src/usbd_core.c ****   * @param  pdev: device instance
 875:Middlewares/ST/STM32_USB_Device_Library/Core/Src/usbd_core.c ****   * @retval status
 876:Middlewares/ST/STM32_USB_Device_Library/Core/Src/usbd_core.c ****   */
 877:Middlewares/ST/STM32_USB_Device_Library/Core/Src/usbd_core.c **** 
 878:Middlewares/ST/STM32_USB_Device_Library/Core/Src/usbd_core.c **** USBD_StatusTypeDef USBD_LL_Resume(USBD_HandleTypeDef *pdev)
 879:Middlewares/ST/STM32_USB_Device_Library/Core/Src/usbd_core.c **** {
 1444              		.loc 1 879 1
 1445              		.cfi_startproc
 1446              		@ args = 0, pretend = 0, frame = 8
 1447              		@ frame_needed = 1, uses_anonymous_args = 0
 1448              		@ link register save eliminated.
 1449 0000 80B4     		push	{r7}
 1450              	.LCFI73:
 1451              		.cfi_def_cfa_offset 4
 1452              		.cfi_offset 7, -4
 1453 0002 83B0     		sub	sp, sp, #12
 1454              	.LCFI74:
 1455              		.cfi_def_cfa_offset 16
 1456 0004 00AF     		add	r7, sp, #0
 1457              	.LCFI75:
 1458              		.cfi_def_cfa_register 7
 1459 0006 7860     		str	r0, [r7, #4]
 880:Middlewares/ST/STM32_USB_Device_Library/Core/Src/usbd_core.c ****   if (pdev->dev_state == USBD_STATE_SUSPENDED)
 1460              		.loc 1 880 11
 1461 0008 7B68     		ldr	r3, [r7, #4]
 1462 000a 93F89C32 		ldrb	r3, [r3, #668]
 1463 000e DBB2     		uxtb	r3, r3
 1464              		.loc 1 880 6
 1465 0010 042B     		cmp	r3, #4
 1466 0012 06D1     		bne	.L62
 881:Middlewares/ST/STM32_USB_Device_Library/Core/Src/usbd_core.c ****   {
 882:Middlewares/ST/STM32_USB_Device_Library/Core/Src/usbd_core.c ****     pdev->dev_state = pdev->dev_old_state;
 1467              		.loc 1 882 27
 1468 0014 7B68     		ldr	r3, [r7, #4]
 1469 0016 93F89D32 		ldrb	r3, [r3, #669]
 1470 001a DAB2     		uxtb	r2, r3
 1471              		.loc 1 882 21
 1472 001c 7B68     		ldr	r3, [r7, #4]
 1473 001e 83F89C22 		strb	r2, [r3, #668]
 1474              	.L62:
 883:Middlewares/ST/STM32_USB_Device_Library/Core/Src/usbd_core.c ****   }
 884:Middlewares/ST/STM32_USB_Device_Library/Core/Src/usbd_core.c **** 
 885:Middlewares/ST/STM32_USB_Device_Library/Core/Src/usbd_core.c ****   return USBD_OK;
 1475              		.loc 1 885 10
 1476 0022 0023     		movs	r3, #0
 886:Middlewares/ST/STM32_USB_Device_Library/Core/Src/usbd_core.c **** }
 1477              		.loc 1 886 1
 1478 0024 1846     		mov	r0, r3
ARM GAS  C:\Users\EI\AppData\Local\Temp\cc8Es05K.s 			page 42


 1479 0026 0C37     		adds	r7, r7, #12
 1480              	.LCFI76:
 1481              		.cfi_def_cfa_offset 4
 1482 0028 BD46     		mov	sp, r7
 1483              	.LCFI77:
 1484              		.cfi_def_cfa_register 13
 1485              		@ sp needed
 1486 002a 5DF8047B 		ldr	r7, [sp], #4
 1487              	.LCFI78:
 1488              		.cfi_restore 7
 1489              		.cfi_def_cfa_offset 0
 1490 002e 7047     		bx	lr
 1491              		.cfi_endproc
 1492              	.LFE234:
 1494              		.section	.text.USBD_LL_SOF,"ax",%progbits
 1495              		.align	1
 1496              		.global	USBD_LL_SOF
 1497              		.syntax unified
 1498              		.thumb
 1499              		.thumb_func
 1500              		.fpu fpv4-sp-d16
 1502              	USBD_LL_SOF:
 1503              	.LFB235:
 887:Middlewares/ST/STM32_USB_Device_Library/Core/Src/usbd_core.c **** 
 888:Middlewares/ST/STM32_USB_Device_Library/Core/Src/usbd_core.c **** /**
 889:Middlewares/ST/STM32_USB_Device_Library/Core/Src/usbd_core.c ****   * @brief  USBD_LL_SOF
 890:Middlewares/ST/STM32_USB_Device_Library/Core/Src/usbd_core.c ****   *         Handle SOF event
 891:Middlewares/ST/STM32_USB_Device_Library/Core/Src/usbd_core.c ****   * @param  pdev: device instance
 892:Middlewares/ST/STM32_USB_Device_Library/Core/Src/usbd_core.c ****   * @retval status
 893:Middlewares/ST/STM32_USB_Device_Library/Core/Src/usbd_core.c ****   */
 894:Middlewares/ST/STM32_USB_Device_Library/Core/Src/usbd_core.c **** 
 895:Middlewares/ST/STM32_USB_Device_Library/Core/Src/usbd_core.c **** USBD_StatusTypeDef USBD_LL_SOF(USBD_HandleTypeDef *pdev)
 896:Middlewares/ST/STM32_USB_Device_Library/Core/Src/usbd_core.c **** {
 1504              		.loc 1 896 1
 1505              		.cfi_startproc
 1506              		@ args = 0, pretend = 0, frame = 8
 1507              		@ frame_needed = 1, uses_anonymous_args = 0
 1508 0000 80B5     		push	{r7, lr}
 1509              	.LCFI79:
 1510              		.cfi_def_cfa_offset 8
 1511              		.cfi_offset 7, -8
 1512              		.cfi_offset 14, -4
 1513 0002 82B0     		sub	sp, sp, #8
 1514              	.LCFI80:
 1515              		.cfi_def_cfa_offset 16
 1516 0004 00AF     		add	r7, sp, #0
 1517              	.LCFI81:
 1518              		.cfi_def_cfa_register 7
 1519 0006 7860     		str	r0, [r7, #4]
 897:Middlewares/ST/STM32_USB_Device_Library/Core/Src/usbd_core.c ****   /* The SOF event can be distributed for all classes that support it */
 898:Middlewares/ST/STM32_USB_Device_Library/Core/Src/usbd_core.c ****   if (pdev->dev_state == USBD_STATE_CONFIGURED)
 1520              		.loc 1 898 11
 1521 0008 7B68     		ldr	r3, [r7, #4]
 1522 000a 93F89C32 		ldrb	r3, [r3, #668]
 1523 000e DBB2     		uxtb	r3, r3
 1524              		.loc 1 898 6
 1525 0010 032B     		cmp	r3, #3
ARM GAS  C:\Users\EI\AppData\Local\Temp\cc8Es05K.s 			page 43


 1526 0012 10D1     		bne	.L65
 899:Middlewares/ST/STM32_USB_Device_Library/Core/Src/usbd_core.c ****   {
 900:Middlewares/ST/STM32_USB_Device_Library/Core/Src/usbd_core.c **** #ifdef USE_USBD_COMPOSITE
 901:Middlewares/ST/STM32_USB_Device_Library/Core/Src/usbd_core.c ****     /* Parse the table of classes in use */
 902:Middlewares/ST/STM32_USB_Device_Library/Core/Src/usbd_core.c ****     for (uint32_t i = 0; i < USBD_MAX_SUPPORTED_CLASS; i++)
 903:Middlewares/ST/STM32_USB_Device_Library/Core/Src/usbd_core.c ****     {
 904:Middlewares/ST/STM32_USB_Device_Library/Core/Src/usbd_core.c ****       /* Check if current class is in use */
 905:Middlewares/ST/STM32_USB_Device_Library/Core/Src/usbd_core.c ****       if ((pdev->tclasslist[i].Active) == 1U)
 906:Middlewares/ST/STM32_USB_Device_Library/Core/Src/usbd_core.c ****       {
 907:Middlewares/ST/STM32_USB_Device_Library/Core/Src/usbd_core.c ****         if (pdev->pClass[i] != NULL)
 908:Middlewares/ST/STM32_USB_Device_Library/Core/Src/usbd_core.c ****         {
 909:Middlewares/ST/STM32_USB_Device_Library/Core/Src/usbd_core.c ****           if (pdev->pClass[i]->SOF != NULL)
 910:Middlewares/ST/STM32_USB_Device_Library/Core/Src/usbd_core.c ****           {
 911:Middlewares/ST/STM32_USB_Device_Library/Core/Src/usbd_core.c ****             pdev->classId = i;
 912:Middlewares/ST/STM32_USB_Device_Library/Core/Src/usbd_core.c ****             (void)pdev->pClass[i]->SOF(pdev);
 913:Middlewares/ST/STM32_USB_Device_Library/Core/Src/usbd_core.c ****           }
 914:Middlewares/ST/STM32_USB_Device_Library/Core/Src/usbd_core.c ****         }
 915:Middlewares/ST/STM32_USB_Device_Library/Core/Src/usbd_core.c ****       }
 916:Middlewares/ST/STM32_USB_Device_Library/Core/Src/usbd_core.c ****     }
 917:Middlewares/ST/STM32_USB_Device_Library/Core/Src/usbd_core.c **** #else
 918:Middlewares/ST/STM32_USB_Device_Library/Core/Src/usbd_core.c ****     if (pdev->pClass[0] != NULL)
 1527              		.loc 1 918 21
 1528 0014 7B68     		ldr	r3, [r7, #4]
 1529 0016 D3F8B832 		ldr	r3, [r3, #696]
 1530              		.loc 1 918 8
 1531 001a 002B     		cmp	r3, #0
 1532 001c 0BD0     		beq	.L65
 919:Middlewares/ST/STM32_USB_Device_Library/Core/Src/usbd_core.c ****     {
 920:Middlewares/ST/STM32_USB_Device_Library/Core/Src/usbd_core.c ****       if (pdev->pClass[0]->SOF != NULL)
 1533              		.loc 1 920 23
 1534 001e 7B68     		ldr	r3, [r7, #4]
 1535 0020 D3F8B832 		ldr	r3, [r3, #696]
 1536              		.loc 1 920 26
 1537 0024 DB69     		ldr	r3, [r3, #28]
 1538              		.loc 1 920 10
 1539 0026 002B     		cmp	r3, #0
 1540 0028 05D0     		beq	.L65
 921:Middlewares/ST/STM32_USB_Device_Library/Core/Src/usbd_core.c ****       {
 922:Middlewares/ST/STM32_USB_Device_Library/Core/Src/usbd_core.c ****         (void)pdev->pClass[0]->SOF(pdev);
 1541              		.loc 1 922 27
 1542 002a 7B68     		ldr	r3, [r7, #4]
 1543 002c D3F8B832 		ldr	r3, [r3, #696]
 1544              		.loc 1 922 30
 1545 0030 DB69     		ldr	r3, [r3, #28]
 1546              		.loc 1 922 15
 1547 0032 7868     		ldr	r0, [r7, #4]
 1548 0034 9847     		blx	r3
 1549              	.LVL10:
 1550              	.L65:
 923:Middlewares/ST/STM32_USB_Device_Library/Core/Src/usbd_core.c ****       }
 924:Middlewares/ST/STM32_USB_Device_Library/Core/Src/usbd_core.c ****     }
 925:Middlewares/ST/STM32_USB_Device_Library/Core/Src/usbd_core.c **** #endif /* USE_USBD_COMPOSITE */
 926:Middlewares/ST/STM32_USB_Device_Library/Core/Src/usbd_core.c ****   }
 927:Middlewares/ST/STM32_USB_Device_Library/Core/Src/usbd_core.c **** 
 928:Middlewares/ST/STM32_USB_Device_Library/Core/Src/usbd_core.c ****   return USBD_OK;
 1551              		.loc 1 928 10
 1552 0036 0023     		movs	r3, #0
ARM GAS  C:\Users\EI\AppData\Local\Temp\cc8Es05K.s 			page 44


 929:Middlewares/ST/STM32_USB_Device_Library/Core/Src/usbd_core.c **** }
 1553              		.loc 1 929 1
 1554 0038 1846     		mov	r0, r3
 1555 003a 0837     		adds	r7, r7, #8
 1556              	.LCFI82:
 1557              		.cfi_def_cfa_offset 8
 1558 003c BD46     		mov	sp, r7
 1559              	.LCFI83:
 1560              		.cfi_def_cfa_register 13
 1561              		@ sp needed
 1562 003e 80BD     		pop	{r7, pc}
 1563              		.cfi_endproc
 1564              	.LFE235:
 1566              		.section	.text.USBD_LL_IsoINIncomplete,"ax",%progbits
 1567              		.align	1
 1568              		.global	USBD_LL_IsoINIncomplete
 1569              		.syntax unified
 1570              		.thumb
 1571              		.thumb_func
 1572              		.fpu fpv4-sp-d16
 1574              	USBD_LL_IsoINIncomplete:
 1575              	.LFB236:
 930:Middlewares/ST/STM32_USB_Device_Library/Core/Src/usbd_core.c **** 
 931:Middlewares/ST/STM32_USB_Device_Library/Core/Src/usbd_core.c **** /**
 932:Middlewares/ST/STM32_USB_Device_Library/Core/Src/usbd_core.c ****   * @brief  USBD_LL_IsoINIncomplete
 933:Middlewares/ST/STM32_USB_Device_Library/Core/Src/usbd_core.c ****   *         Handle iso in incomplete event
 934:Middlewares/ST/STM32_USB_Device_Library/Core/Src/usbd_core.c ****   * @param  pdev: device instance
 935:Middlewares/ST/STM32_USB_Device_Library/Core/Src/usbd_core.c ****   * @retval status
 936:Middlewares/ST/STM32_USB_Device_Library/Core/Src/usbd_core.c ****   */
 937:Middlewares/ST/STM32_USB_Device_Library/Core/Src/usbd_core.c **** USBD_StatusTypeDef USBD_LL_IsoINIncomplete(USBD_HandleTypeDef *pdev,
 938:Middlewares/ST/STM32_USB_Device_Library/Core/Src/usbd_core.c ****                                            uint8_t epnum)
 939:Middlewares/ST/STM32_USB_Device_Library/Core/Src/usbd_core.c **** {
 1576              		.loc 1 939 1
 1577              		.cfi_startproc
 1578              		@ args = 0, pretend = 0, frame = 8
 1579              		@ frame_needed = 1, uses_anonymous_args = 0
 1580 0000 80B5     		push	{r7, lr}
 1581              	.LCFI84:
 1582              		.cfi_def_cfa_offset 8
 1583              		.cfi_offset 7, -8
 1584              		.cfi_offset 14, -4
 1585 0002 82B0     		sub	sp, sp, #8
 1586              	.LCFI85:
 1587              		.cfi_def_cfa_offset 16
 1588 0004 00AF     		add	r7, sp, #0
 1589              	.LCFI86:
 1590              		.cfi_def_cfa_register 7
 1591 0006 7860     		str	r0, [r7, #4]
 1592 0008 0B46     		mov	r3, r1
 1593 000a FB70     		strb	r3, [r7, #3]
 940:Middlewares/ST/STM32_USB_Device_Library/Core/Src/usbd_core.c ****   if (pdev->pClass[pdev->classId] == NULL)
 1594              		.loc 1 940 24
 1595 000c 7B68     		ldr	r3, [r7, #4]
 1596 000e D3F8D422 		ldr	r2, [r3, #724]
 1597              		.loc 1 940 19
 1598 0012 7B68     		ldr	r3, [r7, #4]
 1599 0014 AE32     		adds	r2, r2, #174
ARM GAS  C:\Users\EI\AppData\Local\Temp\cc8Es05K.s 			page 45


 1600 0016 53F82230 		ldr	r3, [r3, r2, lsl #2]
 1601              		.loc 1 940 6
 1602 001a 002B     		cmp	r3, #0
 1603 001c 01D1     		bne	.L68
 941:Middlewares/ST/STM32_USB_Device_Library/Core/Src/usbd_core.c ****   {
 942:Middlewares/ST/STM32_USB_Device_Library/Core/Src/usbd_core.c ****     return USBD_FAIL;
 1604              		.loc 1 942 12
 1605 001e 0323     		movs	r3, #3
 1606 0020 1CE0     		b	.L69
 1607              	.L68:
 943:Middlewares/ST/STM32_USB_Device_Library/Core/Src/usbd_core.c ****   }
 944:Middlewares/ST/STM32_USB_Device_Library/Core/Src/usbd_core.c **** 
 945:Middlewares/ST/STM32_USB_Device_Library/Core/Src/usbd_core.c ****   if (pdev->dev_state == USBD_STATE_CONFIGURED)
 1608              		.loc 1 945 11
 1609 0022 7B68     		ldr	r3, [r7, #4]
 1610 0024 93F89C32 		ldrb	r3, [r3, #668]
 1611 0028 DBB2     		uxtb	r3, r3
 1612              		.loc 1 945 6
 1613 002a 032B     		cmp	r3, #3
 1614 002c 15D1     		bne	.L70
 946:Middlewares/ST/STM32_USB_Device_Library/Core/Src/usbd_core.c ****   {
 947:Middlewares/ST/STM32_USB_Device_Library/Core/Src/usbd_core.c ****     if (pdev->pClass[pdev->classId]->IsoINIncomplete != NULL)
 1615              		.loc 1 947 26
 1616 002e 7B68     		ldr	r3, [r7, #4]
 1617 0030 D3F8D422 		ldr	r2, [r3, #724]
 1618              		.loc 1 947 21
 1619 0034 7B68     		ldr	r3, [r7, #4]
 1620 0036 AE32     		adds	r2, r2, #174
 1621 0038 53F82230 		ldr	r3, [r3, r2, lsl #2]
 1622              		.loc 1 947 36
 1623 003c 1B6A     		ldr	r3, [r3, #32]
 1624              		.loc 1 947 8
 1625 003e 002B     		cmp	r3, #0
 1626 0040 0BD0     		beq	.L70
 948:Middlewares/ST/STM32_USB_Device_Library/Core/Src/usbd_core.c ****     {
 949:Middlewares/ST/STM32_USB_Device_Library/Core/Src/usbd_core.c ****       (void)pdev->pClass[pdev->classId]->IsoINIncomplete(pdev, epnum);
 1627              		.loc 1 949 30
 1628 0042 7B68     		ldr	r3, [r7, #4]
 1629 0044 D3F8D422 		ldr	r2, [r3, #724]
 1630              		.loc 1 949 25
 1631 0048 7B68     		ldr	r3, [r7, #4]
 1632 004a AE32     		adds	r2, r2, #174
 1633 004c 53F82230 		ldr	r3, [r3, r2, lsl #2]
 1634              		.loc 1 949 40
 1635 0050 1B6A     		ldr	r3, [r3, #32]
 1636              		.loc 1 949 13
 1637 0052 FA78     		ldrb	r2, [r7, #3]	@ zero_extendqisi2
 1638 0054 1146     		mov	r1, r2
 1639 0056 7868     		ldr	r0, [r7, #4]
 1640 0058 9847     		blx	r3
 1641              	.LVL11:
 1642              	.L70:
 950:Middlewares/ST/STM32_USB_Device_Library/Core/Src/usbd_core.c ****     }
 951:Middlewares/ST/STM32_USB_Device_Library/Core/Src/usbd_core.c ****   }
 952:Middlewares/ST/STM32_USB_Device_Library/Core/Src/usbd_core.c **** 
 953:Middlewares/ST/STM32_USB_Device_Library/Core/Src/usbd_core.c ****   return USBD_OK;
 1643              		.loc 1 953 10
ARM GAS  C:\Users\EI\AppData\Local\Temp\cc8Es05K.s 			page 46


 1644 005a 0023     		movs	r3, #0
 1645              	.L69:
 954:Middlewares/ST/STM32_USB_Device_Library/Core/Src/usbd_core.c **** }
 1646              		.loc 1 954 1
 1647 005c 1846     		mov	r0, r3
 1648 005e 0837     		adds	r7, r7, #8
 1649              	.LCFI87:
 1650              		.cfi_def_cfa_offset 8
 1651 0060 BD46     		mov	sp, r7
 1652              	.LCFI88:
 1653              		.cfi_def_cfa_register 13
 1654              		@ sp needed
 1655 0062 80BD     		pop	{r7, pc}
 1656              		.cfi_endproc
 1657              	.LFE236:
 1659              		.section	.text.USBD_LL_IsoOUTIncomplete,"ax",%progbits
 1660              		.align	1
 1661              		.global	USBD_LL_IsoOUTIncomplete
 1662              		.syntax unified
 1663              		.thumb
 1664              		.thumb_func
 1665              		.fpu fpv4-sp-d16
 1667              	USBD_LL_IsoOUTIncomplete:
 1668              	.LFB237:
 955:Middlewares/ST/STM32_USB_Device_Library/Core/Src/usbd_core.c **** 
 956:Middlewares/ST/STM32_USB_Device_Library/Core/Src/usbd_core.c **** /**
 957:Middlewares/ST/STM32_USB_Device_Library/Core/Src/usbd_core.c ****   * @brief  USBD_LL_IsoOUTIncomplete
 958:Middlewares/ST/STM32_USB_Device_Library/Core/Src/usbd_core.c ****   *         Handle iso out incomplete event
 959:Middlewares/ST/STM32_USB_Device_Library/Core/Src/usbd_core.c ****   * @param  pdev: device instance
 960:Middlewares/ST/STM32_USB_Device_Library/Core/Src/usbd_core.c ****   * @retval status
 961:Middlewares/ST/STM32_USB_Device_Library/Core/Src/usbd_core.c ****   */
 962:Middlewares/ST/STM32_USB_Device_Library/Core/Src/usbd_core.c **** USBD_StatusTypeDef USBD_LL_IsoOUTIncomplete(USBD_HandleTypeDef *pdev,
 963:Middlewares/ST/STM32_USB_Device_Library/Core/Src/usbd_core.c ****                                             uint8_t epnum)
 964:Middlewares/ST/STM32_USB_Device_Library/Core/Src/usbd_core.c **** {
 1669              		.loc 1 964 1
 1670              		.cfi_startproc
 1671              		@ args = 0, pretend = 0, frame = 8
 1672              		@ frame_needed = 1, uses_anonymous_args = 0
 1673 0000 80B5     		push	{r7, lr}
 1674              	.LCFI89:
 1675              		.cfi_def_cfa_offset 8
 1676              		.cfi_offset 7, -8
 1677              		.cfi_offset 14, -4
 1678 0002 82B0     		sub	sp, sp, #8
 1679              	.LCFI90:
 1680              		.cfi_def_cfa_offset 16
 1681 0004 00AF     		add	r7, sp, #0
 1682              	.LCFI91:
 1683              		.cfi_def_cfa_register 7
 1684 0006 7860     		str	r0, [r7, #4]
 1685 0008 0B46     		mov	r3, r1
 1686 000a FB70     		strb	r3, [r7, #3]
 965:Middlewares/ST/STM32_USB_Device_Library/Core/Src/usbd_core.c ****   if (pdev->pClass[pdev->classId] == NULL)
 1687              		.loc 1 965 24
 1688 000c 7B68     		ldr	r3, [r7, #4]
 1689 000e D3F8D422 		ldr	r2, [r3, #724]
 1690              		.loc 1 965 19
ARM GAS  C:\Users\EI\AppData\Local\Temp\cc8Es05K.s 			page 47


 1691 0012 7B68     		ldr	r3, [r7, #4]
 1692 0014 AE32     		adds	r2, r2, #174
 1693 0016 53F82230 		ldr	r3, [r3, r2, lsl #2]
 1694              		.loc 1 965 6
 1695 001a 002B     		cmp	r3, #0
 1696 001c 01D1     		bne	.L72
 966:Middlewares/ST/STM32_USB_Device_Library/Core/Src/usbd_core.c ****   {
 967:Middlewares/ST/STM32_USB_Device_Library/Core/Src/usbd_core.c ****     return USBD_FAIL;
 1697              		.loc 1 967 12
 1698 001e 0323     		movs	r3, #3
 1699 0020 1CE0     		b	.L73
 1700              	.L72:
 968:Middlewares/ST/STM32_USB_Device_Library/Core/Src/usbd_core.c ****   }
 969:Middlewares/ST/STM32_USB_Device_Library/Core/Src/usbd_core.c **** 
 970:Middlewares/ST/STM32_USB_Device_Library/Core/Src/usbd_core.c ****   if (pdev->dev_state == USBD_STATE_CONFIGURED)
 1701              		.loc 1 970 11
 1702 0022 7B68     		ldr	r3, [r7, #4]
 1703 0024 93F89C32 		ldrb	r3, [r3, #668]
 1704 0028 DBB2     		uxtb	r3, r3
 1705              		.loc 1 970 6
 1706 002a 032B     		cmp	r3, #3
 1707 002c 15D1     		bne	.L74
 971:Middlewares/ST/STM32_USB_Device_Library/Core/Src/usbd_core.c ****   {
 972:Middlewares/ST/STM32_USB_Device_Library/Core/Src/usbd_core.c ****     if (pdev->pClass[pdev->classId]->IsoOUTIncomplete != NULL)
 1708              		.loc 1 972 26
 1709 002e 7B68     		ldr	r3, [r7, #4]
 1710 0030 D3F8D422 		ldr	r2, [r3, #724]
 1711              		.loc 1 972 21
 1712 0034 7B68     		ldr	r3, [r7, #4]
 1713 0036 AE32     		adds	r2, r2, #174
 1714 0038 53F82230 		ldr	r3, [r3, r2, lsl #2]
 1715              		.loc 1 972 36
 1716 003c 5B6A     		ldr	r3, [r3, #36]
 1717              		.loc 1 972 8
 1718 003e 002B     		cmp	r3, #0
 1719 0040 0BD0     		beq	.L74
 973:Middlewares/ST/STM32_USB_Device_Library/Core/Src/usbd_core.c ****     {
 974:Middlewares/ST/STM32_USB_Device_Library/Core/Src/usbd_core.c ****       (void)pdev->pClass[pdev->classId]->IsoOUTIncomplete(pdev, epnum);
 1720              		.loc 1 974 30
 1721 0042 7B68     		ldr	r3, [r7, #4]
 1722 0044 D3F8D422 		ldr	r2, [r3, #724]
 1723              		.loc 1 974 25
 1724 0048 7B68     		ldr	r3, [r7, #4]
 1725 004a AE32     		adds	r2, r2, #174
 1726 004c 53F82230 		ldr	r3, [r3, r2, lsl #2]
 1727              		.loc 1 974 40
 1728 0050 5B6A     		ldr	r3, [r3, #36]
 1729              		.loc 1 974 13
 1730 0052 FA78     		ldrb	r2, [r7, #3]	@ zero_extendqisi2
 1731 0054 1146     		mov	r1, r2
 1732 0056 7868     		ldr	r0, [r7, #4]
 1733 0058 9847     		blx	r3
 1734              	.LVL12:
 1735              	.L74:
 975:Middlewares/ST/STM32_USB_Device_Library/Core/Src/usbd_core.c ****     }
 976:Middlewares/ST/STM32_USB_Device_Library/Core/Src/usbd_core.c ****   }
 977:Middlewares/ST/STM32_USB_Device_Library/Core/Src/usbd_core.c **** 
ARM GAS  C:\Users\EI\AppData\Local\Temp\cc8Es05K.s 			page 48


 978:Middlewares/ST/STM32_USB_Device_Library/Core/Src/usbd_core.c ****   return USBD_OK;
 1736              		.loc 1 978 10
 1737 005a 0023     		movs	r3, #0
 1738              	.L73:
 979:Middlewares/ST/STM32_USB_Device_Library/Core/Src/usbd_core.c **** }
 1739              		.loc 1 979 1
 1740 005c 1846     		mov	r0, r3
 1741 005e 0837     		adds	r7, r7, #8
 1742              	.LCFI92:
 1743              		.cfi_def_cfa_offset 8
 1744 0060 BD46     		mov	sp, r7
 1745              	.LCFI93:
 1746              		.cfi_def_cfa_register 13
 1747              		@ sp needed
 1748 0062 80BD     		pop	{r7, pc}
 1749              		.cfi_endproc
 1750              	.LFE237:
 1752              		.section	.text.USBD_LL_DevConnected,"ax",%progbits
 1753              		.align	1
 1754              		.global	USBD_LL_DevConnected
 1755              		.syntax unified
 1756              		.thumb
 1757              		.thumb_func
 1758              		.fpu fpv4-sp-d16
 1760              	USBD_LL_DevConnected:
 1761              	.LFB238:
 980:Middlewares/ST/STM32_USB_Device_Library/Core/Src/usbd_core.c **** 
 981:Middlewares/ST/STM32_USB_Device_Library/Core/Src/usbd_core.c **** /**
 982:Middlewares/ST/STM32_USB_Device_Library/Core/Src/usbd_core.c ****   * @brief  USBD_LL_DevConnected
 983:Middlewares/ST/STM32_USB_Device_Library/Core/Src/usbd_core.c ****   *         Handle device connection event
 984:Middlewares/ST/STM32_USB_Device_Library/Core/Src/usbd_core.c ****   * @param  pdev: device instance
 985:Middlewares/ST/STM32_USB_Device_Library/Core/Src/usbd_core.c ****   * @retval status
 986:Middlewares/ST/STM32_USB_Device_Library/Core/Src/usbd_core.c ****   */
 987:Middlewares/ST/STM32_USB_Device_Library/Core/Src/usbd_core.c **** USBD_StatusTypeDef USBD_LL_DevConnected(USBD_HandleTypeDef *pdev)
 988:Middlewares/ST/STM32_USB_Device_Library/Core/Src/usbd_core.c **** {
 1762              		.loc 1 988 1
 1763              		.cfi_startproc
 1764              		@ args = 0, pretend = 0, frame = 8
 1765              		@ frame_needed = 1, uses_anonymous_args = 0
 1766              		@ link register save eliminated.
 1767 0000 80B4     		push	{r7}
 1768              	.LCFI94:
 1769              		.cfi_def_cfa_offset 4
 1770              		.cfi_offset 7, -4
 1771 0002 83B0     		sub	sp, sp, #12
 1772              	.LCFI95:
 1773              		.cfi_def_cfa_offset 16
 1774 0004 00AF     		add	r7, sp, #0
 1775              	.LCFI96:
 1776              		.cfi_def_cfa_register 7
 1777 0006 7860     		str	r0, [r7, #4]
 989:Middlewares/ST/STM32_USB_Device_Library/Core/Src/usbd_core.c ****   /* Prevent unused argument compilation warning */
 990:Middlewares/ST/STM32_USB_Device_Library/Core/Src/usbd_core.c ****   UNUSED(pdev);
 991:Middlewares/ST/STM32_USB_Device_Library/Core/Src/usbd_core.c **** 
 992:Middlewares/ST/STM32_USB_Device_Library/Core/Src/usbd_core.c ****   return USBD_OK;
 1778              		.loc 1 992 10
 1779 0008 0023     		movs	r3, #0
ARM GAS  C:\Users\EI\AppData\Local\Temp\cc8Es05K.s 			page 49


 993:Middlewares/ST/STM32_USB_Device_Library/Core/Src/usbd_core.c **** }
 1780              		.loc 1 993 1
 1781 000a 1846     		mov	r0, r3
 1782 000c 0C37     		adds	r7, r7, #12
 1783              	.LCFI97:
 1784              		.cfi_def_cfa_offset 4
 1785 000e BD46     		mov	sp, r7
 1786              	.LCFI98:
 1787              		.cfi_def_cfa_register 13
 1788              		@ sp needed
 1789 0010 5DF8047B 		ldr	r7, [sp], #4
 1790              	.LCFI99:
 1791              		.cfi_restore 7
 1792              		.cfi_def_cfa_offset 0
 1793 0014 7047     		bx	lr
 1794              		.cfi_endproc
 1795              	.LFE238:
 1797              		.section	.text.USBD_LL_DevDisconnected,"ax",%progbits
 1798              		.align	1
 1799              		.global	USBD_LL_DevDisconnected
 1800              		.syntax unified
 1801              		.thumb
 1802              		.thumb_func
 1803              		.fpu fpv4-sp-d16
 1805              	USBD_LL_DevDisconnected:
 1806              	.LFB239:
 994:Middlewares/ST/STM32_USB_Device_Library/Core/Src/usbd_core.c **** 
 995:Middlewares/ST/STM32_USB_Device_Library/Core/Src/usbd_core.c **** /**
 996:Middlewares/ST/STM32_USB_Device_Library/Core/Src/usbd_core.c ****   * @brief  USBD_LL_DevDisconnected
 997:Middlewares/ST/STM32_USB_Device_Library/Core/Src/usbd_core.c ****   *         Handle device disconnection event
 998:Middlewares/ST/STM32_USB_Device_Library/Core/Src/usbd_core.c ****   * @param  pdev: device instance
 999:Middlewares/ST/STM32_USB_Device_Library/Core/Src/usbd_core.c ****   * @retval status
1000:Middlewares/ST/STM32_USB_Device_Library/Core/Src/usbd_core.c ****   */
1001:Middlewares/ST/STM32_USB_Device_Library/Core/Src/usbd_core.c **** USBD_StatusTypeDef USBD_LL_DevDisconnected(USBD_HandleTypeDef *pdev)
1002:Middlewares/ST/STM32_USB_Device_Library/Core/Src/usbd_core.c **** {
 1807              		.loc 1 1002 1
 1808              		.cfi_startproc
 1809              		@ args = 0, pretend = 0, frame = 16
 1810              		@ frame_needed = 1, uses_anonymous_args = 0
 1811 0000 80B5     		push	{r7, lr}
 1812              	.LCFI100:
 1813              		.cfi_def_cfa_offset 8
 1814              		.cfi_offset 7, -8
 1815              		.cfi_offset 14, -4
 1816 0002 84B0     		sub	sp, sp, #16
 1817              	.LCFI101:
 1818              		.cfi_def_cfa_offset 24
 1819 0004 00AF     		add	r7, sp, #0
 1820              	.LCFI102:
 1821              		.cfi_def_cfa_register 7
 1822 0006 7860     		str	r0, [r7, #4]
1003:Middlewares/ST/STM32_USB_Device_Library/Core/Src/usbd_core.c ****   USBD_StatusTypeDef   ret = USBD_OK;
 1823              		.loc 1 1003 24
 1824 0008 0023     		movs	r3, #0
 1825 000a FB73     		strb	r3, [r7, #15]
1004:Middlewares/ST/STM32_USB_Device_Library/Core/Src/usbd_core.c **** 
1005:Middlewares/ST/STM32_USB_Device_Library/Core/Src/usbd_core.c ****   /* Free Class Resources */
ARM GAS  C:\Users\EI\AppData\Local\Temp\cc8Es05K.s 			page 50


1006:Middlewares/ST/STM32_USB_Device_Library/Core/Src/usbd_core.c ****   pdev->dev_state = USBD_STATE_DEFAULT;
 1826              		.loc 1 1006 19
 1827 000c 7B68     		ldr	r3, [r7, #4]
 1828 000e 0122     		movs	r2, #1
 1829 0010 83F89C22 		strb	r2, [r3, #668]
1007:Middlewares/ST/STM32_USB_Device_Library/Core/Src/usbd_core.c **** 
1008:Middlewares/ST/STM32_USB_Device_Library/Core/Src/usbd_core.c **** #ifdef USE_USBD_COMPOSITE
1009:Middlewares/ST/STM32_USB_Device_Library/Core/Src/usbd_core.c ****   /* Parse the table of classes in use */
1010:Middlewares/ST/STM32_USB_Device_Library/Core/Src/usbd_core.c ****   for (uint32_t i = 0; i < USBD_MAX_SUPPORTED_CLASS; i++)
1011:Middlewares/ST/STM32_USB_Device_Library/Core/Src/usbd_core.c ****   {
1012:Middlewares/ST/STM32_USB_Device_Library/Core/Src/usbd_core.c ****     /* Check if current class is in use */
1013:Middlewares/ST/STM32_USB_Device_Library/Core/Src/usbd_core.c ****     if ((pdev->tclasslist[i].Active) == 1U)
1014:Middlewares/ST/STM32_USB_Device_Library/Core/Src/usbd_core.c ****     {
1015:Middlewares/ST/STM32_USB_Device_Library/Core/Src/usbd_core.c ****       if (pdev->pClass[i] != NULL)
1016:Middlewares/ST/STM32_USB_Device_Library/Core/Src/usbd_core.c ****       {
1017:Middlewares/ST/STM32_USB_Device_Library/Core/Src/usbd_core.c ****         pdev->classId = i;
1018:Middlewares/ST/STM32_USB_Device_Library/Core/Src/usbd_core.c ****         /* Clear configuration  and De-initialize the Class process*/
1019:Middlewares/ST/STM32_USB_Device_Library/Core/Src/usbd_core.c ****         if (pdev->pClass[i]->DeInit(pdev, (uint8_t)pdev->dev_config) != 0U)
1020:Middlewares/ST/STM32_USB_Device_Library/Core/Src/usbd_core.c ****         {
1021:Middlewares/ST/STM32_USB_Device_Library/Core/Src/usbd_core.c ****           ret = USBD_FAIL;
1022:Middlewares/ST/STM32_USB_Device_Library/Core/Src/usbd_core.c ****         }
1023:Middlewares/ST/STM32_USB_Device_Library/Core/Src/usbd_core.c ****       }
1024:Middlewares/ST/STM32_USB_Device_Library/Core/Src/usbd_core.c ****     }
1025:Middlewares/ST/STM32_USB_Device_Library/Core/Src/usbd_core.c ****   }
1026:Middlewares/ST/STM32_USB_Device_Library/Core/Src/usbd_core.c **** #else
1027:Middlewares/ST/STM32_USB_Device_Library/Core/Src/usbd_core.c ****   if (pdev->pClass[0] != NULL)
 1830              		.loc 1 1027 19
 1831 0014 7B68     		ldr	r3, [r7, #4]
 1832 0016 D3F8B832 		ldr	r3, [r3, #696]
 1833              		.loc 1 1027 6
 1834 001a 002B     		cmp	r3, #0
 1835 001c 0ED0     		beq	.L78
1028:Middlewares/ST/STM32_USB_Device_Library/Core/Src/usbd_core.c ****   {
1029:Middlewares/ST/STM32_USB_Device_Library/Core/Src/usbd_core.c ****     if (pdev->pClass[0]->DeInit(pdev, (uint8_t)pdev->dev_config) != 0U)
 1836              		.loc 1 1029 21
 1837 001e 7B68     		ldr	r3, [r7, #4]
 1838 0020 D3F8B832 		ldr	r3, [r3, #696]
 1839              		.loc 1 1029 24
 1840 0024 5B68     		ldr	r3, [r3, #4]
 1841              		.loc 1 1029 52
 1842 0026 7A68     		ldr	r2, [r7, #4]
 1843 0028 5268     		ldr	r2, [r2, #4]
 1844              		.loc 1 1029 9
 1845 002a D2B2     		uxtb	r2, r2
 1846 002c 1146     		mov	r1, r2
 1847 002e 7868     		ldr	r0, [r7, #4]
 1848 0030 9847     		blx	r3
 1849              	.LVL13:
 1850 0032 0346     		mov	r3, r0
 1851              		.loc 1 1029 8
 1852 0034 002B     		cmp	r3, #0
 1853 0036 01D0     		beq	.L78
1030:Middlewares/ST/STM32_USB_Device_Library/Core/Src/usbd_core.c ****     {
1031:Middlewares/ST/STM32_USB_Device_Library/Core/Src/usbd_core.c ****       ret = USBD_FAIL;
 1854              		.loc 1 1031 11
 1855 0038 0323     		movs	r3, #3
 1856 003a FB73     		strb	r3, [r7, #15]
ARM GAS  C:\Users\EI\AppData\Local\Temp\cc8Es05K.s 			page 51


 1857              	.L78:
1032:Middlewares/ST/STM32_USB_Device_Library/Core/Src/usbd_core.c ****     }
1033:Middlewares/ST/STM32_USB_Device_Library/Core/Src/usbd_core.c ****   }
1034:Middlewares/ST/STM32_USB_Device_Library/Core/Src/usbd_core.c **** #endif /* USE_USBD_COMPOSITE */
1035:Middlewares/ST/STM32_USB_Device_Library/Core/Src/usbd_core.c **** 
1036:Middlewares/ST/STM32_USB_Device_Library/Core/Src/usbd_core.c ****   return ret;
 1858              		.loc 1 1036 10
 1859 003c FB7B     		ldrb	r3, [r7, #15]	@ zero_extendqisi2
1037:Middlewares/ST/STM32_USB_Device_Library/Core/Src/usbd_core.c **** }
 1860              		.loc 1 1037 1
 1861 003e 1846     		mov	r0, r3
 1862 0040 1037     		adds	r7, r7, #16
 1863              	.LCFI103:
 1864              		.cfi_def_cfa_offset 8
 1865 0042 BD46     		mov	sp, r7
 1866              	.LCFI104:
 1867              		.cfi_def_cfa_register 13
 1868              		@ sp needed
 1869 0044 80BD     		pop	{r7, pc}
 1870              		.cfi_endproc
 1871              	.LFE239:
 1873              		.section	.text.USBD_CoreFindIF,"ax",%progbits
 1874              		.align	1
 1875              		.global	USBD_CoreFindIF
 1876              		.syntax unified
 1877              		.thumb
 1878              		.thumb_func
 1879              		.fpu fpv4-sp-d16
 1881              	USBD_CoreFindIF:
 1882              	.LFB240:
1038:Middlewares/ST/STM32_USB_Device_Library/Core/Src/usbd_core.c **** 
1039:Middlewares/ST/STM32_USB_Device_Library/Core/Src/usbd_core.c **** /**
1040:Middlewares/ST/STM32_USB_Device_Library/Core/Src/usbd_core.c ****   * @brief  USBD_CoreFindIF
1041:Middlewares/ST/STM32_USB_Device_Library/Core/Src/usbd_core.c ****   *         return the class index relative to the selected interface
1042:Middlewares/ST/STM32_USB_Device_Library/Core/Src/usbd_core.c ****   * @param  pdev: device instance
1043:Middlewares/ST/STM32_USB_Device_Library/Core/Src/usbd_core.c ****   * @param  index : selected interface number
1044:Middlewares/ST/STM32_USB_Device_Library/Core/Src/usbd_core.c ****   * @retval index of the class using the selected interface number. OxFF if no class found.
1045:Middlewares/ST/STM32_USB_Device_Library/Core/Src/usbd_core.c ****   */
1046:Middlewares/ST/STM32_USB_Device_Library/Core/Src/usbd_core.c **** uint8_t USBD_CoreFindIF(USBD_HandleTypeDef *pdev, uint8_t index)
1047:Middlewares/ST/STM32_USB_Device_Library/Core/Src/usbd_core.c **** {
 1883              		.loc 1 1047 1
 1884              		.cfi_startproc
 1885              		@ args = 0, pretend = 0, frame = 8
 1886              		@ frame_needed = 1, uses_anonymous_args = 0
 1887              		@ link register save eliminated.
 1888 0000 80B4     		push	{r7}
 1889              	.LCFI105:
 1890              		.cfi_def_cfa_offset 4
 1891              		.cfi_offset 7, -4
 1892 0002 83B0     		sub	sp, sp, #12
 1893              	.LCFI106:
 1894              		.cfi_def_cfa_offset 16
 1895 0004 00AF     		add	r7, sp, #0
 1896              	.LCFI107:
 1897              		.cfi_def_cfa_register 7
 1898 0006 7860     		str	r0, [r7, #4]
 1899 0008 0B46     		mov	r3, r1
ARM GAS  C:\Users\EI\AppData\Local\Temp\cc8Es05K.s 			page 52


 1900 000a FB70     		strb	r3, [r7, #3]
1048:Middlewares/ST/STM32_USB_Device_Library/Core/Src/usbd_core.c **** #ifdef USE_USBD_COMPOSITE
1049:Middlewares/ST/STM32_USB_Device_Library/Core/Src/usbd_core.c ****   /* Parse the table of classes in use */
1050:Middlewares/ST/STM32_USB_Device_Library/Core/Src/usbd_core.c ****   for (uint32_t i = 0U; i < USBD_MAX_SUPPORTED_CLASS; i++)
1051:Middlewares/ST/STM32_USB_Device_Library/Core/Src/usbd_core.c ****   {
1052:Middlewares/ST/STM32_USB_Device_Library/Core/Src/usbd_core.c ****     /* Check if current class is in use */
1053:Middlewares/ST/STM32_USB_Device_Library/Core/Src/usbd_core.c ****     if ((pdev->tclasslist[i].Active) == 1U)
1054:Middlewares/ST/STM32_USB_Device_Library/Core/Src/usbd_core.c ****     {
1055:Middlewares/ST/STM32_USB_Device_Library/Core/Src/usbd_core.c ****       /* Parse all interfaces listed in the current class */
1056:Middlewares/ST/STM32_USB_Device_Library/Core/Src/usbd_core.c ****       for (uint32_t j = 0U; j < pdev->tclasslist[i].NumIf; j++)
1057:Middlewares/ST/STM32_USB_Device_Library/Core/Src/usbd_core.c ****       {
1058:Middlewares/ST/STM32_USB_Device_Library/Core/Src/usbd_core.c ****         /* Check if requested Interface matches the current class interface */
1059:Middlewares/ST/STM32_USB_Device_Library/Core/Src/usbd_core.c ****         if (pdev->tclasslist[i].Ifs[j] == index)
1060:Middlewares/ST/STM32_USB_Device_Library/Core/Src/usbd_core.c ****         {
1061:Middlewares/ST/STM32_USB_Device_Library/Core/Src/usbd_core.c ****           if (pdev->pClass[i]->Setup != NULL)
1062:Middlewares/ST/STM32_USB_Device_Library/Core/Src/usbd_core.c ****           {
1063:Middlewares/ST/STM32_USB_Device_Library/Core/Src/usbd_core.c ****             return (uint8_t)i;
1064:Middlewares/ST/STM32_USB_Device_Library/Core/Src/usbd_core.c ****           }
1065:Middlewares/ST/STM32_USB_Device_Library/Core/Src/usbd_core.c ****         }
1066:Middlewares/ST/STM32_USB_Device_Library/Core/Src/usbd_core.c ****       }
1067:Middlewares/ST/STM32_USB_Device_Library/Core/Src/usbd_core.c ****     }
1068:Middlewares/ST/STM32_USB_Device_Library/Core/Src/usbd_core.c ****   }
1069:Middlewares/ST/STM32_USB_Device_Library/Core/Src/usbd_core.c **** 
1070:Middlewares/ST/STM32_USB_Device_Library/Core/Src/usbd_core.c ****   return 0xFFU;
1071:Middlewares/ST/STM32_USB_Device_Library/Core/Src/usbd_core.c **** #else
1072:Middlewares/ST/STM32_USB_Device_Library/Core/Src/usbd_core.c ****   UNUSED(pdev);
1073:Middlewares/ST/STM32_USB_Device_Library/Core/Src/usbd_core.c ****   UNUSED(index);
1074:Middlewares/ST/STM32_USB_Device_Library/Core/Src/usbd_core.c **** 
1075:Middlewares/ST/STM32_USB_Device_Library/Core/Src/usbd_core.c ****   return 0x00U;
 1901              		.loc 1 1075 10
 1902 000c 0023     		movs	r3, #0
1076:Middlewares/ST/STM32_USB_Device_Library/Core/Src/usbd_core.c **** #endif /* USE_USBD_COMPOSITE */
1077:Middlewares/ST/STM32_USB_Device_Library/Core/Src/usbd_core.c **** }
 1903              		.loc 1 1077 1
 1904 000e 1846     		mov	r0, r3
 1905 0010 0C37     		adds	r7, r7, #12
 1906              	.LCFI108:
 1907              		.cfi_def_cfa_offset 4
 1908 0012 BD46     		mov	sp, r7
 1909              	.LCFI109:
 1910              		.cfi_def_cfa_register 13
 1911              		@ sp needed
 1912 0014 5DF8047B 		ldr	r7, [sp], #4
 1913              	.LCFI110:
 1914              		.cfi_restore 7
 1915              		.cfi_def_cfa_offset 0
 1916 0018 7047     		bx	lr
 1917              		.cfi_endproc
 1918              	.LFE240:
 1920              		.section	.text.USBD_CoreFindEP,"ax",%progbits
 1921              		.align	1
 1922              		.global	USBD_CoreFindEP
 1923              		.syntax unified
 1924              		.thumb
 1925              		.thumb_func
 1926              		.fpu fpv4-sp-d16
 1928              	USBD_CoreFindEP:
ARM GAS  C:\Users\EI\AppData\Local\Temp\cc8Es05K.s 			page 53


 1929              	.LFB241:
1078:Middlewares/ST/STM32_USB_Device_Library/Core/Src/usbd_core.c **** 
1079:Middlewares/ST/STM32_USB_Device_Library/Core/Src/usbd_core.c **** /**
1080:Middlewares/ST/STM32_USB_Device_Library/Core/Src/usbd_core.c ****   * @brief  USBD_CoreFindEP
1081:Middlewares/ST/STM32_USB_Device_Library/Core/Src/usbd_core.c ****   *         return the class index relative to the selected endpoint
1082:Middlewares/ST/STM32_USB_Device_Library/Core/Src/usbd_core.c ****   * @param  pdev: device instance
1083:Middlewares/ST/STM32_USB_Device_Library/Core/Src/usbd_core.c ****   * @param  index : selected endpoint number
1084:Middlewares/ST/STM32_USB_Device_Library/Core/Src/usbd_core.c ****   * @retval index of the class using the selected endpoint number. 0xFF if no class found.
1085:Middlewares/ST/STM32_USB_Device_Library/Core/Src/usbd_core.c ****   */
1086:Middlewares/ST/STM32_USB_Device_Library/Core/Src/usbd_core.c **** uint8_t USBD_CoreFindEP(USBD_HandleTypeDef *pdev, uint8_t index)
1087:Middlewares/ST/STM32_USB_Device_Library/Core/Src/usbd_core.c **** {
 1930              		.loc 1 1087 1
 1931              		.cfi_startproc
 1932              		@ args = 0, pretend = 0, frame = 8
 1933              		@ frame_needed = 1, uses_anonymous_args = 0
 1934              		@ link register save eliminated.
 1935 0000 80B4     		push	{r7}
 1936              	.LCFI111:
 1937              		.cfi_def_cfa_offset 4
 1938              		.cfi_offset 7, -4
 1939 0002 83B0     		sub	sp, sp, #12
 1940              	.LCFI112:
 1941              		.cfi_def_cfa_offset 16
 1942 0004 00AF     		add	r7, sp, #0
 1943              	.LCFI113:
 1944              		.cfi_def_cfa_register 7
 1945 0006 7860     		str	r0, [r7, #4]
 1946 0008 0B46     		mov	r3, r1
 1947 000a FB70     		strb	r3, [r7, #3]
1088:Middlewares/ST/STM32_USB_Device_Library/Core/Src/usbd_core.c **** #ifdef USE_USBD_COMPOSITE
1089:Middlewares/ST/STM32_USB_Device_Library/Core/Src/usbd_core.c ****   /* Parse the table of classes in use */
1090:Middlewares/ST/STM32_USB_Device_Library/Core/Src/usbd_core.c ****   for (uint32_t i = 0U; i < USBD_MAX_SUPPORTED_CLASS; i++)
1091:Middlewares/ST/STM32_USB_Device_Library/Core/Src/usbd_core.c ****   {
1092:Middlewares/ST/STM32_USB_Device_Library/Core/Src/usbd_core.c ****     /* Check if current class is in use */
1093:Middlewares/ST/STM32_USB_Device_Library/Core/Src/usbd_core.c ****     if ((pdev->tclasslist[i].Active) == 1U)
1094:Middlewares/ST/STM32_USB_Device_Library/Core/Src/usbd_core.c ****     {
1095:Middlewares/ST/STM32_USB_Device_Library/Core/Src/usbd_core.c ****       /* Parse all endpoints listed in the current class */
1096:Middlewares/ST/STM32_USB_Device_Library/Core/Src/usbd_core.c ****       for (uint32_t j = 0U; j < pdev->tclasslist[i].NumEps; j++)
1097:Middlewares/ST/STM32_USB_Device_Library/Core/Src/usbd_core.c ****       {
1098:Middlewares/ST/STM32_USB_Device_Library/Core/Src/usbd_core.c ****         /* Check if requested endpoint matches the current class endpoint */
1099:Middlewares/ST/STM32_USB_Device_Library/Core/Src/usbd_core.c ****         if (pdev->tclasslist[i].Eps[j].add == index)
1100:Middlewares/ST/STM32_USB_Device_Library/Core/Src/usbd_core.c ****         {
1101:Middlewares/ST/STM32_USB_Device_Library/Core/Src/usbd_core.c ****           if (pdev->pClass[i]->Setup != NULL)
1102:Middlewares/ST/STM32_USB_Device_Library/Core/Src/usbd_core.c ****           {
1103:Middlewares/ST/STM32_USB_Device_Library/Core/Src/usbd_core.c ****             return (uint8_t)i;
1104:Middlewares/ST/STM32_USB_Device_Library/Core/Src/usbd_core.c ****           }
1105:Middlewares/ST/STM32_USB_Device_Library/Core/Src/usbd_core.c ****         }
1106:Middlewares/ST/STM32_USB_Device_Library/Core/Src/usbd_core.c ****       }
1107:Middlewares/ST/STM32_USB_Device_Library/Core/Src/usbd_core.c ****     }
1108:Middlewares/ST/STM32_USB_Device_Library/Core/Src/usbd_core.c ****   }
1109:Middlewares/ST/STM32_USB_Device_Library/Core/Src/usbd_core.c **** 
1110:Middlewares/ST/STM32_USB_Device_Library/Core/Src/usbd_core.c ****   return 0xFFU;
1111:Middlewares/ST/STM32_USB_Device_Library/Core/Src/usbd_core.c **** #else
1112:Middlewares/ST/STM32_USB_Device_Library/Core/Src/usbd_core.c ****   UNUSED(pdev);
1113:Middlewares/ST/STM32_USB_Device_Library/Core/Src/usbd_core.c ****   UNUSED(index);
1114:Middlewares/ST/STM32_USB_Device_Library/Core/Src/usbd_core.c **** 
1115:Middlewares/ST/STM32_USB_Device_Library/Core/Src/usbd_core.c ****   return 0x00U;
ARM GAS  C:\Users\EI\AppData\Local\Temp\cc8Es05K.s 			page 54


 1948              		.loc 1 1115 10
 1949 000c 0023     		movs	r3, #0
1116:Middlewares/ST/STM32_USB_Device_Library/Core/Src/usbd_core.c **** #endif /* USE_USBD_COMPOSITE */
1117:Middlewares/ST/STM32_USB_Device_Library/Core/Src/usbd_core.c **** }
 1950              		.loc 1 1117 1
 1951 000e 1846     		mov	r0, r3
 1952 0010 0C37     		adds	r7, r7, #12
 1953              	.LCFI114:
 1954              		.cfi_def_cfa_offset 4
 1955 0012 BD46     		mov	sp, r7
 1956              	.LCFI115:
 1957              		.cfi_def_cfa_register 13
 1958              		@ sp needed
 1959 0014 5DF8047B 		ldr	r7, [sp], #4
 1960              	.LCFI116:
 1961              		.cfi_restore 7
 1962              		.cfi_def_cfa_offset 0
 1963 0018 7047     		bx	lr
 1964              		.cfi_endproc
 1965              	.LFE241:
 1967              		.section	.text.USBD_GetEpDesc,"ax",%progbits
 1968              		.align	1
 1969              		.global	USBD_GetEpDesc
 1970              		.syntax unified
 1971              		.thumb
 1972              		.thumb_func
 1973              		.fpu fpv4-sp-d16
 1975              	USBD_GetEpDesc:
 1976              	.LFB242:
1118:Middlewares/ST/STM32_USB_Device_Library/Core/Src/usbd_core.c **** 
1119:Middlewares/ST/STM32_USB_Device_Library/Core/Src/usbd_core.c **** #ifdef USE_USBD_COMPOSITE
1120:Middlewares/ST/STM32_USB_Device_Library/Core/Src/usbd_core.c **** /**
1121:Middlewares/ST/STM32_USB_Device_Library/Core/Src/usbd_core.c ****   * @brief  USBD_CoreGetEPAdd
1122:Middlewares/ST/STM32_USB_Device_Library/Core/Src/usbd_core.c ****   *         Get the endpoint address relative to a selected class
1123:Middlewares/ST/STM32_USB_Device_Library/Core/Src/usbd_core.c ****   * @param  pdev: device instance
1124:Middlewares/ST/STM32_USB_Device_Library/Core/Src/usbd_core.c ****   * @param  ep_dir: USBD_EP_IN or USBD_EP_OUT
1125:Middlewares/ST/STM32_USB_Device_Library/Core/Src/usbd_core.c ****   * @param  ep_type: USBD_EP_TYPE_CTRL, USBD_EP_TYPE_ISOC, USBD_EP_TYPE_BULK or USBD_EP_TYPE_INTR
1126:Middlewares/ST/STM32_USB_Device_Library/Core/Src/usbd_core.c ****   * @retval Address of the selected endpoint or 0xFFU if no endpoint found.
1127:Middlewares/ST/STM32_USB_Device_Library/Core/Src/usbd_core.c ****   */
1128:Middlewares/ST/STM32_USB_Device_Library/Core/Src/usbd_core.c **** uint8_t USBD_CoreGetEPAdd(USBD_HandleTypeDef *pdev, uint8_t ep_dir, uint8_t ep_type)
1129:Middlewares/ST/STM32_USB_Device_Library/Core/Src/usbd_core.c **** {
1130:Middlewares/ST/STM32_USB_Device_Library/Core/Src/usbd_core.c ****   uint8_t idx;
1131:Middlewares/ST/STM32_USB_Device_Library/Core/Src/usbd_core.c **** 
1132:Middlewares/ST/STM32_USB_Device_Library/Core/Src/usbd_core.c ****   /* Find the EP address in the selected class table */
1133:Middlewares/ST/STM32_USB_Device_Library/Core/Src/usbd_core.c ****   for (idx = 0; idx < pdev->tclasslist[pdev->classId].NumEps; idx++)
1134:Middlewares/ST/STM32_USB_Device_Library/Core/Src/usbd_core.c ****   {
1135:Middlewares/ST/STM32_USB_Device_Library/Core/Src/usbd_core.c ****     if (((pdev->tclasslist[pdev->classId].Eps[idx].add & USBD_EP_IN) == ep_dir) && \
1136:Middlewares/ST/STM32_USB_Device_Library/Core/Src/usbd_core.c ****         (pdev->tclasslist[pdev->classId].Eps[idx].type == ep_type) && \
1137:Middlewares/ST/STM32_USB_Device_Library/Core/Src/usbd_core.c ****         (pdev->tclasslist[pdev->classId].Eps[idx].is_used != 0U))
1138:Middlewares/ST/STM32_USB_Device_Library/Core/Src/usbd_core.c ****     {
1139:Middlewares/ST/STM32_USB_Device_Library/Core/Src/usbd_core.c ****       return (pdev->tclasslist[pdev->classId].Eps[idx].add);
1140:Middlewares/ST/STM32_USB_Device_Library/Core/Src/usbd_core.c ****     }
1141:Middlewares/ST/STM32_USB_Device_Library/Core/Src/usbd_core.c ****   }
1142:Middlewares/ST/STM32_USB_Device_Library/Core/Src/usbd_core.c **** 
1143:Middlewares/ST/STM32_USB_Device_Library/Core/Src/usbd_core.c ****   /* If reaching this point, then no endpoint was found */
1144:Middlewares/ST/STM32_USB_Device_Library/Core/Src/usbd_core.c ****   return 0xFFU;
1145:Middlewares/ST/STM32_USB_Device_Library/Core/Src/usbd_core.c **** }
ARM GAS  C:\Users\EI\AppData\Local\Temp\cc8Es05K.s 			page 55


1146:Middlewares/ST/STM32_USB_Device_Library/Core/Src/usbd_core.c **** #endif /* USE_USBD_COMPOSITE */
1147:Middlewares/ST/STM32_USB_Device_Library/Core/Src/usbd_core.c **** 
1148:Middlewares/ST/STM32_USB_Device_Library/Core/Src/usbd_core.c **** /**
1149:Middlewares/ST/STM32_USB_Device_Library/Core/Src/usbd_core.c ****   * @brief  USBD_GetEpDesc
1150:Middlewares/ST/STM32_USB_Device_Library/Core/Src/usbd_core.c ****   *         This function return the Endpoint descriptor
1151:Middlewares/ST/STM32_USB_Device_Library/Core/Src/usbd_core.c ****   * @param  pdev: device instance
1152:Middlewares/ST/STM32_USB_Device_Library/Core/Src/usbd_core.c ****   * @param  pConfDesc:  pointer to Bos descriptor
1153:Middlewares/ST/STM32_USB_Device_Library/Core/Src/usbd_core.c ****   * @param  EpAddr:  endpoint address
1154:Middlewares/ST/STM32_USB_Device_Library/Core/Src/usbd_core.c ****   * @retval pointer to video endpoint descriptor
1155:Middlewares/ST/STM32_USB_Device_Library/Core/Src/usbd_core.c ****   */
1156:Middlewares/ST/STM32_USB_Device_Library/Core/Src/usbd_core.c **** void *USBD_GetEpDesc(uint8_t *pConfDesc, uint8_t EpAddr)
1157:Middlewares/ST/STM32_USB_Device_Library/Core/Src/usbd_core.c **** {
 1977              		.loc 1 1157 1
 1978              		.cfi_startproc
 1979              		@ args = 0, pretend = 0, frame = 24
 1980              		@ frame_needed = 1, uses_anonymous_args = 0
 1981 0000 80B5     		push	{r7, lr}
 1982              	.LCFI117:
 1983              		.cfi_def_cfa_offset 8
 1984              		.cfi_offset 7, -8
 1985              		.cfi_offset 14, -4
 1986 0002 86B0     		sub	sp, sp, #24
 1987              	.LCFI118:
 1988              		.cfi_def_cfa_offset 32
 1989 0004 00AF     		add	r7, sp, #0
 1990              	.LCFI119:
 1991              		.cfi_def_cfa_register 7
 1992 0006 7860     		str	r0, [r7, #4]
 1993 0008 0B46     		mov	r3, r1
 1994 000a FB70     		strb	r3, [r7, #3]
1158:Middlewares/ST/STM32_USB_Device_Library/Core/Src/usbd_core.c ****   USBD_DescHeaderTypeDef *pdesc = (USBD_DescHeaderTypeDef *)(void *)pConfDesc;
 1995              		.loc 1 1158 27
 1996 000c 7B68     		ldr	r3, [r7, #4]
 1997 000e 7B61     		str	r3, [r7, #20]
1159:Middlewares/ST/STM32_USB_Device_Library/Core/Src/usbd_core.c ****   USBD_ConfigDescTypeDef *desc = (USBD_ConfigDescTypeDef *)(void *)pConfDesc;
 1998              		.loc 1 1159 27
 1999 0010 7B68     		ldr	r3, [r7, #4]
 2000 0012 FB60     		str	r3, [r7, #12]
1160:Middlewares/ST/STM32_USB_Device_Library/Core/Src/usbd_core.c ****   USBD_EpDescTypeDef *pEpDesc = NULL;
 2001              		.loc 1 1160 23
 2002 0014 0023     		movs	r3, #0
 2003 0016 3B61     		str	r3, [r7, #16]
1161:Middlewares/ST/STM32_USB_Device_Library/Core/Src/usbd_core.c ****   uint16_t ptr;
1162:Middlewares/ST/STM32_USB_Device_Library/Core/Src/usbd_core.c **** 
1163:Middlewares/ST/STM32_USB_Device_Library/Core/Src/usbd_core.c ****   if (desc->wTotalLength > desc->bLength)
 2004              		.loc 1 1163 11
 2005 0018 FB68     		ldr	r3, [r7, #12]
 2006 001a 5B88     		ldrh	r3, [r3, #2]	@ unaligned
 2007 001c 9AB2     		uxth	r2, r3
 2008              		.loc 1 1163 32
 2009 001e FB68     		ldr	r3, [r7, #12]
 2010 0020 1B78     		ldrb	r3, [r3]	@ zero_extendqisi2
 2011              		.loc 1 1163 26
 2012 0022 9BB2     		uxth	r3, r3
 2013              		.loc 1 1163 6
 2014 0024 9A42     		cmp	r2, r3
 2015 0026 20D9     		bls	.L85
ARM GAS  C:\Users\EI\AppData\Local\Temp\cc8Es05K.s 			page 56


1164:Middlewares/ST/STM32_USB_Device_Library/Core/Src/usbd_core.c ****   {
1165:Middlewares/ST/STM32_USB_Device_Library/Core/Src/usbd_core.c ****     ptr = desc->bLength;
 2016              		.loc 1 1165 15
 2017 0028 FB68     		ldr	r3, [r7, #12]
 2018 002a 1B78     		ldrb	r3, [r3]	@ zero_extendqisi2
 2019 002c 9BB2     		uxth	r3, r3
 2020              		.loc 1 1165 9
 2021 002e 7B81     		strh	r3, [r7, #10]	@ movhi
1166:Middlewares/ST/STM32_USB_Device_Library/Core/Src/usbd_core.c **** 
1167:Middlewares/ST/STM32_USB_Device_Library/Core/Src/usbd_core.c ****     while (ptr < desc->wTotalLength)
 2022              		.loc 1 1167 11
 2023 0030 13E0     		b	.L86
 2024              	.L88:
1168:Middlewares/ST/STM32_USB_Device_Library/Core/Src/usbd_core.c ****     {
1169:Middlewares/ST/STM32_USB_Device_Library/Core/Src/usbd_core.c ****       pdesc = USBD_GetNextDesc((uint8_t *)pdesc, &ptr);
 2025              		.loc 1 1169 15
 2026 0032 07F10A03 		add	r3, r7, #10
 2027 0036 1946     		mov	r1, r3
 2028 0038 7869     		ldr	r0, [r7, #20]
 2029 003a FFF7FEFF 		bl	USBD_GetNextDesc
 2030 003e 7861     		str	r0, [r7, #20]
1170:Middlewares/ST/STM32_USB_Device_Library/Core/Src/usbd_core.c **** 
1171:Middlewares/ST/STM32_USB_Device_Library/Core/Src/usbd_core.c ****       if (pdesc->bDescriptorType == USB_DESC_TYPE_ENDPOINT)
 2031              		.loc 1 1171 16
 2032 0040 7B69     		ldr	r3, [r7, #20]
 2033 0042 5B78     		ldrb	r3, [r3, #1]	@ zero_extendqisi2
 2034              		.loc 1 1171 10
 2035 0044 052B     		cmp	r3, #5
 2036 0046 08D1     		bne	.L86
1172:Middlewares/ST/STM32_USB_Device_Library/Core/Src/usbd_core.c ****       {
1173:Middlewares/ST/STM32_USB_Device_Library/Core/Src/usbd_core.c ****         pEpDesc = (USBD_EpDescTypeDef *)(void *)pdesc;
 2037              		.loc 1 1173 17
 2038 0048 7B69     		ldr	r3, [r7, #20]
 2039 004a 3B61     		str	r3, [r7, #16]
1174:Middlewares/ST/STM32_USB_Device_Library/Core/Src/usbd_core.c **** 
1175:Middlewares/ST/STM32_USB_Device_Library/Core/Src/usbd_core.c ****         if (pEpDesc->bEndpointAddress == EpAddr)
 2040              		.loc 1 1175 20
 2041 004c 3B69     		ldr	r3, [r7, #16]
 2042 004e 9B78     		ldrb	r3, [r3, #2]	@ zero_extendqisi2
 2043              		.loc 1 1175 12
 2044 0050 FA78     		ldrb	r2, [r7, #3]	@ zero_extendqisi2
 2045 0052 9A42     		cmp	r2, r3
 2046 0054 08D0     		beq	.L90
1176:Middlewares/ST/STM32_USB_Device_Library/Core/Src/usbd_core.c ****         {
1177:Middlewares/ST/STM32_USB_Device_Library/Core/Src/usbd_core.c ****           break;
1178:Middlewares/ST/STM32_USB_Device_Library/Core/Src/usbd_core.c ****         }
1179:Middlewares/ST/STM32_USB_Device_Library/Core/Src/usbd_core.c ****         else
1180:Middlewares/ST/STM32_USB_Device_Library/Core/Src/usbd_core.c ****         {
1181:Middlewares/ST/STM32_USB_Device_Library/Core/Src/usbd_core.c ****           pEpDesc = NULL;
 2047              		.loc 1 1181 19
 2048 0056 0023     		movs	r3, #0
 2049 0058 3B61     		str	r3, [r7, #16]
 2050              	.L86:
1167:Middlewares/ST/STM32_USB_Device_Library/Core/Src/usbd_core.c ****     {
 2051              		.loc 1 1167 22
 2052 005a FB68     		ldr	r3, [r7, #12]
 2053 005c 5B88     		ldrh	r3, [r3, #2]	@ unaligned
ARM GAS  C:\Users\EI\AppData\Local\Temp\cc8Es05K.s 			page 57


 2054 005e 9AB2     		uxth	r2, r3
1167:Middlewares/ST/STM32_USB_Device_Library/Core/Src/usbd_core.c ****     {
 2055              		.loc 1 1167 16
 2056 0060 7B89     		ldrh	r3, [r7, #10]
1167:Middlewares/ST/STM32_USB_Device_Library/Core/Src/usbd_core.c ****     {
 2057              		.loc 1 1167 11
 2058 0062 9A42     		cmp	r2, r3
 2059 0064 E5D8     		bhi	.L88
 2060 0066 00E0     		b	.L85
 2061              	.L90:
1177:Middlewares/ST/STM32_USB_Device_Library/Core/Src/usbd_core.c ****         }
 2062              		.loc 1 1177 11
 2063 0068 00BF     		nop
 2064              	.L85:
1182:Middlewares/ST/STM32_USB_Device_Library/Core/Src/usbd_core.c ****         }
1183:Middlewares/ST/STM32_USB_Device_Library/Core/Src/usbd_core.c ****       }
1184:Middlewares/ST/STM32_USB_Device_Library/Core/Src/usbd_core.c ****     }
1185:Middlewares/ST/STM32_USB_Device_Library/Core/Src/usbd_core.c ****   }
1186:Middlewares/ST/STM32_USB_Device_Library/Core/Src/usbd_core.c **** 
1187:Middlewares/ST/STM32_USB_Device_Library/Core/Src/usbd_core.c ****   return (void *)pEpDesc;
 2065              		.loc 1 1187 10
 2066 006a 3B69     		ldr	r3, [r7, #16]
1188:Middlewares/ST/STM32_USB_Device_Library/Core/Src/usbd_core.c **** }
 2067              		.loc 1 1188 1
 2068 006c 1846     		mov	r0, r3
 2069 006e 1837     		adds	r7, r7, #24
 2070              	.LCFI120:
 2071              		.cfi_def_cfa_offset 8
 2072 0070 BD46     		mov	sp, r7
 2073              	.LCFI121:
 2074              		.cfi_def_cfa_register 13
 2075              		@ sp needed
 2076 0072 80BD     		pop	{r7, pc}
 2077              		.cfi_endproc
 2078              	.LFE242:
 2080              		.section	.text.USBD_GetNextDesc,"ax",%progbits
 2081              		.align	1
 2082              		.global	USBD_GetNextDesc
 2083              		.syntax unified
 2084              		.thumb
 2085              		.thumb_func
 2086              		.fpu fpv4-sp-d16
 2088              	USBD_GetNextDesc:
 2089              	.LFB243:
1189:Middlewares/ST/STM32_USB_Device_Library/Core/Src/usbd_core.c **** 
1190:Middlewares/ST/STM32_USB_Device_Library/Core/Src/usbd_core.c **** /**
1191:Middlewares/ST/STM32_USB_Device_Library/Core/Src/usbd_core.c ****   * @brief  USBD_GetNextDesc
1192:Middlewares/ST/STM32_USB_Device_Library/Core/Src/usbd_core.c ****   *         This function return the next descriptor header
1193:Middlewares/ST/STM32_USB_Device_Library/Core/Src/usbd_core.c ****   * @param  buf: Buffer where the descriptor is available
1194:Middlewares/ST/STM32_USB_Device_Library/Core/Src/usbd_core.c ****   * @param  ptr: data pointer inside the descriptor
1195:Middlewares/ST/STM32_USB_Device_Library/Core/Src/usbd_core.c ****   * @retval next header
1196:Middlewares/ST/STM32_USB_Device_Library/Core/Src/usbd_core.c ****   */
1197:Middlewares/ST/STM32_USB_Device_Library/Core/Src/usbd_core.c **** USBD_DescHeaderTypeDef *USBD_GetNextDesc(uint8_t *pbuf, uint16_t *ptr)
1198:Middlewares/ST/STM32_USB_Device_Library/Core/Src/usbd_core.c **** {
 2090              		.loc 1 1198 1
 2091              		.cfi_startproc
 2092              		@ args = 0, pretend = 0, frame = 16
ARM GAS  C:\Users\EI\AppData\Local\Temp\cc8Es05K.s 			page 58


 2093              		@ frame_needed = 1, uses_anonymous_args = 0
 2094              		@ link register save eliminated.
 2095 0000 80B4     		push	{r7}
 2096              	.LCFI122:
 2097              		.cfi_def_cfa_offset 4
 2098              		.cfi_offset 7, -4
 2099 0002 85B0     		sub	sp, sp, #20
 2100              	.LCFI123:
 2101              		.cfi_def_cfa_offset 24
 2102 0004 00AF     		add	r7, sp, #0
 2103              	.LCFI124:
 2104              		.cfi_def_cfa_register 7
 2105 0006 7860     		str	r0, [r7, #4]
 2106 0008 3960     		str	r1, [r7]
1199:Middlewares/ST/STM32_USB_Device_Library/Core/Src/usbd_core.c ****   USBD_DescHeaderTypeDef *pnext = (USBD_DescHeaderTypeDef *)(void *)pbuf;
 2107              		.loc 1 1199 27
 2108 000a 7B68     		ldr	r3, [r7, #4]
 2109 000c FB60     		str	r3, [r7, #12]
1200:Middlewares/ST/STM32_USB_Device_Library/Core/Src/usbd_core.c **** 
1201:Middlewares/ST/STM32_USB_Device_Library/Core/Src/usbd_core.c ****   *ptr += pnext->bLength;
 2110              		.loc 1 1201 8
 2111 000e 3B68     		ldr	r3, [r7]
 2112 0010 1A88     		ldrh	r2, [r3]
 2113              		.loc 1 1201 16
 2114 0012 FB68     		ldr	r3, [r7, #12]
 2115 0014 1B78     		ldrb	r3, [r3]	@ zero_extendqisi2
 2116 0016 9BB2     		uxth	r3, r3
 2117              		.loc 1 1201 8
 2118 0018 1344     		add	r3, r3, r2
 2119 001a 9AB2     		uxth	r2, r3
 2120 001c 3B68     		ldr	r3, [r7]
 2121 001e 1A80     		strh	r2, [r3]	@ movhi
1202:Middlewares/ST/STM32_USB_Device_Library/Core/Src/usbd_core.c ****   pnext = (USBD_DescHeaderTypeDef *)(void *)(pbuf + pnext->bLength);
 2122              		.loc 1 1202 58
 2123 0020 FB68     		ldr	r3, [r7, #12]
 2124 0022 1B78     		ldrb	r3, [r3]	@ zero_extendqisi2
 2125 0024 1A46     		mov	r2, r3
 2126              		.loc 1 1202 9
 2127 0026 7B68     		ldr	r3, [r7, #4]
 2128 0028 1344     		add	r3, r3, r2
 2129 002a FB60     		str	r3, [r7, #12]
1203:Middlewares/ST/STM32_USB_Device_Library/Core/Src/usbd_core.c **** 
1204:Middlewares/ST/STM32_USB_Device_Library/Core/Src/usbd_core.c ****   return (pnext);
 2130              		.loc 1 1204 10
 2131 002c FB68     		ldr	r3, [r7, #12]
1205:Middlewares/ST/STM32_USB_Device_Library/Core/Src/usbd_core.c **** }
 2132              		.loc 1 1205 1
 2133 002e 1846     		mov	r0, r3
 2134 0030 1437     		adds	r7, r7, #20
 2135              	.LCFI125:
 2136              		.cfi_def_cfa_offset 4
 2137 0032 BD46     		mov	sp, r7
 2138              	.LCFI126:
 2139              		.cfi_def_cfa_register 13
 2140              		@ sp needed
 2141 0034 5DF8047B 		ldr	r7, [sp], #4
 2142              	.LCFI127:
ARM GAS  C:\Users\EI\AppData\Local\Temp\cc8Es05K.s 			page 59


 2143              		.cfi_restore 7
 2144              		.cfi_def_cfa_offset 0
 2145 0038 7047     		bx	lr
 2146              		.cfi_endproc
 2147              	.LFE243:
 2149              		.text
 2150              	.Letext0:
 2151              		.file 2 "c:\\arm-gcc\\tools\\gcc-arm-none-eabi-10-2020-q4-major\\arm-none-eabi\\include\\machine\\
 2152              		.file 3 "c:\\arm-gcc\\tools\\gcc-arm-none-eabi-10-2020-q4-major\\arm-none-eabi\\include\\sys\\_std
 2153              		.file 4 "Middlewares/ST/STM32_USB_Device_Library/Core/Inc/usbd_def.h"
ARM GAS  C:\Users\EI\AppData\Local\Temp\cc8Es05K.s 			page 60

